ARM GAS  C:\Users\Colin\AppData\Local\Temp\ccyjTXTG.s 			page 1


   1              		.syntax unified
   2              		.cpu cortex-m3
   3              		.fpu softvfp
   4              		.eabi_attribute 20, 1
   5              		.eabi_attribute 21, 1
   6              		.eabi_attribute 23, 3
   7              		.eabi_attribute 24, 1
   8              		.eabi_attribute 25, 1
   9              		.eabi_attribute 26, 1
  10              		.eabi_attribute 30, 6
  11              		.eabi_attribute 34, 1
  12              		.eabi_attribute 18, 4
  13              		.thumb
  14              		.file	"cyfitter_cfg.c"
  15              		.text
  16              	.Ltext0:
  17              		.cfi_sections	.debug_frame
  18              		.section	.text.CYMEMZERO,"ax",%progbits
  19              		.align	2
  20              		.thumb
  21              		.thumb_func
  22              		.type	CYMEMZERO, %function
  23              	CYMEMZERO:
  24              	.LFB0:
  25              		.file 1 ".\\Generated_Source\\PSoC5\\cyfitter_cfg.c"
   1:.\Generated_Source\PSoC5/cyfitter_cfg.c **** /*******************************************************************************
   2:.\Generated_Source\PSoC5/cyfitter_cfg.c **** * FILENAME: cyfitter_cfg.c
   3:.\Generated_Source\PSoC5/cyfitter_cfg.c **** * PSoC Creator 3.0 Component Pack 7
   4:.\Generated_Source\PSoC5/cyfitter_cfg.c **** *
   5:.\Generated_Source\PSoC5/cyfitter_cfg.c **** * Description:
   6:.\Generated_Source\PSoC5/cyfitter_cfg.c **** * This file is automatically generated by PSoC Creator with device 
   7:.\Generated_Source\PSoC5/cyfitter_cfg.c **** * initialization code.  Except for the user defined sections in
   8:.\Generated_Source\PSoC5/cyfitter_cfg.c **** * CyClockStartupError(), this file should not be modified.
   9:.\Generated_Source\PSoC5/cyfitter_cfg.c **** *
  10:.\Generated_Source\PSoC5/cyfitter_cfg.c **** ********************************************************************************
  11:.\Generated_Source\PSoC5/cyfitter_cfg.c **** * Copyright 2013, Cypress Semiconductor Corporation.  All rights reserved.
  12:.\Generated_Source\PSoC5/cyfitter_cfg.c **** * You may use this file only in accordance with the license, terms, conditions, 
  13:.\Generated_Source\PSoC5/cyfitter_cfg.c **** * disclaimers, and limitations in the end user license agreement accompanying 
  14:.\Generated_Source\PSoC5/cyfitter_cfg.c **** * the software package with which this file was provided.
  15:.\Generated_Source\PSoC5/cyfitter_cfg.c **** ********************************************************************************/
  16:.\Generated_Source\PSoC5/cyfitter_cfg.c **** 
  17:.\Generated_Source\PSoC5/cyfitter_cfg.c **** #include <string.h>
  18:.\Generated_Source\PSoC5/cyfitter_cfg.c **** #include <cytypes.h>
  19:.\Generated_Source\PSoC5/cyfitter_cfg.c **** #include <cydevice_trm.h>
  20:.\Generated_Source\PSoC5/cyfitter_cfg.c **** #include <cyfitter.h>
  21:.\Generated_Source\PSoC5/cyfitter_cfg.c **** #include <CyLib.h>
  22:.\Generated_Source\PSoC5/cyfitter_cfg.c **** #include <cyfitter_cfg.h>
  23:.\Generated_Source\PSoC5/cyfitter_cfg.c **** 
  24:.\Generated_Source\PSoC5/cyfitter_cfg.c **** #define CY_NEED_CYCLOCKSTARTUPERROR 1
  25:.\Generated_Source\PSoC5/cyfitter_cfg.c **** 
  26:.\Generated_Source\PSoC5/cyfitter_cfg.c **** 
  27:.\Generated_Source\PSoC5/cyfitter_cfg.c **** #if defined(__GNUC__) || defined(__ARMCC_VERSION)
  28:.\Generated_Source\PSoC5/cyfitter_cfg.c ****     #define CYPACKED 
  29:.\Generated_Source\PSoC5/cyfitter_cfg.c ****     #define CYPACKED_ATTR __attribute__ ((packed))
  30:.\Generated_Source\PSoC5/cyfitter_cfg.c ****     #define CYALIGNED __attribute__ ((aligned))
  31:.\Generated_Source\PSoC5/cyfitter_cfg.c ****     #define CY_CFG_UNUSED __attribute__ ((unused))
  32:.\Generated_Source\PSoC5/cyfitter_cfg.c ****     #define CY_CFG_SECTION __attribute__ ((section(".psocinit")))
ARM GAS  C:\Users\Colin\AppData\Local\Temp\ccyjTXTG.s 			page 2


  33:.\Generated_Source\PSoC5/cyfitter_cfg.c ****     
  34:.\Generated_Source\PSoC5/cyfitter_cfg.c ****     #if defined(__ARMCC_VERSION)
  35:.\Generated_Source\PSoC5/cyfitter_cfg.c ****         #define CY_CFG_MEMORY_BARRIER() __memory_changed()
  36:.\Generated_Source\PSoC5/cyfitter_cfg.c ****     #else
  37:.\Generated_Source\PSoC5/cyfitter_cfg.c ****         #define CY_CFG_MEMORY_BARRIER() __sync_synchronize()
  38:.\Generated_Source\PSoC5/cyfitter_cfg.c ****     #endif
  39:.\Generated_Source\PSoC5/cyfitter_cfg.c ****     
  40:.\Generated_Source\PSoC5/cyfitter_cfg.c **** #elif defined(__ICCARM__)
  41:.\Generated_Source\PSoC5/cyfitter_cfg.c ****     #include <intrinsics.h>
  42:.\Generated_Source\PSoC5/cyfitter_cfg.c **** 
  43:.\Generated_Source\PSoC5/cyfitter_cfg.c ****     #define CYPACKED __packed
  44:.\Generated_Source\PSoC5/cyfitter_cfg.c ****     #define CYPACKED_ATTR 
  45:.\Generated_Source\PSoC5/cyfitter_cfg.c ****     #define CYALIGNED _Pragma("data_alignment=4")
  46:.\Generated_Source\PSoC5/cyfitter_cfg.c ****     #define CY_CFG_UNUSED _Pragma("diag_suppress=Pe177")
  47:.\Generated_Source\PSoC5/cyfitter_cfg.c ****     #define CY_CFG_SECTION _Pragma("location=\".psocinit\"")
  48:.\Generated_Source\PSoC5/cyfitter_cfg.c ****     
  49:.\Generated_Source\PSoC5/cyfitter_cfg.c ****     #define CY_CFG_MEMORY_BARRIER() __DMB()
  50:.\Generated_Source\PSoC5/cyfitter_cfg.c ****     
  51:.\Generated_Source\PSoC5/cyfitter_cfg.c **** #else
  52:.\Generated_Source\PSoC5/cyfitter_cfg.c ****     #error Unsupported toolchain
  53:.\Generated_Source\PSoC5/cyfitter_cfg.c **** #endif
  54:.\Generated_Source\PSoC5/cyfitter_cfg.c **** 
  55:.\Generated_Source\PSoC5/cyfitter_cfg.c **** 
  56:.\Generated_Source\PSoC5/cyfitter_cfg.c **** CY_CFG_UNUSED
  57:.\Generated_Source\PSoC5/cyfitter_cfg.c **** static void CYMEMZERO(void *s, size_t n);
  58:.\Generated_Source\PSoC5/cyfitter_cfg.c **** CY_CFG_UNUSED
  59:.\Generated_Source\PSoC5/cyfitter_cfg.c **** static void CYMEMZERO(void *s, size_t n)
  60:.\Generated_Source\PSoC5/cyfitter_cfg.c **** {
  26              		.loc 1 60 0
  27              		.cfi_startproc
  28              		@ args = 0, pretend = 0, frame = 8
  29              		@ frame_needed = 1, uses_anonymous_args = 0
  30 0000 80B5     		push	{r7, lr}
  31              	.LCFI0:
  32              		.cfi_def_cfa_offset 8
  33              		.cfi_offset 7, -8
  34              		.cfi_offset 14, -4
  35 0002 82B0     		sub	sp, sp, #8
  36              	.LCFI1:
  37              		.cfi_def_cfa_offset 16
  38 0004 00AF     		add	r7, sp, #0
  39              	.LCFI2:
  40              		.cfi_def_cfa_register 7
  41 0006 7860     		str	r0, [r7, #4]
  42 0008 3960     		str	r1, [r7, #0]
  61:.\Generated_Source\PSoC5/cyfitter_cfg.c **** 	(void)memset(s, 0, n);
  43              		.loc 1 61 0
  44 000a 7868     		ldr	r0, [r7, #4]
  45 000c 4FF00001 		mov	r1, #0
  46 0010 3A68     		ldr	r2, [r7, #0]
  47 0012 FFF7FEFF 		bl	memset
  62:.\Generated_Source\PSoC5/cyfitter_cfg.c **** }
  48              		.loc 1 62 0
  49 0016 07F10807 		add	r7, r7, #8
  50 001a BD46     		mov	sp, r7
  51 001c 80BD     		pop	{r7, pc}
  52              		.cfi_endproc
ARM GAS  C:\Users\Colin\AppData\Local\Temp\ccyjTXTG.s 			page 3


  53              	.LFE0:
  54              		.size	CYMEMZERO, .-CYMEMZERO
  55 001e 00BF     		.section	.text.CYCONFIGCPY,"ax",%progbits
  56              		.align	2
  57              		.thumb
  58              		.thumb_func
  59              		.type	CYCONFIGCPY, %function
  60              	CYCONFIGCPY:
  61              	.LFB1:
  63:.\Generated_Source\PSoC5/cyfitter_cfg.c **** CY_CFG_UNUSED
  64:.\Generated_Source\PSoC5/cyfitter_cfg.c **** static void CYCONFIGCPY(void *dest, const void *src, size_t n);
  65:.\Generated_Source\PSoC5/cyfitter_cfg.c **** CY_CFG_UNUSED
  66:.\Generated_Source\PSoC5/cyfitter_cfg.c **** static void CYCONFIGCPY(void *dest, const void *src, size_t n)
  67:.\Generated_Source\PSoC5/cyfitter_cfg.c **** {
  62              		.loc 1 67 0
  63              		.cfi_startproc
  64              		@ args = 0, pretend = 0, frame = 16
  65              		@ frame_needed = 1, uses_anonymous_args = 0
  66 0000 80B5     		push	{r7, lr}
  67              	.LCFI3:
  68              		.cfi_def_cfa_offset 8
  69              		.cfi_offset 7, -8
  70              		.cfi_offset 14, -4
  71 0002 84B0     		sub	sp, sp, #16
  72              	.LCFI4:
  73              		.cfi_def_cfa_offset 24
  74 0004 00AF     		add	r7, sp, #0
  75              	.LCFI5:
  76              		.cfi_def_cfa_register 7
  77 0006 F860     		str	r0, [r7, #12]
  78 0008 B960     		str	r1, [r7, #8]
  79 000a 7A60     		str	r2, [r7, #4]
  68:.\Generated_Source\PSoC5/cyfitter_cfg.c **** 	(void)memcpy(dest, src, n);
  80              		.loc 1 68 0
  81 000c F868     		ldr	r0, [r7, #12]
  82 000e B968     		ldr	r1, [r7, #8]
  83 0010 7A68     		ldr	r2, [r7, #4]
  84 0012 FFF7FEFF 		bl	memcpy
  69:.\Generated_Source\PSoC5/cyfitter_cfg.c **** }
  85              		.loc 1 69 0
  86 0016 07F11007 		add	r7, r7, #16
  87 001a BD46     		mov	sp, r7
  88 001c 80BD     		pop	{r7, pc}
  89              		.cfi_endproc
  90              	.LFE1:
  91              		.size	CYCONFIGCPY, .-CYCONFIGCPY
  92 001e 00BF     		.section	.text.CYCONFIGCPYCODE,"ax",%progbits
  93              		.align	2
  94              		.thumb
  95              		.thumb_func
  96              		.type	CYCONFIGCPYCODE, %function
  97              	CYCONFIGCPYCODE:
  98              	.LFB2:
  70:.\Generated_Source\PSoC5/cyfitter_cfg.c **** CY_CFG_UNUSED
  71:.\Generated_Source\PSoC5/cyfitter_cfg.c **** static void CYCONFIGCPYCODE(void *dest, const void *src, size_t n);
  72:.\Generated_Source\PSoC5/cyfitter_cfg.c **** CY_CFG_UNUSED
  73:.\Generated_Source\PSoC5/cyfitter_cfg.c **** static void CYCONFIGCPYCODE(void *dest, const void *src, size_t n)
ARM GAS  C:\Users\Colin\AppData\Local\Temp\ccyjTXTG.s 			page 4


  74:.\Generated_Source\PSoC5/cyfitter_cfg.c **** {
  99              		.loc 1 74 0
 100              		.cfi_startproc
 101              		@ args = 0, pretend = 0, frame = 16
 102              		@ frame_needed = 1, uses_anonymous_args = 0
 103 0000 80B5     		push	{r7, lr}
 104              	.LCFI6:
 105              		.cfi_def_cfa_offset 8
 106              		.cfi_offset 7, -8
 107              		.cfi_offset 14, -4
 108 0002 84B0     		sub	sp, sp, #16
 109              	.LCFI7:
 110              		.cfi_def_cfa_offset 24
 111 0004 00AF     		add	r7, sp, #0
 112              	.LCFI8:
 113              		.cfi_def_cfa_register 7
 114 0006 F860     		str	r0, [r7, #12]
 115 0008 B960     		str	r1, [r7, #8]
 116 000a 7A60     		str	r2, [r7, #4]
  75:.\Generated_Source\PSoC5/cyfitter_cfg.c **** 	(void)memcpy(dest, src, n);
 117              		.loc 1 75 0
 118 000c F868     		ldr	r0, [r7, #12]
 119 000e B968     		ldr	r1, [r7, #8]
 120 0010 7A68     		ldr	r2, [r7, #4]
 121 0012 FFF7FEFF 		bl	memcpy
  76:.\Generated_Source\PSoC5/cyfitter_cfg.c **** }
 122              		.loc 1 76 0
 123 0016 07F11007 		add	r7, r7, #16
 124 001a BD46     		mov	sp, r7
 125 001c 80BD     		pop	{r7, pc}
 126              		.cfi_endproc
 127              	.LFE2:
 128              		.size	CYCONFIGCPYCODE, .-CYCONFIGCPYCODE
 129 001e 00BF     		.section	.text.CyClockStartupError,"ax",%progbits
 130              		.align	2
 131              		.thumb
 132              		.thumb_func
 133              		.type	CyClockStartupError, %function
 134              	CyClockStartupError:
 135              	.LFB3:
  77:.\Generated_Source\PSoC5/cyfitter_cfg.c **** 
  78:.\Generated_Source\PSoC5/cyfitter_cfg.c **** 
  79:.\Generated_Source\PSoC5/cyfitter_cfg.c **** 
  80:.\Generated_Source\PSoC5/cyfitter_cfg.c **** /* Clock startup error codes                                                   */
  81:.\Generated_Source\PSoC5/cyfitter_cfg.c **** #define CYCLOCKSTART_NO_ERROR    0u
  82:.\Generated_Source\PSoC5/cyfitter_cfg.c **** #define CYCLOCKSTART_XTAL_ERROR  1u
  83:.\Generated_Source\PSoC5/cyfitter_cfg.c **** #define CYCLOCKSTART_32KHZ_ERROR 2u
  84:.\Generated_Source\PSoC5/cyfitter_cfg.c **** #define CYCLOCKSTART_PLL_ERROR   3u
  85:.\Generated_Source\PSoC5/cyfitter_cfg.c **** 
  86:.\Generated_Source\PSoC5/cyfitter_cfg.c **** #ifdef CY_NEED_CYCLOCKSTARTUPERROR
  87:.\Generated_Source\PSoC5/cyfitter_cfg.c **** /*******************************************************************************
  88:.\Generated_Source\PSoC5/cyfitter_cfg.c **** * Function Name: CyClockStartupError
  89:.\Generated_Source\PSoC5/cyfitter_cfg.c **** ********************************************************************************
  90:.\Generated_Source\PSoC5/cyfitter_cfg.c **** * Summary:
  91:.\Generated_Source\PSoC5/cyfitter_cfg.c **** *  If an error is encountered during clock configuration (crystal startup error,
  92:.\Generated_Source\PSoC5/cyfitter_cfg.c **** *  PLL lock error, etc.), the system will end up here.  Unless reimplemented by
  93:.\Generated_Source\PSoC5/cyfitter_cfg.c **** *  the customer, this function will stop in an infinite loop.
ARM GAS  C:\Users\Colin\AppData\Local\Temp\ccyjTXTG.s 			page 5


  94:.\Generated_Source\PSoC5/cyfitter_cfg.c **** *
  95:.\Generated_Source\PSoC5/cyfitter_cfg.c **** * Parameters:
  96:.\Generated_Source\PSoC5/cyfitter_cfg.c **** *   void
  97:.\Generated_Source\PSoC5/cyfitter_cfg.c **** *
  98:.\Generated_Source\PSoC5/cyfitter_cfg.c **** * Return:
  99:.\Generated_Source\PSoC5/cyfitter_cfg.c **** *   void
 100:.\Generated_Source\PSoC5/cyfitter_cfg.c **** *
 101:.\Generated_Source\PSoC5/cyfitter_cfg.c **** *******************************************************************************/
 102:.\Generated_Source\PSoC5/cyfitter_cfg.c **** CY_CFG_UNUSED
 103:.\Generated_Source\PSoC5/cyfitter_cfg.c **** static void CyClockStartupError(uint8 errorCode);
 104:.\Generated_Source\PSoC5/cyfitter_cfg.c **** CY_CFG_UNUSED
 105:.\Generated_Source\PSoC5/cyfitter_cfg.c **** static void CyClockStartupError(uint8 errorCode)
 106:.\Generated_Source\PSoC5/cyfitter_cfg.c **** {
 136              		.loc 1 106 0
 137              		.cfi_startproc
 138              		@ args = 0, pretend = 0, frame = 8
 139              		@ frame_needed = 1, uses_anonymous_args = 0
 140              		@ link register save eliminated.
 141 0000 80B4     		push	{r7}
 142              	.LCFI9:
 143              		.cfi_def_cfa_offset 4
 144              		.cfi_offset 7, -4
 145 0002 83B0     		sub	sp, sp, #12
 146              	.LCFI10:
 147              		.cfi_def_cfa_offset 16
 148 0004 00AF     		add	r7, sp, #0
 149              	.LCFI11:
 150              		.cfi_def_cfa_register 7
 151 0006 0346     		mov	r3, r0
 152 0008 FB71     		strb	r3, [r7, #7]
 153              	.L5:
 107:.\Generated_Source\PSoC5/cyfitter_cfg.c ****     /* To remove the compiler warning if errorCode not used.                */
 108:.\Generated_Source\PSoC5/cyfitter_cfg.c ****     errorCode = errorCode;
 109:.\Generated_Source\PSoC5/cyfitter_cfg.c **** 
 110:.\Generated_Source\PSoC5/cyfitter_cfg.c ****     /* `#START CyClockStartupError` */
 111:.\Generated_Source\PSoC5/cyfitter_cfg.c **** 
 112:.\Generated_Source\PSoC5/cyfitter_cfg.c ****     /* If we have a clock startup error (bad MHz crystal, PLL lock, etc.),  */
 113:.\Generated_Source\PSoC5/cyfitter_cfg.c ****     /* we will end up here to allow the customer to implement something to  */
 114:.\Generated_Source\PSoC5/cyfitter_cfg.c ****     /* deal with the clock condition.                                       */
 115:.\Generated_Source\PSoC5/cyfitter_cfg.c **** 
 116:.\Generated_Source\PSoC5/cyfitter_cfg.c ****     /* `#END` */
 117:.\Generated_Source\PSoC5/cyfitter_cfg.c **** 
 118:.\Generated_Source\PSoC5/cyfitter_cfg.c ****     /* If nothing else, stop here since the clocks have not started         */
 119:.\Generated_Source\PSoC5/cyfitter_cfg.c ****     /* correctly.                                                           */
 120:.\Generated_Source\PSoC5/cyfitter_cfg.c ****     while(1) {}
 154              		.loc 1 120 0 discriminator 1
 155 000a FEE7     		b	.L5
 156              		.cfi_endproc
 157              	.LFE3:
 158              		.size	CyClockStartupError, .-CyClockStartupError
 159              		.section	.text.cfg_write_bytes32,"ax",%progbits
 160              		.align	2
 161              		.thumb
 162              		.thumb_func
 163              		.type	cfg_write_bytes32, %function
 164              	cfg_write_bytes32:
 165              	.LFB4:
ARM GAS  C:\Users\Colin\AppData\Local\Temp\ccyjTXTG.s 			page 6


 121:.\Generated_Source\PSoC5/cyfitter_cfg.c **** }
 122:.\Generated_Source\PSoC5/cyfitter_cfg.c **** #endif
 123:.\Generated_Source\PSoC5/cyfitter_cfg.c **** 
 124:.\Generated_Source\PSoC5/cyfitter_cfg.c **** #define CY_CFG_BASE_ADDR_COUNT 30u
 125:.\Generated_Source\PSoC5/cyfitter_cfg.c **** CYPACKED typedef struct
 126:.\Generated_Source\PSoC5/cyfitter_cfg.c **** {
 127:.\Generated_Source\PSoC5/cyfitter_cfg.c **** 	uint8 offset;
 128:.\Generated_Source\PSoC5/cyfitter_cfg.c **** 	uint8 value;
 129:.\Generated_Source\PSoC5/cyfitter_cfg.c **** } CYPACKED_ATTR cy_cfg_addrvalue_t;
 130:.\Generated_Source\PSoC5/cyfitter_cfg.c **** 
 131:.\Generated_Source\PSoC5/cyfitter_cfg.c **** 
 132:.\Generated_Source\PSoC5/cyfitter_cfg.c **** 
 133:.\Generated_Source\PSoC5/cyfitter_cfg.c **** /*******************************************************************************
 134:.\Generated_Source\PSoC5/cyfitter_cfg.c **** * Function Name: cfg_write_bytes32
 135:.\Generated_Source\PSoC5/cyfitter_cfg.c **** ********************************************************************************
 136:.\Generated_Source\PSoC5/cyfitter_cfg.c **** * Summary:
 137:.\Generated_Source\PSoC5/cyfitter_cfg.c **** *  This function is used for setting up the chip configuration areas that
 138:.\Generated_Source\PSoC5/cyfitter_cfg.c **** *  contain relatively sparse data.
 139:.\Generated_Source\PSoC5/cyfitter_cfg.c **** *
 140:.\Generated_Source\PSoC5/cyfitter_cfg.c **** * Parameters:
 141:.\Generated_Source\PSoC5/cyfitter_cfg.c **** *   void
 142:.\Generated_Source\PSoC5/cyfitter_cfg.c **** *
 143:.\Generated_Source\PSoC5/cyfitter_cfg.c **** * Return:
 144:.\Generated_Source\PSoC5/cyfitter_cfg.c **** *   void
 145:.\Generated_Source\PSoC5/cyfitter_cfg.c **** *
 146:.\Generated_Source\PSoC5/cyfitter_cfg.c **** *******************************************************************************/
 147:.\Generated_Source\PSoC5/cyfitter_cfg.c **** static void cfg_write_bytes32(const uint32 addr_table[], const cy_cfg_addrvalue_t data_table[]);
 148:.\Generated_Source\PSoC5/cyfitter_cfg.c **** static void cfg_write_bytes32(const uint32 addr_table[], const cy_cfg_addrvalue_t data_table[])
 149:.\Generated_Source\PSoC5/cyfitter_cfg.c **** {
 166              		.loc 1 149 0
 167              		.cfi_startproc
 168              		@ args = 0, pretend = 0, frame = 24
 169              		@ frame_needed = 1, uses_anonymous_args = 0
 170              		@ link register save eliminated.
 171 0000 80B4     		push	{r7}
 172              	.LCFI12:
 173              		.cfi_def_cfa_offset 4
 174              		.cfi_offset 7, -4
 175 0002 87B0     		sub	sp, sp, #28
 176              	.LCFI13:
 177              		.cfi_def_cfa_offset 32
 178 0004 00AF     		add	r7, sp, #0
 179              	.LCFI14:
 180              		.cfi_def_cfa_register 7
 181 0006 7860     		str	r0, [r7, #4]
 182 0008 3960     		str	r1, [r7, #0]
 150:.\Generated_Source\PSoC5/cyfitter_cfg.c **** 	/* For 32-bit little-endian architectures */
 151:.\Generated_Source\PSoC5/cyfitter_cfg.c **** 	uint32 i, j = 0u;
 183              		.loc 1 151 0
 184 000a 4FF00003 		mov	r3, #0
 185 000e 3B61     		str	r3, [r7, #16]
 152:.\Generated_Source\PSoC5/cyfitter_cfg.c **** 	for (i = 0u; i < CY_CFG_BASE_ADDR_COUNT; i++)
 186              		.loc 1 152 0
 187 0010 4FF00003 		mov	r3, #0
 188 0014 7B61     		str	r3, [r7, #20]
 189 0016 2CE0     		b	.L7
 190              	.L10:
ARM GAS  C:\Users\Colin\AppData\Local\Temp\ccyjTXTG.s 			page 7


 191              	.LBB2:
 153:.\Generated_Source\PSoC5/cyfitter_cfg.c **** 	{
 154:.\Generated_Source\PSoC5/cyfitter_cfg.c **** 		uint32 baseAddr = addr_table[i];
 192              		.loc 1 154 0
 193 0018 7B69     		ldr	r3, [r7, #20]
 194 001a 4FEA8303 		lsl	r3, r3, #2
 195 001e 7A68     		ldr	r2, [r7, #4]
 196 0020 D318     		adds	r3, r2, r3
 197 0022 1B68     		ldr	r3, [r3, #0]
 198 0024 BB60     		str	r3, [r7, #8]
 155:.\Generated_Source\PSoC5/cyfitter_cfg.c **** 		uint8 count = (uint8)baseAddr;
 199              		.loc 1 155 0
 200 0026 BB68     		ldr	r3, [r7, #8]
 201 0028 FB73     		strb	r3, [r7, #15]
 156:.\Generated_Source\PSoC5/cyfitter_cfg.c **** 		baseAddr &= 0xFFFFFF00u;
 202              		.loc 1 156 0
 203 002a BB68     		ldr	r3, [r7, #8]
 204 002c 23F0FF03 		bic	r3, r3, #255
 205 0030 BB60     		str	r3, [r7, #8]
 157:.\Generated_Source\PSoC5/cyfitter_cfg.c **** 		while (count != 0u)
 206              		.loc 1 157 0
 207 0032 17E0     		b	.L8
 208              	.L9:
 158:.\Generated_Source\PSoC5/cyfitter_cfg.c **** 		{
 159:.\Generated_Source\PSoC5/cyfitter_cfg.c **** 			CY_SET_XTND_REG8((void CYFAR *)(baseAddr + data_table[j].offset), data_table[j].value);
 209              		.loc 1 159 0
 210 0034 3B69     		ldr	r3, [r7, #16]
 211 0036 4FEA4303 		lsl	r3, r3, #1
 212 003a 3A68     		ldr	r2, [r7, #0]
 213 003c D318     		adds	r3, r2, r3
 214 003e 1B78     		ldrb	r3, [r3, #0]	@ zero_extendqisi2
 215 0040 1A46     		mov	r2, r3
 216 0042 BB68     		ldr	r3, [r7, #8]
 217 0044 D318     		adds	r3, r2, r3
 218 0046 3A69     		ldr	r2, [r7, #16]
 219 0048 4FEA4202 		lsl	r2, r2, #1
 220 004c 3968     		ldr	r1, [r7, #0]
 221 004e 8A18     		adds	r2, r1, r2
 222 0050 5278     		ldrb	r2, [r2, #1]	@ zero_extendqisi2
 223 0052 1A70     		strb	r2, [r3, #0]
 160:.\Generated_Source\PSoC5/cyfitter_cfg.c **** 			j++;
 224              		.loc 1 160 0
 225 0054 3B69     		ldr	r3, [r7, #16]
 226 0056 03F10103 		add	r3, r3, #1
 227 005a 3B61     		str	r3, [r7, #16]
 161:.\Generated_Source\PSoC5/cyfitter_cfg.c **** 			count--;
 228              		.loc 1 161 0
 229 005c FB7B     		ldrb	r3, [r7, #15]
 230 005e 03F1FF33 		add	r3, r3, #-1
 231 0062 FB73     		strb	r3, [r7, #15]
 232              	.L8:
 157:.\Generated_Source\PSoC5/cyfitter_cfg.c **** 		while (count != 0u)
 233              		.loc 1 157 0 discriminator 1
 234 0064 FB7B     		ldrb	r3, [r7, #15]	@ zero_extendqisi2
 235 0066 002B     		cmp	r3, #0
 236 0068 E4D1     		bne	.L9
 237              	.LBE2:
ARM GAS  C:\Users\Colin\AppData\Local\Temp\ccyjTXTG.s 			page 8


 152:.\Generated_Source\PSoC5/cyfitter_cfg.c **** 	for (i = 0u; i < CY_CFG_BASE_ADDR_COUNT; i++)
 238              		.loc 1 152 0
 239 006a 7B69     		ldr	r3, [r7, #20]
 240 006c 03F10103 		add	r3, r3, #1
 241 0070 7B61     		str	r3, [r7, #20]
 242              	.L7:
 152:.\Generated_Source\PSoC5/cyfitter_cfg.c **** 	for (i = 0u; i < CY_CFG_BASE_ADDR_COUNT; i++)
 243              		.loc 1 152 0 is_stmt 0 discriminator 1
 244 0072 7B69     		ldr	r3, [r7, #20]
 245 0074 1D2B     		cmp	r3, #29
 246 0076 CFD9     		bls	.L10
 162:.\Generated_Source\PSoC5/cyfitter_cfg.c **** 		}
 163:.\Generated_Source\PSoC5/cyfitter_cfg.c **** 	}
 164:.\Generated_Source\PSoC5/cyfitter_cfg.c **** }
 247              		.loc 1 164 0 is_stmt 1
 248 0078 07F11C07 		add	r7, r7, #28
 249 007c BD46     		mov	sp, r7
 250 007e 80BC     		pop	{r7}
 251 0080 7047     		bx	lr
 252              		.cfi_endproc
 253              	.LFE4:
 254              		.size	cfg_write_bytes32, .-cfg_write_bytes32
 255 0082 00BF     		.section	.text.ClockSetup,"ax",%progbits
 256              		.align	2
 257              		.thumb
 258              		.thumb_func
 259              		.type	ClockSetup, %function
 260              	ClockSetup:
 261              	.LFB5:
 165:.\Generated_Source\PSoC5/cyfitter_cfg.c **** 
 166:.\Generated_Source\PSoC5/cyfitter_cfg.c **** /*******************************************************************************
 167:.\Generated_Source\PSoC5/cyfitter_cfg.c **** * Function Name: ClockSetup
 168:.\Generated_Source\PSoC5/cyfitter_cfg.c **** ********************************************************************************
 169:.\Generated_Source\PSoC5/cyfitter_cfg.c **** *
 170:.\Generated_Source\PSoC5/cyfitter_cfg.c **** * Summary:
 171:.\Generated_Source\PSoC5/cyfitter_cfg.c **** *  Performs the initialization of all of the clocks in the device based on the
 172:.\Generated_Source\PSoC5/cyfitter_cfg.c **** *  settings in the Clock tab of the DWR.  This includes enabling the requested
 173:.\Generated_Source\PSoC5/cyfitter_cfg.c **** *  clocks and setting the necessary dividers to produce the desired frequency. 
 174:.\Generated_Source\PSoC5/cyfitter_cfg.c **** *
 175:.\Generated_Source\PSoC5/cyfitter_cfg.c **** * Parameters:
 176:.\Generated_Source\PSoC5/cyfitter_cfg.c **** *  void
 177:.\Generated_Source\PSoC5/cyfitter_cfg.c **** *
 178:.\Generated_Source\PSoC5/cyfitter_cfg.c **** * Return:
 179:.\Generated_Source\PSoC5/cyfitter_cfg.c **** *  void
 180:.\Generated_Source\PSoC5/cyfitter_cfg.c **** *
 181:.\Generated_Source\PSoC5/cyfitter_cfg.c **** *******************************************************************************/
 182:.\Generated_Source\PSoC5/cyfitter_cfg.c **** static void ClockSetup(void);
 183:.\Generated_Source\PSoC5/cyfitter_cfg.c **** static void ClockSetup(void)
 184:.\Generated_Source\PSoC5/cyfitter_cfg.c **** {
 262              		.loc 1 184 0
 263              		.cfi_startproc
 264              		@ args = 0, pretend = 0, frame = 8
 265              		@ frame_needed = 1, uses_anonymous_args = 0
 266 0000 80B5     		push	{r7, lr}
 267              	.LCFI15:
 268              		.cfi_def_cfa_offset 8
 269              		.cfi_offset 7, -8
ARM GAS  C:\Users\Colin\AppData\Local\Temp\ccyjTXTG.s 			page 9


 270              		.cfi_offset 14, -4
 271 0002 82B0     		sub	sp, sp, #8
 272              	.LCFI16:
 273              		.cfi_def_cfa_offset 16
 274 0004 00AF     		add	r7, sp, #0
 275              	.LCFI17:
 276              		.cfi_def_cfa_register 7
 185:.\Generated_Source\PSoC5/cyfitter_cfg.c **** 	uint32 timeout;
 186:.\Generated_Source\PSoC5/cyfitter_cfg.c **** 	uint8 pllLock;
 187:.\Generated_Source\PSoC5/cyfitter_cfg.c **** 
 188:.\Generated_Source\PSoC5/cyfitter_cfg.c **** 
 189:.\Generated_Source\PSoC5/cyfitter_cfg.c **** 	/* Configure Digital Clocks based on settings from Clock DWR */
 190:.\Generated_Source\PSoC5/cyfitter_cfg.c **** 	CY_SET_XTND_REG16((void CYFAR *)(CYREG_CLKDIST_DCFG0_CFG0), 0x0027u);
 277              		.loc 1 190 0
 278 0006 4FF48143 		mov	r3, #16512
 279 000a C4F20003 		movt	r3, 16384
 280 000e 4FF02702 		mov	r2, #39
 281 0012 1A80     		strh	r2, [r3, #0]	@ movhi
 191:.\Generated_Source\PSoC5/cyfitter_cfg.c **** 	CY_SET_XTND_REG8((void CYFAR *)(CYREG_CLKDIST_DCFG0_CFG0 + 0x2u), 0x18u);
 282              		.loc 1 191 0
 283 0014 44F28203 		movw	r3, #16514
 284 0018 C4F20003 		movt	r3, 16384
 285 001c 4FF01802 		mov	r2, #24
 286 0020 1A70     		strb	r2, [r3, #0]
 192:.\Generated_Source\PSoC5/cyfitter_cfg.c **** 
 193:.\Generated_Source\PSoC5/cyfitter_cfg.c **** 	/* Configure ILO based on settings from Clock DWR */
 194:.\Generated_Source\PSoC5/cyfitter_cfg.c **** 	CY_SET_XTND_REG8((void CYFAR *)(CYREG_SLOWCLK_ILO_CR0), 0x06u);
 287              		.loc 1 194 0
 288 0022 4FF48643 		mov	r3, #17152
 289 0026 C4F20003 		movt	r3, 16384
 290 002a 4FF00602 		mov	r2, #6
 291 002e 1A70     		strb	r2, [r3, #0]
 195:.\Generated_Source\PSoC5/cyfitter_cfg.c **** 
 196:.\Generated_Source\PSoC5/cyfitter_cfg.c **** 	/* Configure IMO based on settings from Clock DWR */
 197:.\Generated_Source\PSoC5/cyfitter_cfg.c **** 	CY_SET_XTND_REG8((void CYFAR *)(CYREG_FASTCLK_IMO_CR), 0x52u);
 292              		.loc 1 197 0
 293 0030 4FF48443 		mov	r3, #16896
 294 0034 C4F20003 		movt	r3, 16384
 295 0038 4FF05202 		mov	r2, #82
 296 003c 1A70     		strb	r2, [r3, #0]
 198:.\Generated_Source\PSoC5/cyfitter_cfg.c **** 	CY_SET_XTND_REG8((void CYFAR *)(CYREG_IMO_TR1), (CY_GET_XTND_REG8((void CYFAR *)CYREG_FLSHID_CUST_
 297              		.loc 1 198 0
 298 003e 44F2A163 		movw	r3, #18081
 299 0042 C4F20003 		movt	r3, 16384
 300 0046 40F20F12 		movw	r2, #271
 301 004a C4F60012 		movt	r2, 18688
 302 004e 1278     		ldrb	r2, [r2, #0]
 303 0050 D2B2     		uxtb	r2, r2
 304 0052 1A70     		strb	r2, [r3, #0]
 199:.\Generated_Source\PSoC5/cyfitter_cfg.c **** 
 200:.\Generated_Source\PSoC5/cyfitter_cfg.c **** 	/* Configure PLL based on settings from Clock DWR */
 201:.\Generated_Source\PSoC5/cyfitter_cfg.c **** 	CY_SET_XTND_REG16((void CYFAR *)(CYREG_FASTCLK_PLL_P), 0x0818u);
 305              		.loc 1 201 0
 306 0054 44F22223 		movw	r3, #16930
 307 0058 C4F20003 		movt	r3, 16384
 308 005c 40F61802 		movw	r2, #2072
 309 0060 1A80     		strh	r2, [r3, #0]	@ movhi
ARM GAS  C:\Users\Colin\AppData\Local\Temp\ccyjTXTG.s 			page 10


 202:.\Generated_Source\PSoC5/cyfitter_cfg.c **** 	CY_SET_XTND_REG16((void CYFAR *)(CYREG_FASTCLK_PLL_CFG0), 0x1251u);
 310              		.loc 1 202 0
 311 0062 44F22023 		movw	r3, #16928
 312 0066 C4F20003 		movt	r3, 16384
 313 006a 41F25122 		movw	r2, #4689
 314 006e 1A80     		strh	r2, [r3, #0]	@ movhi
 203:.\Generated_Source\PSoC5/cyfitter_cfg.c **** 	/* Wait up to 250us for the PLL to lock */
 204:.\Generated_Source\PSoC5/cyfitter_cfg.c **** 	pllLock = 0u;
 315              		.loc 1 204 0
 316 0070 4FF00003 		mov	r3, #0
 317 0074 FB70     		strb	r3, [r7, #3]
 205:.\Generated_Source\PSoC5/cyfitter_cfg.c **** 	for (timeout = 250u / 10u; (timeout > 0u) && (pllLock != 0x03u); timeout--)
 318              		.loc 1 205 0
 319 0076 4FF01903 		mov	r3, #25
 320 007a 7B60     		str	r3, [r7, #4]
 321 007c 19E0     		b	.L12
 322              	.L14:
 206:.\Generated_Source\PSoC5/cyfitter_cfg.c **** 	{ 
 207:.\Generated_Source\PSoC5/cyfitter_cfg.c **** 		pllLock = 0x03u & ((uint8)((uint8)pllLock << 1) | ((CY_GET_XTND_REG8((void CYFAR *)CYREG_FASTCLK_
 323              		.loc 1 207 0 discriminator 1
 324 007e FB78     		ldrb	r3, [r7, #3]
 325 0080 4FEA4303 		lsl	r3, r3, #1
 326 0084 DAB2     		uxtb	r2, r3
 327 0086 44F22523 		movw	r3, #16933
 328 008a C4F20003 		movt	r3, 16384
 329 008e 1B78     		ldrb	r3, [r3, #0]
 330 0090 DBB2     		uxtb	r3, r3
 331 0092 03F00103 		and	r3, r3, #1
 332 0096 DBB2     		uxtb	r3, r3
 333 0098 1343     		orrs	r3, r3, r2
 334 009a DBB2     		uxtb	r3, r3
 335 009c 03F00303 		and	r3, r3, #3
 336 00a0 FB70     		strb	r3, [r7, #3]
 208:.\Generated_Source\PSoC5/cyfitter_cfg.c **** 		CyDelayCycles(10u * 48u); /* Delay 10us based on 48MHz clock */
 337              		.loc 1 208 0 discriminator 1
 338 00a2 4FF4F070 		mov	r0, #480
 339 00a6 FFF7FEFF 		bl	CyDelayCycles
 205:.\Generated_Source\PSoC5/cyfitter_cfg.c **** 	for (timeout = 250u / 10u; (timeout > 0u) && (pllLock != 0x03u); timeout--)
 340              		.loc 1 205 0 discriminator 1
 341 00aa 7B68     		ldr	r3, [r7, #4]
 342 00ac 03F1FF33 		add	r3, r3, #-1
 343 00b0 7B60     		str	r3, [r7, #4]
 344              	.L12:
 345 00b2 7B68     		ldr	r3, [r7, #4]
 346 00b4 002B     		cmp	r3, #0
 347 00b6 02D0     		beq	.L13
 205:.\Generated_Source\PSoC5/cyfitter_cfg.c **** 	for (timeout = 250u / 10u; (timeout > 0u) && (pllLock != 0x03u); timeout--)
 348              		.loc 1 205 0 is_stmt 0 discriminator 2
 349 00b8 FB78     		ldrb	r3, [r7, #3]	@ zero_extendqisi2
 350 00ba 032B     		cmp	r3, #3
 351 00bc DFD1     		bne	.L14
 352              	.L13:
 209:.\Generated_Source\PSoC5/cyfitter_cfg.c **** 	}
 210:.\Generated_Source\PSoC5/cyfitter_cfg.c **** 	/* If we ran out of time the PLL didn't lock so go to the error function */
 211:.\Generated_Source\PSoC5/cyfitter_cfg.c **** 	if (timeout == 0u)
 353              		.loc 1 211 0 is_stmt 1
 354 00be 7B68     		ldr	r3, [r7, #4]
ARM GAS  C:\Users\Colin\AppData\Local\Temp\ccyjTXTG.s 			page 11


 355 00c0 002B     		cmp	r3, #0
 356 00c2 03D1     		bne	.L15
 212:.\Generated_Source\PSoC5/cyfitter_cfg.c **** 	{
 213:.\Generated_Source\PSoC5/cyfitter_cfg.c **** 		CyClockStartupError(CYCLOCKSTART_PLL_ERROR);
 357              		.loc 1 213 0
 358 00c4 4FF00300 		mov	r0, #3
 359 00c8 FFF7FEFF 		bl	CyClockStartupError
 360              	.L15:
 214:.\Generated_Source\PSoC5/cyfitter_cfg.c **** 	}
 215:.\Generated_Source\PSoC5/cyfitter_cfg.c **** 
 216:.\Generated_Source\PSoC5/cyfitter_cfg.c **** 	/* Configure Bus/Master Clock based on settings from Clock DWR */
 217:.\Generated_Source\PSoC5/cyfitter_cfg.c **** 	CY_SET_XTND_REG16((void CYFAR *)(CYREG_CLKDIST_MSTR0), 0x0100u);
 361              		.loc 1 217 0
 362 00cc 44F20403 		movw	r3, #16388
 363 00d0 C4F20003 		movt	r3, 16384
 364 00d4 4FF48072 		mov	r2, #256
 365 00d8 1A80     		strh	r2, [r3, #0]	@ movhi
 218:.\Generated_Source\PSoC5/cyfitter_cfg.c **** 	CY_SET_XTND_REG8((void CYFAR *)(CYREG_CLKDIST_MSTR0), 0x07u);
 366              		.loc 1 218 0
 367 00da 44F20403 		movw	r3, #16388
 368 00de C4F20003 		movt	r3, 16384
 369 00e2 4FF00702 		mov	r2, #7
 370 00e6 1A70     		strb	r2, [r3, #0]
 219:.\Generated_Source\PSoC5/cyfitter_cfg.c **** 	CY_SET_XTND_REG8((void CYFAR *)(CYREG_CLKDIST_BCFG0), 0x00u);
 371              		.loc 1 219 0
 372 00e8 44F20603 		movw	r3, #16390
 373 00ec C4F20003 		movt	r3, 16384
 374 00f0 4FF00002 		mov	r2, #0
 375 00f4 1A70     		strb	r2, [r3, #0]
 220:.\Generated_Source\PSoC5/cyfitter_cfg.c **** 	CY_SET_XTND_REG8((void CYFAR *)(CYREG_CLKDIST_BCFG2), 0x48u);
 376              		.loc 1 220 0
 377 00f6 44F20803 		movw	r3, #16392
 378 00fa C4F20003 		movt	r3, 16384
 379 00fe 4FF04802 		mov	r2, #72
 380 0102 1A70     		strb	r2, [r3, #0]
 221:.\Generated_Source\PSoC5/cyfitter_cfg.c **** 	CY_SET_XTND_REG8((void CYFAR *)(CYREG_CLKDIST_MSTR0), 0x00u);
 381              		.loc 1 221 0
 382 0104 44F20403 		movw	r3, #16388
 383 0108 C4F20003 		movt	r3, 16384
 384 010c 4FF00002 		mov	r2, #0
 385 0110 1A70     		strb	r2, [r3, #0]
 222:.\Generated_Source\PSoC5/cyfitter_cfg.c **** 
 223:.\Generated_Source\PSoC5/cyfitter_cfg.c **** 	/* Configure USB Clock based on settings from Clock DWR */
 224:.\Generated_Source\PSoC5/cyfitter_cfg.c **** 	CY_SET_XTND_REG8((void CYFAR *)(CYREG_CLKDIST_UCFG), 0x00u);
 386              		.loc 1 224 0
 387 0112 44F20903 		movw	r3, #16393
 388 0116 C4F20003 		movt	r3, 16384
 389 011a 4FF00002 		mov	r2, #0
 390 011e 1A70     		strb	r2, [r3, #0]
 225:.\Generated_Source\PSoC5/cyfitter_cfg.c **** 	CY_SET_XTND_REG8((void CYFAR *)(CYREG_CLKDIST_LD), 0x02u);
 391              		.loc 1 225 0
 392 0120 44F20103 		movw	r3, #16385
 393 0124 C4F20003 		movt	r3, 16384
 394 0128 4FF00202 		mov	r2, #2
 395 012c 1A70     		strb	r2, [r3, #0]
 226:.\Generated_Source\PSoC5/cyfitter_cfg.c **** 
 227:.\Generated_Source\PSoC5/cyfitter_cfg.c **** 	CY_SET_XTND_REG8((void CYFAR *)(CYREG_PM_ACT_CFG2), ((CY_GET_XTND_REG8((void CYFAR *)CYREG_PM_ACT_
ARM GAS  C:\Users\Colin\AppData\Local\Temp\ccyjTXTG.s 			page 12


 396              		.loc 1 227 0
 397 012e 44F2A233 		movw	r3, #17314
 398 0132 C4F20003 		movt	r3, 16384
 399 0136 44F2A232 		movw	r2, #17314
 400 013a C4F20002 		movt	r2, 16384
 401 013e 1278     		ldrb	r2, [r2, #0]
 402 0140 D2B2     		uxtb	r2, r2
 403 0142 42F00102 		orr	r2, r2, #1
 404 0146 D2B2     		uxtb	r2, r2
 405 0148 1A70     		strb	r2, [r3, #0]
 228:.\Generated_Source\PSoC5/cyfitter_cfg.c **** }
 406              		.loc 1 228 0
 407 014a 07F10807 		add	r7, r7, #8
 408 014e BD46     		mov	sp, r7
 409 0150 80BD     		pop	{r7, pc}
 410              		.cfi_endproc
 411              	.LFE5:
 412              		.size	ClockSetup, .-ClockSetup
 413 0152 00BF     		.section	.text.AnalogSetDefault,"ax",%progbits
 414              		.align	2
 415              		.thumb
 416              		.thumb_func
 417              		.type	AnalogSetDefault, %function
 418              	AnalogSetDefault:
 419              	.LFB6:
 229:.\Generated_Source\PSoC5/cyfitter_cfg.c **** 
 230:.\Generated_Source\PSoC5/cyfitter_cfg.c **** 
 231:.\Generated_Source\PSoC5/cyfitter_cfg.c **** /* Analog API Functions */
 232:.\Generated_Source\PSoC5/cyfitter_cfg.c **** 
 233:.\Generated_Source\PSoC5/cyfitter_cfg.c **** 
 234:.\Generated_Source\PSoC5/cyfitter_cfg.c **** /*******************************************************************************
 235:.\Generated_Source\PSoC5/cyfitter_cfg.c **** * Function Name: AnalogSetDefault
 236:.\Generated_Source\PSoC5/cyfitter_cfg.c **** ********************************************************************************
 237:.\Generated_Source\PSoC5/cyfitter_cfg.c **** *
 238:.\Generated_Source\PSoC5/cyfitter_cfg.c **** * Summary:
 239:.\Generated_Source\PSoC5/cyfitter_cfg.c **** *  Sets up the analog portions of the chip to default values based on chip
 240:.\Generated_Source\PSoC5/cyfitter_cfg.c **** *  configuration options from the project.
 241:.\Generated_Source\PSoC5/cyfitter_cfg.c **** *
 242:.\Generated_Source\PSoC5/cyfitter_cfg.c **** * Parameters:
 243:.\Generated_Source\PSoC5/cyfitter_cfg.c **** *  void
 244:.\Generated_Source\PSoC5/cyfitter_cfg.c **** *
 245:.\Generated_Source\PSoC5/cyfitter_cfg.c **** * Return:
 246:.\Generated_Source\PSoC5/cyfitter_cfg.c **** *  void
 247:.\Generated_Source\PSoC5/cyfitter_cfg.c **** *
 248:.\Generated_Source\PSoC5/cyfitter_cfg.c **** *******************************************************************************/
 249:.\Generated_Source\PSoC5/cyfitter_cfg.c **** static void AnalogSetDefault(void);
 250:.\Generated_Source\PSoC5/cyfitter_cfg.c **** static void AnalogSetDefault(void)
 251:.\Generated_Source\PSoC5/cyfitter_cfg.c **** {
 420              		.loc 1 251 0
 421              		.cfi_startproc
 422              		@ args = 0, pretend = 0, frame = 8
 423              		@ frame_needed = 1, uses_anonymous_args = 0
 424              		@ link register save eliminated.
 425 0000 80B4     		push	{r7}
 426              	.LCFI18:
 427              		.cfi_def_cfa_offset 4
 428              		.cfi_offset 7, -4
ARM GAS  C:\Users\Colin\AppData\Local\Temp\ccyjTXTG.s 			page 13


 429 0002 83B0     		sub	sp, sp, #12
 430              	.LCFI19:
 431              		.cfi_def_cfa_offset 16
 432 0004 00AF     		add	r7, sp, #0
 433              	.LCFI20:
 434              		.cfi_def_cfa_register 7
 252:.\Generated_Source\PSoC5/cyfitter_cfg.c **** 	uint8 bg_xover_inl_trim = CY_GET_XTND_REG8((void CYFAR *)(CYREG_FLSHID_MFG_CFG_BG_XOVER_INL_TRIM +
 435              		.loc 1 252 0
 436 0006 40F2CF13 		movw	r3, #463
 437 000a C4F60013 		movt	r3, 18688
 438 000e 1B78     		ldrb	r3, [r3, #0]
 439 0010 FB71     		strb	r3, [r7, #7]
 253:.\Generated_Source\PSoC5/cyfitter_cfg.c **** 	CY_SET_XTND_REG8((void CYFAR *)(CYREG_BG_DFT0), (bg_xover_inl_trim & 0x07u));
 440              		.loc 1 253 0
 441 0012 45F66E03 		movw	r3, #22638
 442 0016 C4F20003 		movt	r3, 16384
 443 001a FA79     		ldrb	r2, [r7, #7]
 444 001c 02F00702 		and	r2, r2, #7
 445 0020 D2B2     		uxtb	r2, r2
 446 0022 1A70     		strb	r2, [r3, #0]
 254:.\Generated_Source\PSoC5/cyfitter_cfg.c **** 	CY_SET_XTND_REG8((void CYFAR *)(CYREG_BG_DFT1), ((bg_xover_inl_trim >> 4) & 0x0Fu));
 447              		.loc 1 254 0
 448 0024 45F66F03 		movw	r3, #22639
 449 0028 C4F20003 		movt	r3, 16384
 450 002c FA79     		ldrb	r2, [r7, #7]	@ zero_extendqisi2
 451 002e 4FEA1212 		lsr	r2, r2, #4
 452 0032 D2B2     		uxtb	r2, r2
 453 0034 1A70     		strb	r2, [r3, #0]
 255:.\Generated_Source\PSoC5/cyfitter_cfg.c **** 	CY_SET_XTND_REG8((void CYFAR *)CYREG_DAC2_SW0, 0x20u);
 454              		.loc 1 255 0
 455 0036 45F69023 		movw	r3, #23184
 456 003a C4F20003 		movt	r3, 16384
 457 003e 4FF02002 		mov	r2, #32
 458 0042 1A70     		strb	r2, [r3, #0]
 256:.\Generated_Source\PSoC5/cyfitter_cfg.c **** 	CY_SET_XTND_REG8((void CYFAR *)CYREG_DAC3_SW0, 0x10u);
 459              		.loc 1 256 0
 460 0044 45F69823 		movw	r3, #23192
 461 0048 C4F20003 		movt	r3, 16384
 462 004c 4FF01002 		mov	r2, #16
 463 0050 1A70     		strb	r2, [r3, #0]
 257:.\Generated_Source\PSoC5/cyfitter_cfg.c **** 	CY_SET_XTND_REG16((void CYFAR *)CYREG_OPAMP1_MX, 0x0101u);
 464              		.loc 1 257 0
 465 0052 45F64233 		movw	r3, #23362
 466 0056 C4F20003 		movt	r3, 16384
 467 005a 40F20112 		movw	r2, #257
 468 005e 1A80     		strh	r2, [r3, #0]	@ movhi
 258:.\Generated_Source\PSoC5/cyfitter_cfg.c **** 	CY_SET_XTND_REG16((void CYFAR *)CYREG_OPAMP3_MX, 0x0102u);
 469              		.loc 1 258 0
 470 0060 45F64633 		movw	r3, #23366
 471 0064 C4F20003 		movt	r3, 16384
 472 0068 4FF48172 		mov	r2, #258
 473 006c 1A80     		strh	r2, [r3, #0]	@ movhi
 259:.\Generated_Source\PSoC5/cyfitter_cfg.c **** 	CY_SET_XTND_REG8((void CYFAR *)CYREG_BUS_SW0, 0x20u);
 474              		.loc 1 259 0
 475 006e 45F65833 		movw	r3, #23384
 476 0072 C4F20003 		movt	r3, 16384
 477 0076 4FF02002 		mov	r2, #32
ARM GAS  C:\Users\Colin\AppData\Local\Temp\ccyjTXTG.s 			page 14


 478 007a 1A70     		strb	r2, [r3, #0]
 260:.\Generated_Source\PSoC5/cyfitter_cfg.c **** 	CY_SET_XTND_REG8((void CYFAR *)CYREG_PUMP_CR0, 0x44u);
 479              		.loc 1 260 0
 480 007c 45F67603 		movw	r3, #22646
 481 0080 C4F20003 		movt	r3, 16384
 482 0084 4FF04402 		mov	r2, #68
 483 0088 1A70     		strb	r2, [r3, #0]
 261:.\Generated_Source\PSoC5/cyfitter_cfg.c **** }
 484              		.loc 1 261 0
 485 008a 07F10C07 		add	r7, r7, #12
 486 008e BD46     		mov	sp, r7
 487 0090 80BC     		pop	{r7}
 488 0092 7047     		bx	lr
 489              		.cfi_endproc
 490              	.LFE6:
 491              		.size	AnalogSetDefault, .-AnalogSetDefault
 492              		.section	.text.SetAnalogRoutingPumps,"ax",%progbits
 493              		.align	2
 494              		.global	SetAnalogRoutingPumps
 495              		.thumb
 496              		.thumb_func
 497              		.type	SetAnalogRoutingPumps, %function
 498              	SetAnalogRoutingPumps:
 499              	.LFB7:
 262:.\Generated_Source\PSoC5/cyfitter_cfg.c **** 
 263:.\Generated_Source\PSoC5/cyfitter_cfg.c **** 
 264:.\Generated_Source\PSoC5/cyfitter_cfg.c **** /*******************************************************************************
 265:.\Generated_Source\PSoC5/cyfitter_cfg.c **** * Function Name: SetAnalogRoutingPumps
 266:.\Generated_Source\PSoC5/cyfitter_cfg.c **** ********************************************************************************
 267:.\Generated_Source\PSoC5/cyfitter_cfg.c **** *
 268:.\Generated_Source\PSoC5/cyfitter_cfg.c **** * Summary:
 269:.\Generated_Source\PSoC5/cyfitter_cfg.c **** * Enables or disables the analog pumps feeding analog routing switches.
 270:.\Generated_Source\PSoC5/cyfitter_cfg.c **** * Intended to be called at startup, based on the Vdda system configuration;
 271:.\Generated_Source\PSoC5/cyfitter_cfg.c **** * may be called during operation when the user informs us that the Vdda voltage
 272:.\Generated_Source\PSoC5/cyfitter_cfg.c **** * crossed the pump threshold.
 273:.\Generated_Source\PSoC5/cyfitter_cfg.c **** *
 274:.\Generated_Source\PSoC5/cyfitter_cfg.c **** * Parameters:
 275:.\Generated_Source\PSoC5/cyfitter_cfg.c **** *  enabled - 1 to enable the pumps, 0 to disable the pumps
 276:.\Generated_Source\PSoC5/cyfitter_cfg.c **** *
 277:.\Generated_Source\PSoC5/cyfitter_cfg.c **** * Return:
 278:.\Generated_Source\PSoC5/cyfitter_cfg.c **** *  void
 279:.\Generated_Source\PSoC5/cyfitter_cfg.c **** *
 280:.\Generated_Source\PSoC5/cyfitter_cfg.c **** *******************************************************************************/
 281:.\Generated_Source\PSoC5/cyfitter_cfg.c **** void SetAnalogRoutingPumps(uint8 enabled)
 282:.\Generated_Source\PSoC5/cyfitter_cfg.c **** {
 500              		.loc 1 282 0
 501              		.cfi_startproc
 502              		@ args = 0, pretend = 0, frame = 16
 503              		@ frame_needed = 1, uses_anonymous_args = 0
 504              		@ link register save eliminated.
 505 0000 80B4     		push	{r7}
 506              	.LCFI21:
 507              		.cfi_def_cfa_offset 4
 508              		.cfi_offset 7, -4
 509 0002 85B0     		sub	sp, sp, #20
 510              	.LCFI22:
 511              		.cfi_def_cfa_offset 24
ARM GAS  C:\Users\Colin\AppData\Local\Temp\ccyjTXTG.s 			page 15


 512 0004 00AF     		add	r7, sp, #0
 513              	.LCFI23:
 514              		.cfi_def_cfa_register 7
 515 0006 0346     		mov	r3, r0
 516 0008 FB71     		strb	r3, [r7, #7]
 283:.\Generated_Source\PSoC5/cyfitter_cfg.c **** 	uint8 regValue = CY_GET_XTND_REG8((void CYFAR *)CYREG_PUMP_CR0);
 517              		.loc 1 283 0
 518 000a 45F67603 		movw	r3, #22646
 519 000e C4F20003 		movt	r3, 16384
 520 0012 1B78     		ldrb	r3, [r3, #0]
 521 0014 FB73     		strb	r3, [r7, #15]
 284:.\Generated_Source\PSoC5/cyfitter_cfg.c **** 	if (enabled != 0u)
 522              		.loc 1 284 0
 523 0016 FB79     		ldrb	r3, [r7, #7]	@ zero_extendqisi2
 524 0018 002B     		cmp	r3, #0
 525 001a 04D0     		beq	.L18
 285:.\Generated_Source\PSoC5/cyfitter_cfg.c **** 	{
 286:.\Generated_Source\PSoC5/cyfitter_cfg.c **** 		regValue |= 0x22u;
 526              		.loc 1 286 0
 527 001c FB7B     		ldrb	r3, [r7, #15]
 528 001e 43F02203 		orr	r3, r3, #34
 529 0022 FB73     		strb	r3, [r7, #15]
 530 0024 03E0     		b	.L19
 531              	.L18:
 287:.\Generated_Source\PSoC5/cyfitter_cfg.c **** 	}
 288:.\Generated_Source\PSoC5/cyfitter_cfg.c **** 	else
 289:.\Generated_Source\PSoC5/cyfitter_cfg.c **** 	{
 290:.\Generated_Source\PSoC5/cyfitter_cfg.c **** 		regValue &= (uint8)~0x22u;
 532              		.loc 1 290 0
 533 0026 FB7B     		ldrb	r3, [r7, #15]
 534 0028 23F02203 		bic	r3, r3, #34
 535 002c FB73     		strb	r3, [r7, #15]
 536              	.L19:
 291:.\Generated_Source\PSoC5/cyfitter_cfg.c **** 	}
 292:.\Generated_Source\PSoC5/cyfitter_cfg.c **** 	CY_SET_XTND_REG8((void CYFAR *)CYREG_PUMP_CR0, regValue);
 537              		.loc 1 292 0
 538 002e 45F67603 		movw	r3, #22646
 539 0032 C4F20003 		movt	r3, 16384
 540 0036 FA7B     		ldrb	r2, [r7, #15]
 541 0038 1A70     		strb	r2, [r3, #0]
 293:.\Generated_Source\PSoC5/cyfitter_cfg.c **** }
 542              		.loc 1 293 0
 543 003a 07F11407 		add	r7, r7, #20
 544 003e BD46     		mov	sp, r7
 545 0040 80BC     		pop	{r7}
 546 0042 7047     		bx	lr
 547              		.cfi_endproc
 548              	.LFE7:
 549              		.size	SetAnalogRoutingPumps, .-SetAnalogRoutingPumps
 550              		.section	.text.cyfitter_cfg,"ax",%progbits
 551              		.align	2
 552              		.global	cyfitter_cfg
 553              		.thumb
 554              		.thumb_func
 555              		.type	cyfitter_cfg, %function
 556              	cyfitter_cfg:
 557              	.LFB8:
ARM GAS  C:\Users\Colin\AppData\Local\Temp\ccyjTXTG.s 			page 16


 294:.\Generated_Source\PSoC5/cyfitter_cfg.c **** 
 295:.\Generated_Source\PSoC5/cyfitter_cfg.c **** #define CY_AMUX_UNUSED CYREG_BOOST_SR
 296:.\Generated_Source\PSoC5/cyfitter_cfg.c **** 
 297:.\Generated_Source\PSoC5/cyfitter_cfg.c **** 
 298:.\Generated_Source\PSoC5/cyfitter_cfg.c **** /*******************************************************************************
 299:.\Generated_Source\PSoC5/cyfitter_cfg.c **** * Function Name: cyfitter_cfg
 300:.\Generated_Source\PSoC5/cyfitter_cfg.c **** ********************************************************************************
 301:.\Generated_Source\PSoC5/cyfitter_cfg.c **** * Summary:
 302:.\Generated_Source\PSoC5/cyfitter_cfg.c **** *  This function is called by the start-up code for the selected device. It
 303:.\Generated_Source\PSoC5/cyfitter_cfg.c **** *  performs all of the necessary device configuration based on the design
 304:.\Generated_Source\PSoC5/cyfitter_cfg.c **** *  settings.  This includes settings from the Design Wide Resources (DWR) such
 305:.\Generated_Source\PSoC5/cyfitter_cfg.c **** *  as Clocks and Pins as well as any component configuration that is necessary.
 306:.\Generated_Source\PSoC5/cyfitter_cfg.c **** *
 307:.\Generated_Source\PSoC5/cyfitter_cfg.c **** * Parameters:  
 308:.\Generated_Source\PSoC5/cyfitter_cfg.c **** *   void
 309:.\Generated_Source\PSoC5/cyfitter_cfg.c **** *
 310:.\Generated_Source\PSoC5/cyfitter_cfg.c **** * Return:
 311:.\Generated_Source\PSoC5/cyfitter_cfg.c **** *   void
 312:.\Generated_Source\PSoC5/cyfitter_cfg.c **** *
 313:.\Generated_Source\PSoC5/cyfitter_cfg.c **** *******************************************************************************/
 314:.\Generated_Source\PSoC5/cyfitter_cfg.c **** 
 315:.\Generated_Source\PSoC5/cyfitter_cfg.c **** void cyfitter_cfg(void)
 316:.\Generated_Source\PSoC5/cyfitter_cfg.c **** {
 558              		.loc 1 316 0
 559              		.cfi_startproc
 560              		@ args = 0, pretend = 0, frame = 8
 561              		@ frame_needed = 1, uses_anonymous_args = 0
 562 0000 80B5     		push	{r7, lr}
 563              	.LCFI24:
 564              		.cfi_def_cfa_offset 8
 565              		.cfi_offset 7, -8
 566              		.cfi_offset 14, -4
 567 0002 82B0     		sub	sp, sp, #8
 568              	.LCFI25:
 569              		.cfi_def_cfa_offset 16
 570 0004 00AF     		add	r7, sp, #0
 571              	.LCFI26:
 572              		.cfi_def_cfa_register 7
 317:.\Generated_Source\PSoC5/cyfitter_cfg.c **** 	/* IOPINS0_0 Address: CYREG_PRT0_DR Size (bytes): 10 */
 318:.\Generated_Source\PSoC5/cyfitter_cfg.c **** 	static const uint8 CYCODE BS_IOPINS0_0_VAL[] = {
 319:.\Generated_Source\PSoC5/cyfitter_cfg.c **** 		0x80u, 0x00u, 0x00u, 0x80u, 0x00u, 0x00u, 0x00u, 0x00u, 0x00u, 0x00u};
 320:.\Generated_Source\PSoC5/cyfitter_cfg.c **** 
 321:.\Generated_Source\PSoC5/cyfitter_cfg.c **** 	/* IOPINS0_8 Address: CYREG_PRT15_DR Size (bytes): 10 */
 322:.\Generated_Source\PSoC5/cyfitter_cfg.c **** 	static const uint8 CYCODE BS_IOPINS0_8_VAL[] = {
 323:.\Generated_Source\PSoC5/cyfitter_cfg.c **** 		0x00u, 0x00u, 0x00u, 0x00u, 0x00u, 0x00u, 0x00u, 0x00u, 0xC0u, 0x00u};
 324:.\Generated_Source\PSoC5/cyfitter_cfg.c **** 
 325:.\Generated_Source\PSoC5/cyfitter_cfg.c **** 	/* IOPINS0_1 Address: CYREG_PRT1_DM0 Size (bytes): 8 */
 326:.\Generated_Source\PSoC5/cyfitter_cfg.c **** 	static const uint8 CYCODE BS_IOPINS0_1_VAL[] = {
 327:.\Generated_Source\PSoC5/cyfitter_cfg.c **** 		0x00u, 0x04u, 0x00u, 0x00u, 0x00u, 0x00u, 0x00u, 0x00u};
 328:.\Generated_Source\PSoC5/cyfitter_cfg.c **** 
 329:.\Generated_Source\PSoC5/cyfitter_cfg.c **** 	/* IOPINS0_2 Address: CYREG_PRT2_DM0 Size (bytes): 8 */
 330:.\Generated_Source\PSoC5/cyfitter_cfg.c **** 	static const uint8 CYCODE BS_IOPINS0_2_VAL[] = {
 331:.\Generated_Source\PSoC5/cyfitter_cfg.c **** 		0x00u, 0x7Fu, 0x7Fu, 0x00u, 0x00u, 0x00u, 0x00u, 0x00u};
 332:.\Generated_Source\PSoC5/cyfitter_cfg.c **** 
 333:.\Generated_Source\PSoC5/cyfitter_cfg.c **** 	/* IOPINS0_3 Address: CYREG_PRT3_DM0 Size (bytes): 8 */
 334:.\Generated_Source\PSoC5/cyfitter_cfg.c **** 	static const uint8 CYCODE BS_IOPINS0_3_VAL[] = {
 335:.\Generated_Source\PSoC5/cyfitter_cfg.c **** 		0x00u, 0x20u, 0x20u, 0x00u, 0x00u, 0x00u, 0xC0u, 0x00u};
ARM GAS  C:\Users\Colin\AppData\Local\Temp\ccyjTXTG.s 			page 17


 336:.\Generated_Source\PSoC5/cyfitter_cfg.c **** 
 337:.\Generated_Source\PSoC5/cyfitter_cfg.c **** 	/* IOPINS0_4 Address: CYREG_PRT4_DR Size (bytes): 10 */
 338:.\Generated_Source\PSoC5/cyfitter_cfg.c **** 	static const uint8 CYCODE BS_IOPINS0_4_VAL[] = {
 339:.\Generated_Source\PSoC5/cyfitter_cfg.c **** 		0x03u, 0x00u, 0x08u, 0x00u, 0x03u, 0x00u, 0x03u, 0x00u, 0x00u, 0x00u};
 340:.\Generated_Source\PSoC5/cyfitter_cfg.c **** 
 341:.\Generated_Source\PSoC5/cyfitter_cfg.c **** #ifdef CYGlobalIntDisable
 342:.\Generated_Source\PSoC5/cyfitter_cfg.c **** 	/* Disable interrupts by default. Let user enable if/when they want. */
 343:.\Generated_Source\PSoC5/cyfitter_cfg.c **** 	CYGlobalIntDisable
 573              		.loc 1 343 0
 574              	@ 343 ".\Generated_Source\PSoC5\cyfitter_cfg.c" 1
 575 0006 72B6     		CPSID   i
 576              	@ 0 "" 2
 344:.\Generated_Source\PSoC5/cyfitter_cfg.c **** #endif
 345:.\Generated_Source\PSoC5/cyfitter_cfg.c **** 
 346:.\Generated_Source\PSoC5/cyfitter_cfg.c **** 
 347:.\Generated_Source\PSoC5/cyfitter_cfg.c **** 	/* Set Flash Cycles based on max possible frequency in case a glitch occurs during ClockSetup(). *
 348:.\Generated_Source\PSoC5/cyfitter_cfg.c **** 	CY_SET_XTND_REG8((void CYFAR *)(CYREG_CACHE_CC_CTL), (((CYDEV_INSTRUCT_CACHE_ENABLED) != 0) ? 0x01
 577              		.loc 1 348 0
 578              		.thumb
 579 0008 4FF49043 		mov	r3, #18432
 580 000c C4F20003 		movt	r3, 16384
 581 0010 4FF00002 		mov	r2, #0
 582 0014 1A70     		strb	r2, [r3, #0]
 349:.\Generated_Source\PSoC5/cyfitter_cfg.c **** 	/* Setup clocks based on selections from Clock DWR */
 350:.\Generated_Source\PSoC5/cyfitter_cfg.c **** 	ClockSetup();
 583              		.loc 1 350 0
 584 0016 FFF7FEFF 		bl	ClockSetup
 351:.\Generated_Source\PSoC5/cyfitter_cfg.c **** 	/* Enable/Disable Debug functionality based on settings from System DWR */
 352:.\Generated_Source\PSoC5/cyfitter_cfg.c **** 	CY_SET_XTND_REG8((void CYFAR *)CYREG_MLOGIC_DEBUG, (CY_GET_XTND_REG8((void CYFAR *)CYREG_MLOGIC_DE
 585              		.loc 1 352 0
 586 001a 44F2E863 		movw	r3, #18152
 587 001e C4F20003 		movt	r3, 16384
 588 0022 44F2E862 		movw	r2, #18152
 589 0026 C4F20002 		movt	r2, 16384
 590 002a 1278     		ldrb	r2, [r2, #0]
 591 002c D2B2     		uxtb	r2, r2
 592 002e 42F00402 		orr	r2, r2, #4
 593 0032 D2B2     		uxtb	r2, r2
 594 0034 1A70     		strb	r2, [r3, #0]
 595              	.LBB3:
 353:.\Generated_Source\PSoC5/cyfitter_cfg.c **** 
 354:.\Generated_Source\PSoC5/cyfitter_cfg.c **** 	{
 355:.\Generated_Source\PSoC5/cyfitter_cfg.c **** 		static const uint32 CYCODE cy_cfg_addr_table[] = {
 356:.\Generated_Source\PSoC5/cyfitter_cfg.c **** 			0x40004501u, /* Base address: 0x40004500 Count: 1 */
 357:.\Generated_Source\PSoC5/cyfitter_cfg.c **** 			0x40004F02u, /* Base address: 0x40004F00 Count: 2 */
 358:.\Generated_Source\PSoC5/cyfitter_cfg.c **** 			0x40005203u, /* Base address: 0x40005200 Count: 3 */
 359:.\Generated_Source\PSoC5/cyfitter_cfg.c **** 			0x40006403u, /* Base address: 0x40006400 Count: 3 */
 360:.\Generated_Source\PSoC5/cyfitter_cfg.c **** 			0x40006501u, /* Base address: 0x40006500 Count: 1 */
 361:.\Generated_Source\PSoC5/cyfitter_cfg.c **** 			0x40010052u, /* Base address: 0x40010000 Count: 82 */
 362:.\Generated_Source\PSoC5/cyfitter_cfg.c **** 			0x40010135u, /* Base address: 0x40010100 Count: 53 */
 363:.\Generated_Source\PSoC5/cyfitter_cfg.c **** 			0x4001024Fu, /* Base address: 0x40010200 Count: 79 */
 364:.\Generated_Source\PSoC5/cyfitter_cfg.c **** 			0x40010345u, /* Base address: 0x40010300 Count: 69 */
 365:.\Generated_Source\PSoC5/cyfitter_cfg.c **** 			0x40010455u, /* Base address: 0x40010400 Count: 85 */
 366:.\Generated_Source\PSoC5/cyfitter_cfg.c **** 			0x40010548u, /* Base address: 0x40010500 Count: 72 */
 367:.\Generated_Source\PSoC5/cyfitter_cfg.c **** 			0x40010712u, /* Base address: 0x40010700 Count: 18 */
 368:.\Generated_Source\PSoC5/cyfitter_cfg.c **** 			0x40010901u, /* Base address: 0x40010900 Count: 1 */
 369:.\Generated_Source\PSoC5/cyfitter_cfg.c **** 			0x40010A04u, /* Base address: 0x40010A00 Count: 4 */
ARM GAS  C:\Users\Colin\AppData\Local\Temp\ccyjTXTG.s 			page 18


 370:.\Generated_Source\PSoC5/cyfitter_cfg.c **** 			0x40010B03u, /* Base address: 0x40010B00 Count: 3 */
 371:.\Generated_Source\PSoC5/cyfitter_cfg.c **** 			0x40011463u, /* Base address: 0x40011400 Count: 99 */
 372:.\Generated_Source\PSoC5/cyfitter_cfg.c **** 			0x40011543u, /* Base address: 0x40011500 Count: 67 */
 373:.\Generated_Source\PSoC5/cyfitter_cfg.c **** 			0x40011655u, /* Base address: 0x40011600 Count: 85 */
 374:.\Generated_Source\PSoC5/cyfitter_cfg.c **** 			0x4001174Bu, /* Base address: 0x40011700 Count: 75 */
 375:.\Generated_Source\PSoC5/cyfitter_cfg.c **** 			0x40011901u, /* Base address: 0x40011900 Count: 1 */
 376:.\Generated_Source\PSoC5/cyfitter_cfg.c **** 			0x4001400Fu, /* Base address: 0x40014000 Count: 15 */
 377:.\Generated_Source\PSoC5/cyfitter_cfg.c **** 			0x40014112u, /* Base address: 0x40014100 Count: 18 */
 378:.\Generated_Source\PSoC5/cyfitter_cfg.c **** 			0x4001420Cu, /* Base address: 0x40014200 Count: 12 */
 379:.\Generated_Source\PSoC5/cyfitter_cfg.c **** 			0x40014305u, /* Base address: 0x40014300 Count: 5 */
 380:.\Generated_Source\PSoC5/cyfitter_cfg.c **** 			0x40014602u, /* Base address: 0x40014600 Count: 2 */
 381:.\Generated_Source\PSoC5/cyfitter_cfg.c **** 			0x40014707u, /* Base address: 0x40014700 Count: 7 */
 382:.\Generated_Source\PSoC5/cyfitter_cfg.c **** 			0x40014806u, /* Base address: 0x40014800 Count: 6 */
 383:.\Generated_Source\PSoC5/cyfitter_cfg.c **** 			0x40014C01u, /* Base address: 0x40014C00 Count: 1 */
 384:.\Generated_Source\PSoC5/cyfitter_cfg.c **** 			0x40015009u, /* Base address: 0x40015000 Count: 9 */
 385:.\Generated_Source\PSoC5/cyfitter_cfg.c **** 			0x40015102u, /* Base address: 0x40015100 Count: 2 */
 386:.\Generated_Source\PSoC5/cyfitter_cfg.c **** 		};
 387:.\Generated_Source\PSoC5/cyfitter_cfg.c **** 
 388:.\Generated_Source\PSoC5/cyfitter_cfg.c **** 		static const cy_cfg_addrvalue_t CYCODE cy_cfg_data_table[] = {
 389:.\Generated_Source\PSoC5/cyfitter_cfg.c **** 			{0x7Eu, 0x02u},
 390:.\Generated_Source\PSoC5/cyfitter_cfg.c **** 			{0x01u, 0x80u},
 391:.\Generated_Source\PSoC5/cyfitter_cfg.c **** 			{0x0Au, 0x4Bu},
 392:.\Generated_Source\PSoC5/cyfitter_cfg.c **** 			{0x20u, 0x01u},
 393:.\Generated_Source\PSoC5/cyfitter_cfg.c **** 			{0x21u, 0x02u},
 394:.\Generated_Source\PSoC5/cyfitter_cfg.c **** 			{0x7Cu, 0x40u},
 395:.\Generated_Source\PSoC5/cyfitter_cfg.c **** 			{0x22u, 0x04u},
 396:.\Generated_Source\PSoC5/cyfitter_cfg.c **** 			{0x24u, 0x0Fu},
 397:.\Generated_Source\PSoC5/cyfitter_cfg.c **** 			{0x34u, 0x08u},
 398:.\Generated_Source\PSoC5/cyfitter_cfg.c **** 			{0x87u, 0x0Du},
 399:.\Generated_Source\PSoC5/cyfitter_cfg.c **** 			{0x01u, 0x03u},
 400:.\Generated_Source\PSoC5/cyfitter_cfg.c **** 			{0x04u, 0x20u},
 401:.\Generated_Source\PSoC5/cyfitter_cfg.c **** 			{0x05u, 0x08u},
 402:.\Generated_Source\PSoC5/cyfitter_cfg.c **** 			{0x07u, 0x14u},
 403:.\Generated_Source\PSoC5/cyfitter_cfg.c **** 			{0x08u, 0x40u},
 404:.\Generated_Source\PSoC5/cyfitter_cfg.c **** 			{0x0Au, 0x01u},
 405:.\Generated_Source\PSoC5/cyfitter_cfg.c **** 			{0x0Bu, 0x01u},
 406:.\Generated_Source\PSoC5/cyfitter_cfg.c **** 			{0x0Cu, 0x20u},
 407:.\Generated_Source\PSoC5/cyfitter_cfg.c **** 			{0x0Eu, 0x03u},
 408:.\Generated_Source\PSoC5/cyfitter_cfg.c **** 			{0x11u, 0x07u},
 409:.\Generated_Source\PSoC5/cyfitter_cfg.c **** 			{0x12u, 0x10u},
 410:.\Generated_Source\PSoC5/cyfitter_cfg.c **** 			{0x13u, 0x20u},
 411:.\Generated_Source\PSoC5/cyfitter_cfg.c **** 			{0x16u, 0x08u},
 412:.\Generated_Source\PSoC5/cyfitter_cfg.c **** 			{0x18u, 0x20u},
 413:.\Generated_Source\PSoC5/cyfitter_cfg.c **** 			{0x19u, 0x18u},
 414:.\Generated_Source\PSoC5/cyfitter_cfg.c **** 			{0x1Bu, 0x06u},
 415:.\Generated_Source\PSoC5/cyfitter_cfg.c **** 			{0x1Cu, 0x20u},
 416:.\Generated_Source\PSoC5/cyfitter_cfg.c **** 			{0x1Du, 0x04u},
 417:.\Generated_Source\PSoC5/cyfitter_cfg.c **** 			{0x1Eu, 0x01u},
 418:.\Generated_Source\PSoC5/cyfitter_cfg.c **** 			{0x1Fu, 0x38u},
 419:.\Generated_Source\PSoC5/cyfitter_cfg.c **** 			{0x20u, 0x20u},
 420:.\Generated_Source\PSoC5/cyfitter_cfg.c **** 			{0x21u, 0x0Cu},
 421:.\Generated_Source\PSoC5/cyfitter_cfg.c **** 			{0x22u, 0x01u},
 422:.\Generated_Source\PSoC5/cyfitter_cfg.c **** 			{0x23u, 0x12u},
 423:.\Generated_Source\PSoC5/cyfitter_cfg.c **** 			{0x29u, 0x1Eu},
 424:.\Generated_Source\PSoC5/cyfitter_cfg.c **** 			{0x2Au, 0x04u},
 425:.\Generated_Source\PSoC5/cyfitter_cfg.c **** 			{0x2Du, 0x1Eu},
 426:.\Generated_Source\PSoC5/cyfitter_cfg.c **** 			{0x2Eu, 0x02u},
ARM GAS  C:\Users\Colin\AppData\Local\Temp\ccyjTXTG.s 			page 19


 427:.\Generated_Source\PSoC5/cyfitter_cfg.c **** 			{0x30u, 0x07u},
 428:.\Generated_Source\PSoC5/cyfitter_cfg.c **** 			{0x34u, 0x08u},
 429:.\Generated_Source\PSoC5/cyfitter_cfg.c **** 			{0x35u, 0x03u},
 430:.\Generated_Source\PSoC5/cyfitter_cfg.c **** 			{0x36u, 0x70u},
 431:.\Generated_Source\PSoC5/cyfitter_cfg.c **** 			{0x37u, 0x3Cu},
 432:.\Generated_Source\PSoC5/cyfitter_cfg.c **** 			{0x38u, 0x80u},
 433:.\Generated_Source\PSoC5/cyfitter_cfg.c **** 			{0x3Au, 0x02u},
 434:.\Generated_Source\PSoC5/cyfitter_cfg.c **** 			{0x3Bu, 0x80u},
 435:.\Generated_Source\PSoC5/cyfitter_cfg.c **** 			{0x3Eu, 0x40u},
 436:.\Generated_Source\PSoC5/cyfitter_cfg.c **** 			{0x58u, 0x04u},
 437:.\Generated_Source\PSoC5/cyfitter_cfg.c **** 			{0x59u, 0x04u},
 438:.\Generated_Source\PSoC5/cyfitter_cfg.c **** 			{0x5Fu, 0x01u},
 439:.\Generated_Source\PSoC5/cyfitter_cfg.c **** 			{0x80u, 0x0Au},
 440:.\Generated_Source\PSoC5/cyfitter_cfg.c **** 			{0x81u, 0x01u},
 441:.\Generated_Source\PSoC5/cyfitter_cfg.c **** 			{0x82u, 0x10u},
 442:.\Generated_Source\PSoC5/cyfitter_cfg.c **** 			{0x83u, 0x04u},
 443:.\Generated_Source\PSoC5/cyfitter_cfg.c **** 			{0x84u, 0x02u},
 444:.\Generated_Source\PSoC5/cyfitter_cfg.c **** 			{0x85u, 0x01u},
 445:.\Generated_Source\PSoC5/cyfitter_cfg.c **** 			{0x86u, 0x18u},
 446:.\Generated_Source\PSoC5/cyfitter_cfg.c **** 			{0x87u, 0x02u},
 447:.\Generated_Source\PSoC5/cyfitter_cfg.c **** 			{0x88u, 0x04u},
 448:.\Generated_Source\PSoC5/cyfitter_cfg.c **** 			{0x89u, 0x05u},
 449:.\Generated_Source\PSoC5/cyfitter_cfg.c **** 			{0x8Bu, 0x0Au},
 450:.\Generated_Source\PSoC5/cyfitter_cfg.c **** 			{0x90u, 0x1Fu},
 451:.\Generated_Source\PSoC5/cyfitter_cfg.c **** 			{0x93u, 0x02u},
 452:.\Generated_Source\PSoC5/cyfitter_cfg.c **** 			{0x94u, 0x01u},
 453:.\Generated_Source\PSoC5/cyfitter_cfg.c **** 			{0x98u, 0x01u},
 454:.\Generated_Source\PSoC5/cyfitter_cfg.c **** 			{0x9Au, 0x1Eu},
 455:.\Generated_Source\PSoC5/cyfitter_cfg.c **** 			{0x9Bu, 0x10u},
 456:.\Generated_Source\PSoC5/cyfitter_cfg.c **** 			{0x9Cu, 0x02u},
 457:.\Generated_Source\PSoC5/cyfitter_cfg.c **** 			{0xA0u, 0x18u},
 458:.\Generated_Source\PSoC5/cyfitter_cfg.c **** 			{0xA1u, 0x06u},
 459:.\Generated_Source\PSoC5/cyfitter_cfg.c **** 			{0xA2u, 0x06u},
 460:.\Generated_Source\PSoC5/cyfitter_cfg.c **** 			{0xA4u, 0x1Cu},
 461:.\Generated_Source\PSoC5/cyfitter_cfg.c **** 			{0xA5u, 0x01u},
 462:.\Generated_Source\PSoC5/cyfitter_cfg.c **** 			{0xA6u, 0x02u},
 463:.\Generated_Source\PSoC5/cyfitter_cfg.c **** 			{0xA7u, 0x02u},
 464:.\Generated_Source\PSoC5/cyfitter_cfg.c **** 			{0xA8u, 0x12u},
 465:.\Generated_Source\PSoC5/cyfitter_cfg.c **** 			{0xA9u, 0x28u},
 466:.\Generated_Source\PSoC5/cyfitter_cfg.c **** 			{0xAAu, 0x08u},
 467:.\Generated_Source\PSoC5/cyfitter_cfg.c **** 			{0xABu, 0x05u},
 468:.\Generated_Source\PSoC5/cyfitter_cfg.c **** 			{0xACu, 0x06u},
 469:.\Generated_Source\PSoC5/cyfitter_cfg.c **** 			{0xADu, 0x2Fu},
 470:.\Generated_Source\PSoC5/cyfitter_cfg.c **** 			{0xB2u, 0x1Fu},
 471:.\Generated_Source\PSoC5/cyfitter_cfg.c **** 			{0xB3u, 0x20u},
 472:.\Generated_Source\PSoC5/cyfitter_cfg.c **** 			{0xB5u, 0x1Fu},
 473:.\Generated_Source\PSoC5/cyfitter_cfg.c **** 			{0xB8u, 0x08u},
 474:.\Generated_Source\PSoC5/cyfitter_cfg.c **** 			{0xB9u, 0x08u},
 475:.\Generated_Source\PSoC5/cyfitter_cfg.c **** 			{0xD6u, 0x08u},
 476:.\Generated_Source\PSoC5/cyfitter_cfg.c **** 			{0xD8u, 0x04u},
 477:.\Generated_Source\PSoC5/cyfitter_cfg.c **** 			{0xD9u, 0x04u},
 478:.\Generated_Source\PSoC5/cyfitter_cfg.c **** 			{0xDBu, 0x04u},
 479:.\Generated_Source\PSoC5/cyfitter_cfg.c **** 			{0xDDu, 0x90u},
 480:.\Generated_Source\PSoC5/cyfitter_cfg.c **** 			{0xDFu, 0x01u},
 481:.\Generated_Source\PSoC5/cyfitter_cfg.c **** 			{0x01u, 0x20u},
 482:.\Generated_Source\PSoC5/cyfitter_cfg.c **** 			{0x03u, 0x32u},
 483:.\Generated_Source\PSoC5/cyfitter_cfg.c **** 			{0x04u, 0x28u},
ARM GAS  C:\Users\Colin\AppData\Local\Temp\ccyjTXTG.s 			page 20


 484:.\Generated_Source\PSoC5/cyfitter_cfg.c **** 			{0x05u, 0x01u},
 485:.\Generated_Source\PSoC5/cyfitter_cfg.c **** 			{0x08u, 0x40u},
 486:.\Generated_Source\PSoC5/cyfitter_cfg.c **** 			{0x09u, 0x51u},
 487:.\Generated_Source\PSoC5/cyfitter_cfg.c **** 			{0x0Au, 0x10u},
 488:.\Generated_Source\PSoC5/cyfitter_cfg.c **** 			{0x0Cu, 0x82u},
 489:.\Generated_Source\PSoC5/cyfitter_cfg.c **** 			{0x0Du, 0x08u},
 490:.\Generated_Source\PSoC5/cyfitter_cfg.c **** 			{0x0Eu, 0x48u},
 491:.\Generated_Source\PSoC5/cyfitter_cfg.c **** 			{0x10u, 0x02u},
 492:.\Generated_Source\PSoC5/cyfitter_cfg.c **** 			{0x11u, 0x01u},
 493:.\Generated_Source\PSoC5/cyfitter_cfg.c **** 			{0x12u, 0xC8u},
 494:.\Generated_Source\PSoC5/cyfitter_cfg.c **** 			{0x16u, 0x50u},
 495:.\Generated_Source\PSoC5/cyfitter_cfg.c **** 			{0x17u, 0x50u},
 496:.\Generated_Source\PSoC5/cyfitter_cfg.c **** 			{0x18u, 0x02u},
 497:.\Generated_Source\PSoC5/cyfitter_cfg.c **** 			{0x19u, 0x11u},
 498:.\Generated_Source\PSoC5/cyfitter_cfg.c **** 			{0x1Bu, 0x02u},
 499:.\Generated_Source\PSoC5/cyfitter_cfg.c **** 			{0x1Du, 0x08u},
 500:.\Generated_Source\PSoC5/cyfitter_cfg.c **** 			{0x21u, 0x50u},
 501:.\Generated_Source\PSoC5/cyfitter_cfg.c **** 			{0x22u, 0x40u},
 502:.\Generated_Source\PSoC5/cyfitter_cfg.c **** 			{0x24u, 0x08u},
 503:.\Generated_Source\PSoC5/cyfitter_cfg.c **** 			{0x25u, 0x10u},
 504:.\Generated_Source\PSoC5/cyfitter_cfg.c **** 			{0x26u, 0x04u},
 505:.\Generated_Source\PSoC5/cyfitter_cfg.c **** 			{0x29u, 0x01u},
 506:.\Generated_Source\PSoC5/cyfitter_cfg.c **** 			{0x2Au, 0x50u},
 507:.\Generated_Source\PSoC5/cyfitter_cfg.c **** 			{0x2Cu, 0x40u},
 508:.\Generated_Source\PSoC5/cyfitter_cfg.c **** 			{0x2Du, 0x20u},
 509:.\Generated_Source\PSoC5/cyfitter_cfg.c **** 			{0x2Eu, 0x40u},
 510:.\Generated_Source\PSoC5/cyfitter_cfg.c **** 			{0x2Fu, 0x20u},
 511:.\Generated_Source\PSoC5/cyfitter_cfg.c **** 			{0x30u, 0x02u},
 512:.\Generated_Source\PSoC5/cyfitter_cfg.c **** 			{0x32u, 0x40u},
 513:.\Generated_Source\PSoC5/cyfitter_cfg.c **** 			{0x33u, 0x20u},
 514:.\Generated_Source\PSoC5/cyfitter_cfg.c **** 			{0x35u, 0x01u},
 515:.\Generated_Source\PSoC5/cyfitter_cfg.c **** 			{0x36u, 0x10u},
 516:.\Generated_Source\PSoC5/cyfitter_cfg.c **** 			{0x38u, 0x0Au},
 517:.\Generated_Source\PSoC5/cyfitter_cfg.c **** 			{0x39u, 0x20u},
 518:.\Generated_Source\PSoC5/cyfitter_cfg.c **** 			{0x3Bu, 0x20u},
 519:.\Generated_Source\PSoC5/cyfitter_cfg.c **** 			{0x3Du, 0x21u},
 520:.\Generated_Source\PSoC5/cyfitter_cfg.c **** 			{0x3Eu, 0x08u},
 521:.\Generated_Source\PSoC5/cyfitter_cfg.c **** 			{0x5Eu, 0x80u},
 522:.\Generated_Source\PSoC5/cyfitter_cfg.c **** 			{0x64u, 0x02u},
 523:.\Generated_Source\PSoC5/cyfitter_cfg.c **** 			{0x85u, 0x08u},
 524:.\Generated_Source\PSoC5/cyfitter_cfg.c **** 			{0x88u, 0x80u},
 525:.\Generated_Source\PSoC5/cyfitter_cfg.c **** 			{0x8Bu, 0x10u},
 526:.\Generated_Source\PSoC5/cyfitter_cfg.c **** 			{0xC0u, 0x77u},
 527:.\Generated_Source\PSoC5/cyfitter_cfg.c **** 			{0xC2u, 0xFFu},
 528:.\Generated_Source\PSoC5/cyfitter_cfg.c **** 			{0xC4u, 0xFBu},
 529:.\Generated_Source\PSoC5/cyfitter_cfg.c **** 			{0xCAu, 0xFDu},
 530:.\Generated_Source\PSoC5/cyfitter_cfg.c **** 			{0xCCu, 0xADu},
 531:.\Generated_Source\PSoC5/cyfitter_cfg.c **** 			{0xCEu, 0xE7u},
 532:.\Generated_Source\PSoC5/cyfitter_cfg.c **** 			{0xD6u, 0x10u},
 533:.\Generated_Source\PSoC5/cyfitter_cfg.c **** 			{0xD8u, 0x10u},
 534:.\Generated_Source\PSoC5/cyfitter_cfg.c **** 			{0x00u, 0x01u},
 535:.\Generated_Source\PSoC5/cyfitter_cfg.c **** 			{0x01u, 0x40u},
 536:.\Generated_Source\PSoC5/cyfitter_cfg.c **** 			{0x03u, 0x1Du},
 537:.\Generated_Source\PSoC5/cyfitter_cfg.c **** 			{0x05u, 0x92u},
 538:.\Generated_Source\PSoC5/cyfitter_cfg.c **** 			{0x07u, 0x60u},
 539:.\Generated_Source\PSoC5/cyfitter_cfg.c **** 			{0x09u, 0x04u},
 540:.\Generated_Source\PSoC5/cyfitter_cfg.c **** 			{0x0Bu, 0xE0u},
ARM GAS  C:\Users\Colin\AppData\Local\Temp\ccyjTXTG.s 			page 21


 541:.\Generated_Source\PSoC5/cyfitter_cfg.c **** 			{0x0Du, 0xE2u},
 542:.\Generated_Source\PSoC5/cyfitter_cfg.c **** 			{0x10u, 0x01u},
 543:.\Generated_Source\PSoC5/cyfitter_cfg.c **** 			{0x13u, 0x08u},
 544:.\Generated_Source\PSoC5/cyfitter_cfg.c **** 			{0x15u, 0x01u},
 545:.\Generated_Source\PSoC5/cyfitter_cfg.c **** 			{0x18u, 0x02u},
 546:.\Generated_Source\PSoC5/cyfitter_cfg.c **** 			{0x19u, 0x01u},
 547:.\Generated_Source\PSoC5/cyfitter_cfg.c **** 			{0x1Au, 0x04u},
 548:.\Generated_Source\PSoC5/cyfitter_cfg.c **** 			{0x1Du, 0x5Du},
 549:.\Generated_Source\PSoC5/cyfitter_cfg.c **** 			{0x1Eu, 0x01u},
 550:.\Generated_Source\PSoC5/cyfitter_cfg.c **** 			{0x1Fu, 0xA2u},
 551:.\Generated_Source\PSoC5/cyfitter_cfg.c **** 			{0x23u, 0x02u},
 552:.\Generated_Source\PSoC5/cyfitter_cfg.c **** 			{0x25u, 0x3Du},
 553:.\Generated_Source\PSoC5/cyfitter_cfg.c **** 			{0x27u, 0xC2u},
 554:.\Generated_Source\PSoC5/cyfitter_cfg.c **** 			{0x2Bu, 0xFFu},
 555:.\Generated_Source\PSoC5/cyfitter_cfg.c **** 			{0x2Cu, 0x02u},
 556:.\Generated_Source\PSoC5/cyfitter_cfg.c **** 			{0x2Du, 0x0Du},
 557:.\Generated_Source\PSoC5/cyfitter_cfg.c **** 			{0x2Eu, 0x0Cu},
 558:.\Generated_Source\PSoC5/cyfitter_cfg.c **** 			{0x30u, 0x06u},
 559:.\Generated_Source\PSoC5/cyfitter_cfg.c **** 			{0x32u, 0x08u},
 560:.\Generated_Source\PSoC5/cyfitter_cfg.c **** 			{0x33u, 0xFFu},
 561:.\Generated_Source\PSoC5/cyfitter_cfg.c **** 			{0x36u, 0x01u},
 562:.\Generated_Source\PSoC5/cyfitter_cfg.c **** 			{0x3Fu, 0x04u},
 563:.\Generated_Source\PSoC5/cyfitter_cfg.c **** 			{0x40u, 0x53u},
 564:.\Generated_Source\PSoC5/cyfitter_cfg.c **** 			{0x44u, 0x02u},
 565:.\Generated_Source\PSoC5/cyfitter_cfg.c **** 			{0x45u, 0x0Bu},
 566:.\Generated_Source\PSoC5/cyfitter_cfg.c **** 			{0x47u, 0xD0u},
 567:.\Generated_Source\PSoC5/cyfitter_cfg.c **** 			{0x48u, 0x21u},
 568:.\Generated_Source\PSoC5/cyfitter_cfg.c **** 			{0x49u, 0xFFu},
 569:.\Generated_Source\PSoC5/cyfitter_cfg.c **** 			{0x4Au, 0x7Fu},
 570:.\Generated_Source\PSoC5/cyfitter_cfg.c **** 			{0x4Bu, 0xFFu},
 571:.\Generated_Source\PSoC5/cyfitter_cfg.c **** 			{0x4Cu, 0x42u},
 572:.\Generated_Source\PSoC5/cyfitter_cfg.c **** 			{0x4Du, 0xA0u},
 573:.\Generated_Source\PSoC5/cyfitter_cfg.c **** 			{0x4Eu, 0x70u},
 574:.\Generated_Source\PSoC5/cyfitter_cfg.c **** 			{0x50u, 0x0Cu},
 575:.\Generated_Source\PSoC5/cyfitter_cfg.c **** 			{0x56u, 0x08u},
 576:.\Generated_Source\PSoC5/cyfitter_cfg.c **** 			{0x58u, 0x04u},
 577:.\Generated_Source\PSoC5/cyfitter_cfg.c **** 			{0x59u, 0x04u},
 578:.\Generated_Source\PSoC5/cyfitter_cfg.c **** 			{0x5Au, 0x04u},
 579:.\Generated_Source\PSoC5/cyfitter_cfg.c **** 			{0x5Bu, 0x04u},
 580:.\Generated_Source\PSoC5/cyfitter_cfg.c **** 			{0x5Du, 0x90u},
 581:.\Generated_Source\PSoC5/cyfitter_cfg.c **** 			{0x5Fu, 0x01u},
 582:.\Generated_Source\PSoC5/cyfitter_cfg.c **** 			{0x61u, 0x09u},
 583:.\Generated_Source\PSoC5/cyfitter_cfg.c **** 			{0x62u, 0x40u},
 584:.\Generated_Source\PSoC5/cyfitter_cfg.c **** 			{0x63u, 0x09u},
 585:.\Generated_Source\PSoC5/cyfitter_cfg.c **** 			{0x64u, 0x30u},
 586:.\Generated_Source\PSoC5/cyfitter_cfg.c **** 			{0x65u, 0x09u},
 587:.\Generated_Source\PSoC5/cyfitter_cfg.c **** 			{0x81u, 0x01u},
 588:.\Generated_Source\PSoC5/cyfitter_cfg.c **** 			{0x83u, 0x02u},
 589:.\Generated_Source\PSoC5/cyfitter_cfg.c **** 			{0x85u, 0x34u},
 590:.\Generated_Source\PSoC5/cyfitter_cfg.c **** 			{0x87u, 0x01u},
 591:.\Generated_Source\PSoC5/cyfitter_cfg.c **** 			{0x89u, 0x35u},
 592:.\Generated_Source\PSoC5/cyfitter_cfg.c **** 			{0x8Du, 0x01u},
 593:.\Generated_Source\PSoC5/cyfitter_cfg.c **** 			{0x8Fu, 0x08u},
 594:.\Generated_Source\PSoC5/cyfitter_cfg.c **** 			{0x95u, 0x01u},
 595:.\Generated_Source\PSoC5/cyfitter_cfg.c **** 			{0x97u, 0x0Eu},
 596:.\Generated_Source\PSoC5/cyfitter_cfg.c **** 			{0x99u, 0x34u},
 597:.\Generated_Source\PSoC5/cyfitter_cfg.c **** 			{0x9Bu, 0x01u},
ARM GAS  C:\Users\Colin\AppData\Local\Temp\ccyjTXTG.s 			page 22


 598:.\Generated_Source\PSoC5/cyfitter_cfg.c **** 			{0x9Du, 0x35u},
 599:.\Generated_Source\PSoC5/cyfitter_cfg.c **** 			{0xA1u, 0x35u},
 600:.\Generated_Source\PSoC5/cyfitter_cfg.c **** 			{0xA7u, 0x20u},
 601:.\Generated_Source\PSoC5/cyfitter_cfg.c **** 			{0xADu, 0x40u},
 602:.\Generated_Source\PSoC5/cyfitter_cfg.c **** 			{0xB3u, 0x0Fu},
 603:.\Generated_Source\PSoC5/cyfitter_cfg.c **** 			{0xB5u, 0x60u},
 604:.\Generated_Source\PSoC5/cyfitter_cfg.c **** 			{0xB7u, 0x10u},
 605:.\Generated_Source\PSoC5/cyfitter_cfg.c **** 			{0xB9u, 0xA0u},
 606:.\Generated_Source\PSoC5/cyfitter_cfg.c **** 			{0xBBu, 0x08u},
 607:.\Generated_Source\PSoC5/cyfitter_cfg.c **** 			{0xBFu, 0x50u},
 608:.\Generated_Source\PSoC5/cyfitter_cfg.c **** 			{0xD4u, 0x20u},
 609:.\Generated_Source\PSoC5/cyfitter_cfg.c **** 			{0xD6u, 0x04u},
 610:.\Generated_Source\PSoC5/cyfitter_cfg.c **** 			{0xD9u, 0x04u},
 611:.\Generated_Source\PSoC5/cyfitter_cfg.c **** 			{0xDBu, 0x04u},
 612:.\Generated_Source\PSoC5/cyfitter_cfg.c **** 			{0xDFu, 0x01u},
 613:.\Generated_Source\PSoC5/cyfitter_cfg.c **** 			{0x04u, 0x02u},
 614:.\Generated_Source\PSoC5/cyfitter_cfg.c **** 			{0x0Du, 0x10u},
 615:.\Generated_Source\PSoC5/cyfitter_cfg.c **** 			{0x0Eu, 0x42u},
 616:.\Generated_Source\PSoC5/cyfitter_cfg.c **** 			{0x14u, 0x02u},
 617:.\Generated_Source\PSoC5/cyfitter_cfg.c **** 			{0x1Du, 0x04u},
 618:.\Generated_Source\PSoC5/cyfitter_cfg.c **** 			{0x1Eu, 0x12u},
 619:.\Generated_Source\PSoC5/cyfitter_cfg.c **** 			{0x1Fu, 0x02u},
 620:.\Generated_Source\PSoC5/cyfitter_cfg.c **** 			{0x21u, 0x20u},
 621:.\Generated_Source\PSoC5/cyfitter_cfg.c **** 			{0x22u, 0x04u},
 622:.\Generated_Source\PSoC5/cyfitter_cfg.c **** 			{0x23u, 0x01u},
 623:.\Generated_Source\PSoC5/cyfitter_cfg.c **** 			{0x26u, 0x08u},
 624:.\Generated_Source\PSoC5/cyfitter_cfg.c **** 			{0x29u, 0x01u},
 625:.\Generated_Source\PSoC5/cyfitter_cfg.c **** 			{0x2Au, 0x0Au},
 626:.\Generated_Source\PSoC5/cyfitter_cfg.c **** 			{0x2Bu, 0x02u},
 627:.\Generated_Source\PSoC5/cyfitter_cfg.c **** 			{0x2Cu, 0xA2u},
 628:.\Generated_Source\PSoC5/cyfitter_cfg.c **** 			{0x2Du, 0x20u},
 629:.\Generated_Source\PSoC5/cyfitter_cfg.c **** 			{0x32u, 0x84u},
 630:.\Generated_Source\PSoC5/cyfitter_cfg.c **** 			{0x33u, 0x20u},
 631:.\Generated_Source\PSoC5/cyfitter_cfg.c **** 			{0x36u, 0x81u},
 632:.\Generated_Source\PSoC5/cyfitter_cfg.c **** 			{0x37u, 0x28u},
 633:.\Generated_Source\PSoC5/cyfitter_cfg.c **** 			{0x38u, 0x0Au},
 634:.\Generated_Source\PSoC5/cyfitter_cfg.c **** 			{0x3Au, 0x90u},
 635:.\Generated_Source\PSoC5/cyfitter_cfg.c **** 			{0x3Cu, 0x08u},
 636:.\Generated_Source\PSoC5/cyfitter_cfg.c **** 			{0x3Du, 0x10u},
 637:.\Generated_Source\PSoC5/cyfitter_cfg.c **** 			{0x3Eu, 0xC2u},
 638:.\Generated_Source\PSoC5/cyfitter_cfg.c **** 			{0x45u, 0x18u},
 639:.\Generated_Source\PSoC5/cyfitter_cfg.c **** 			{0x4Cu, 0x15u},
 640:.\Generated_Source\PSoC5/cyfitter_cfg.c **** 			{0x4Du, 0x10u},
 641:.\Generated_Source\PSoC5/cyfitter_cfg.c **** 			{0x54u, 0x02u},
 642:.\Generated_Source\PSoC5/cyfitter_cfg.c **** 			{0x55u, 0x01u},
 643:.\Generated_Source\PSoC5/cyfitter_cfg.c **** 			{0x58u, 0x80u},
 644:.\Generated_Source\PSoC5/cyfitter_cfg.c **** 			{0x59u, 0x02u},
 645:.\Generated_Source\PSoC5/cyfitter_cfg.c **** 			{0x5Bu, 0x14u},
 646:.\Generated_Source\PSoC5/cyfitter_cfg.c **** 			{0x5Du, 0x40u},
 647:.\Generated_Source\PSoC5/cyfitter_cfg.c **** 			{0x5Fu, 0x10u},
 648:.\Generated_Source\PSoC5/cyfitter_cfg.c **** 			{0x60u, 0x04u},
 649:.\Generated_Source\PSoC5/cyfitter_cfg.c **** 			{0x62u, 0x01u},
 650:.\Generated_Source\PSoC5/cyfitter_cfg.c **** 			{0x63u, 0x01u},
 651:.\Generated_Source\PSoC5/cyfitter_cfg.c **** 			{0x64u, 0x01u},
 652:.\Generated_Source\PSoC5/cyfitter_cfg.c **** 			{0x81u, 0x01u},
 653:.\Generated_Source\PSoC5/cyfitter_cfg.c **** 			{0x82u, 0x09u},
 654:.\Generated_Source\PSoC5/cyfitter_cfg.c **** 			{0x85u, 0x10u},
ARM GAS  C:\Users\Colin\AppData\Local\Temp\ccyjTXTG.s 			page 23


 655:.\Generated_Source\PSoC5/cyfitter_cfg.c **** 			{0x8Eu, 0x01u},
 656:.\Generated_Source\PSoC5/cyfitter_cfg.c **** 			{0x8Fu, 0x40u},
 657:.\Generated_Source\PSoC5/cyfitter_cfg.c **** 			{0x90u, 0x0Au},
 658:.\Generated_Source\PSoC5/cyfitter_cfg.c **** 			{0x91u, 0xC0u},
 659:.\Generated_Source\PSoC5/cyfitter_cfg.c **** 			{0x94u, 0x20u},
 660:.\Generated_Source\PSoC5/cyfitter_cfg.c **** 			{0x96u, 0x50u},
 661:.\Generated_Source\PSoC5/cyfitter_cfg.c **** 			{0x98u, 0x82u},
 662:.\Generated_Source\PSoC5/cyfitter_cfg.c **** 			{0x99u, 0x11u},
 663:.\Generated_Source\PSoC5/cyfitter_cfg.c **** 			{0x9Du, 0x20u},
 664:.\Generated_Source\PSoC5/cyfitter_cfg.c **** 			{0x9Eu, 0x18u},
 665:.\Generated_Source\PSoC5/cyfitter_cfg.c **** 			{0x9Fu, 0x40u},
 666:.\Generated_Source\PSoC5/cyfitter_cfg.c **** 			{0xA4u, 0x80u},
 667:.\Generated_Source\PSoC5/cyfitter_cfg.c **** 			{0xA5u, 0x41u},
 668:.\Generated_Source\PSoC5/cyfitter_cfg.c **** 			{0xA6u, 0x98u},
 669:.\Generated_Source\PSoC5/cyfitter_cfg.c **** 			{0xA7u, 0x20u},
 670:.\Generated_Source\PSoC5/cyfitter_cfg.c **** 			{0xA9u, 0x40u},
 671:.\Generated_Source\PSoC5/cyfitter_cfg.c **** 			{0xAEu, 0x40u},
 672:.\Generated_Source\PSoC5/cyfitter_cfg.c **** 			{0xC0u, 0x10u},
 673:.\Generated_Source\PSoC5/cyfitter_cfg.c **** 			{0xC2u, 0xD0u},
 674:.\Generated_Source\PSoC5/cyfitter_cfg.c **** 			{0xC4u, 0x80u},
 675:.\Generated_Source\PSoC5/cyfitter_cfg.c **** 			{0xCAu, 0xFBu},
 676:.\Generated_Source\PSoC5/cyfitter_cfg.c **** 			{0xCCu, 0xFEu},
 677:.\Generated_Source\PSoC5/cyfitter_cfg.c **** 			{0xCEu, 0xFFu},
 678:.\Generated_Source\PSoC5/cyfitter_cfg.c **** 			{0xD0u, 0x60u},
 679:.\Generated_Source\PSoC5/cyfitter_cfg.c **** 			{0xD2u, 0x10u},
 680:.\Generated_Source\PSoC5/cyfitter_cfg.c **** 			{0xD6u, 0x3Fu},
 681:.\Generated_Source\PSoC5/cyfitter_cfg.c **** 			{0xD8u, 0x1Du},
 682:.\Generated_Source\PSoC5/cyfitter_cfg.c **** 			{0x03u, 0x01u},
 683:.\Generated_Source\PSoC5/cyfitter_cfg.c **** 			{0x07u, 0x10u},
 684:.\Generated_Source\PSoC5/cyfitter_cfg.c **** 			{0x09u, 0x20u},
 685:.\Generated_Source\PSoC5/cyfitter_cfg.c **** 			{0x0Bu, 0x02u},
 686:.\Generated_Source\PSoC5/cyfitter_cfg.c **** 			{0x0Cu, 0x01u},
 687:.\Generated_Source\PSoC5/cyfitter_cfg.c **** 			{0x0Fu, 0x01u},
 688:.\Generated_Source\PSoC5/cyfitter_cfg.c **** 			{0x13u, 0x40u},
 689:.\Generated_Source\PSoC5/cyfitter_cfg.c **** 			{0x17u, 0x28u},
 690:.\Generated_Source\PSoC5/cyfitter_cfg.c **** 			{0x19u, 0x1Eu},
 691:.\Generated_Source\PSoC5/cyfitter_cfg.c **** 			{0x1Du, 0x20u},
 692:.\Generated_Source\PSoC5/cyfitter_cfg.c **** 			{0x1Fu, 0x04u},
 693:.\Generated_Source\PSoC5/cyfitter_cfg.c **** 			{0x20u, 0x01u},
 694:.\Generated_Source\PSoC5/cyfitter_cfg.c **** 			{0x27u, 0x30u},
 695:.\Generated_Source\PSoC5/cyfitter_cfg.c **** 			{0x29u, 0x08u},
 696:.\Generated_Source\PSoC5/cyfitter_cfg.c **** 			{0x2Bu, 0x10u},
 697:.\Generated_Source\PSoC5/cyfitter_cfg.c **** 			{0x2Cu, 0x01u},
 698:.\Generated_Source\PSoC5/cyfitter_cfg.c **** 			{0x2Du, 0x7Eu},
 699:.\Generated_Source\PSoC5/cyfitter_cfg.c **** 			{0x34u, 0x01u},
 700:.\Generated_Source\PSoC5/cyfitter_cfg.c **** 			{0x35u, 0x7Eu},
 701:.\Generated_Source\PSoC5/cyfitter_cfg.c **** 			{0x37u, 0x01u},
 702:.\Generated_Source\PSoC5/cyfitter_cfg.c **** 			{0x38u, 0x20u},
 703:.\Generated_Source\PSoC5/cyfitter_cfg.c **** 			{0x39u, 0x20u},
 704:.\Generated_Source\PSoC5/cyfitter_cfg.c **** 			{0x3Fu, 0x40u},
 705:.\Generated_Source\PSoC5/cyfitter_cfg.c **** 			{0x40u, 0x32u},
 706:.\Generated_Source\PSoC5/cyfitter_cfg.c **** 			{0x45u, 0x05u},
 707:.\Generated_Source\PSoC5/cyfitter_cfg.c **** 			{0x46u, 0x02u},
 708:.\Generated_Source\PSoC5/cyfitter_cfg.c **** 			{0x48u, 0x05u},
 709:.\Generated_Source\PSoC5/cyfitter_cfg.c **** 			{0x49u, 0xFFu},
 710:.\Generated_Source\PSoC5/cyfitter_cfg.c **** 			{0x4Au, 0xFFu},
 711:.\Generated_Source\PSoC5/cyfitter_cfg.c **** 			{0x4Bu, 0xFFu},
ARM GAS  C:\Users\Colin\AppData\Local\Temp\ccyjTXTG.s 			page 24


 712:.\Generated_Source\PSoC5/cyfitter_cfg.c **** 			{0x4Cu, 0x42u},
 713:.\Generated_Source\PSoC5/cyfitter_cfg.c **** 			{0x4Du, 0xA0u},
 714:.\Generated_Source\PSoC5/cyfitter_cfg.c **** 			{0x4Eu, 0x70u},
 715:.\Generated_Source\PSoC5/cyfitter_cfg.c **** 			{0x50u, 0x08u},
 716:.\Generated_Source\PSoC5/cyfitter_cfg.c **** 			{0x51u, 0x10u},
 717:.\Generated_Source\PSoC5/cyfitter_cfg.c **** 			{0x58u, 0x04u},
 718:.\Generated_Source\PSoC5/cyfitter_cfg.c **** 			{0x59u, 0x04u},
 719:.\Generated_Source\PSoC5/cyfitter_cfg.c **** 			{0x5Au, 0x04u},
 720:.\Generated_Source\PSoC5/cyfitter_cfg.c **** 			{0x5Fu, 0x01u},
 721:.\Generated_Source\PSoC5/cyfitter_cfg.c **** 			{0x61u, 0x48u},
 722:.\Generated_Source\PSoC5/cyfitter_cfg.c **** 			{0x62u, 0x40u},
 723:.\Generated_Source\PSoC5/cyfitter_cfg.c **** 			{0x63u, 0x48u},
 724:.\Generated_Source\PSoC5/cyfitter_cfg.c **** 			{0x64u, 0x80u},
 725:.\Generated_Source\PSoC5/cyfitter_cfg.c **** 			{0x65u, 0x48u},
 726:.\Generated_Source\PSoC5/cyfitter_cfg.c **** 			{0x66u, 0x80u},
 727:.\Generated_Source\PSoC5/cyfitter_cfg.c **** 			{0x67u, 0x48u},
 728:.\Generated_Source\PSoC5/cyfitter_cfg.c **** 			{0x80u, 0x40u},
 729:.\Generated_Source\PSoC5/cyfitter_cfg.c **** 			{0x82u, 0x13u},
 730:.\Generated_Source\PSoC5/cyfitter_cfg.c **** 			{0x83u, 0x01u},
 731:.\Generated_Source\PSoC5/cyfitter_cfg.c **** 			{0x84u, 0x2Au},
 732:.\Generated_Source\PSoC5/cyfitter_cfg.c **** 			{0x85u, 0x4Du},
 733:.\Generated_Source\PSoC5/cyfitter_cfg.c **** 			{0x86u, 0x54u},
 734:.\Generated_Source\PSoC5/cyfitter_cfg.c **** 			{0x87u, 0x92u},
 735:.\Generated_Source\PSoC5/cyfitter_cfg.c **** 			{0x88u, 0x80u},
 736:.\Generated_Source\PSoC5/cyfitter_cfg.c **** 			{0x89u, 0xA5u},
 737:.\Generated_Source\PSoC5/cyfitter_cfg.c **** 			{0x8Au, 0x56u},
 738:.\Generated_Source\PSoC5/cyfitter_cfg.c **** 			{0x8Bu, 0x4Au},
 739:.\Generated_Source\PSoC5/cyfitter_cfg.c **** 			{0x8Du, 0x1Au},
 740:.\Generated_Source\PSoC5/cyfitter_cfg.c **** 			{0x8Fu, 0x60u},
 741:.\Generated_Source\PSoC5/cyfitter_cfg.c **** 			{0x90u, 0xFFu},
 742:.\Generated_Source\PSoC5/cyfitter_cfg.c **** 			{0x91u, 0x02u},
 743:.\Generated_Source\PSoC5/cyfitter_cfg.c **** 			{0x95u, 0x04u},
 744:.\Generated_Source\PSoC5/cyfitter_cfg.c **** 			{0x98u, 0x46u},
 745:.\Generated_Source\PSoC5/cyfitter_cfg.c **** 			{0x9Au, 0xA9u},
 746:.\Generated_Source\PSoC5/cyfitter_cfg.c **** 			{0x9Bu, 0xB5u},
 747:.\Generated_Source\PSoC5/cyfitter_cfg.c **** 			{0x9Du, 0xA9u},
 748:.\Generated_Source\PSoC5/cyfitter_cfg.c **** 			{0x9Fu, 0x54u},
 749:.\Generated_Source\PSoC5/cyfitter_cfg.c **** 			{0xA3u, 0x04u},
 750:.\Generated_Source\PSoC5/cyfitter_cfg.c **** 			{0xA4u, 0x0Eu},
 751:.\Generated_Source\PSoC5/cyfitter_cfg.c **** 			{0xA5u, 0xCCu},
 752:.\Generated_Source\PSoC5/cyfitter_cfg.c **** 			{0xA6u, 0x30u},
 753:.\Generated_Source\PSoC5/cyfitter_cfg.c **** 			{0xA7u, 0x13u},
 754:.\Generated_Source\PSoC5/cyfitter_cfg.c **** 			{0xAAu, 0x01u},
 755:.\Generated_Source\PSoC5/cyfitter_cfg.c **** 			{0xABu, 0x02u},
 756:.\Generated_Source\PSoC5/cyfitter_cfg.c **** 			{0xACu, 0x33u},
 757:.\Generated_Source\PSoC5/cyfitter_cfg.c **** 			{0xADu, 0xFFu},
 758:.\Generated_Source\PSoC5/cyfitter_cfg.c **** 			{0xAEu, 0x0Cu},
 759:.\Generated_Source\PSoC5/cyfitter_cfg.c **** 			{0xB4u, 0xFFu},
 760:.\Generated_Source\PSoC5/cyfitter_cfg.c **** 			{0xB5u, 0xFFu},
 761:.\Generated_Source\PSoC5/cyfitter_cfg.c **** 			{0xBFu, 0x10u},
 762:.\Generated_Source\PSoC5/cyfitter_cfg.c **** 			{0xD2u, 0xF6u},
 763:.\Generated_Source\PSoC5/cyfitter_cfg.c **** 			{0xD8u, 0x04u},
 764:.\Generated_Source\PSoC5/cyfitter_cfg.c **** 			{0xD9u, 0x04u},
 765:.\Generated_Source\PSoC5/cyfitter_cfg.c **** 			{0xDBu, 0x04u},
 766:.\Generated_Source\PSoC5/cyfitter_cfg.c **** 			{0xDFu, 0x01u},
 767:.\Generated_Source\PSoC5/cyfitter_cfg.c **** 			{0x03u, 0x02u},
 768:.\Generated_Source\PSoC5/cyfitter_cfg.c **** 			{0x04u, 0x08u},
ARM GAS  C:\Users\Colin\AppData\Local\Temp\ccyjTXTG.s 			page 25


 769:.\Generated_Source\PSoC5/cyfitter_cfg.c **** 			{0x05u, 0x21u},
 770:.\Generated_Source\PSoC5/cyfitter_cfg.c **** 			{0x0Eu, 0x48u},
 771:.\Generated_Source\PSoC5/cyfitter_cfg.c **** 			{0x12u, 0x42u},
 772:.\Generated_Source\PSoC5/cyfitter_cfg.c **** 			{0x16u, 0x18u},
 773:.\Generated_Source\PSoC5/cyfitter_cfg.c **** 			{0x17u, 0x40u},
 774:.\Generated_Source\PSoC5/cyfitter_cfg.c **** 			{0x19u, 0x20u},
 775:.\Generated_Source\PSoC5/cyfitter_cfg.c **** 			{0x1Cu, 0x08u},
 776:.\Generated_Source\PSoC5/cyfitter_cfg.c **** 			{0x1Eu, 0x08u},
 777:.\Generated_Source\PSoC5/cyfitter_cfg.c **** 			{0x1Fu, 0x20u},
 778:.\Generated_Source\PSoC5/cyfitter_cfg.c **** 			{0x21u, 0x10u},
 779:.\Generated_Source\PSoC5/cyfitter_cfg.c **** 			{0x22u, 0x40u},
 780:.\Generated_Source\PSoC5/cyfitter_cfg.c **** 			{0x26u, 0x10u},
 781:.\Generated_Source\PSoC5/cyfitter_cfg.c **** 			{0x29u, 0x20u},
 782:.\Generated_Source\PSoC5/cyfitter_cfg.c **** 			{0x2Bu, 0x22u},
 783:.\Generated_Source\PSoC5/cyfitter_cfg.c **** 			{0x2Cu, 0x80u},
 784:.\Generated_Source\PSoC5/cyfitter_cfg.c **** 			{0x2Eu, 0x60u},
 785:.\Generated_Source\PSoC5/cyfitter_cfg.c **** 			{0x2Fu, 0x22u},
 786:.\Generated_Source\PSoC5/cyfitter_cfg.c **** 			{0x32u, 0xAAu},
 787:.\Generated_Source\PSoC5/cyfitter_cfg.c **** 			{0x35u, 0x20u},
 788:.\Generated_Source\PSoC5/cyfitter_cfg.c **** 			{0x36u, 0x81u},
 789:.\Generated_Source\PSoC5/cyfitter_cfg.c **** 			{0x37u, 0x48u},
 790:.\Generated_Source\PSoC5/cyfitter_cfg.c **** 			{0x38u, 0x08u},
 791:.\Generated_Source\PSoC5/cyfitter_cfg.c **** 			{0x3Au, 0x91u},
 792:.\Generated_Source\PSoC5/cyfitter_cfg.c **** 			{0x3Cu, 0x02u},
 793:.\Generated_Source\PSoC5/cyfitter_cfg.c **** 			{0x3Du, 0x90u},
 794:.\Generated_Source\PSoC5/cyfitter_cfg.c **** 			{0x3Fu, 0x08u},
 795:.\Generated_Source\PSoC5/cyfitter_cfg.c **** 			{0x41u, 0x24u},
 796:.\Generated_Source\PSoC5/cyfitter_cfg.c **** 			{0x4Au, 0x20u},
 797:.\Generated_Source\PSoC5/cyfitter_cfg.c **** 			{0x52u, 0x40u},
 798:.\Generated_Source\PSoC5/cyfitter_cfg.c **** 			{0x6Eu, 0x04u},
 799:.\Generated_Source\PSoC5/cyfitter_cfg.c **** 			{0x6Fu, 0x04u},
 800:.\Generated_Source\PSoC5/cyfitter_cfg.c **** 			{0x74u, 0x81u},
 801:.\Generated_Source\PSoC5/cyfitter_cfg.c **** 			{0x76u, 0x22u},
 802:.\Generated_Source\PSoC5/cyfitter_cfg.c **** 			{0x77u, 0x28u},
 803:.\Generated_Source\PSoC5/cyfitter_cfg.c **** 			{0x7Au, 0x08u},
 804:.\Generated_Source\PSoC5/cyfitter_cfg.c **** 			{0x7Bu, 0x04u},
 805:.\Generated_Source\PSoC5/cyfitter_cfg.c **** 			{0x81u, 0x01u},
 806:.\Generated_Source\PSoC5/cyfitter_cfg.c **** 			{0x82u, 0x08u},
 807:.\Generated_Source\PSoC5/cyfitter_cfg.c **** 			{0x90u, 0x08u},
 808:.\Generated_Source\PSoC5/cyfitter_cfg.c **** 			{0x91u, 0x10u},
 809:.\Generated_Source\PSoC5/cyfitter_cfg.c **** 			{0x94u, 0x04u},
 810:.\Generated_Source\PSoC5/cyfitter_cfg.c **** 			{0x95u, 0x20u},
 811:.\Generated_Source\PSoC5/cyfitter_cfg.c **** 			{0x96u, 0x40u},
 812:.\Generated_Source\PSoC5/cyfitter_cfg.c **** 			{0x98u, 0x01u},
 813:.\Generated_Source\PSoC5/cyfitter_cfg.c **** 			{0x99u, 0x15u},
 814:.\Generated_Source\PSoC5/cyfitter_cfg.c **** 			{0x9Au, 0x18u},
 815:.\Generated_Source\PSoC5/cyfitter_cfg.c **** 			{0x9Du, 0x20u},
 816:.\Generated_Source\PSoC5/cyfitter_cfg.c **** 			{0x9Fu, 0x38u},
 817:.\Generated_Source\PSoC5/cyfitter_cfg.c **** 			{0xA0u, 0x02u},
 818:.\Generated_Source\PSoC5/cyfitter_cfg.c **** 			{0xA1u, 0x20u},
 819:.\Generated_Source\PSoC5/cyfitter_cfg.c **** 			{0xA2u, 0x01u},
 820:.\Generated_Source\PSoC5/cyfitter_cfg.c **** 			{0xA4u, 0x84u},
 821:.\Generated_Source\PSoC5/cyfitter_cfg.c **** 			{0xA5u, 0x58u},
 822:.\Generated_Source\PSoC5/cyfitter_cfg.c **** 			{0xA6u, 0x90u},
 823:.\Generated_Source\PSoC5/cyfitter_cfg.c **** 			{0xA7u, 0x20u},
 824:.\Generated_Source\PSoC5/cyfitter_cfg.c **** 			{0xA9u, 0x40u},
 825:.\Generated_Source\PSoC5/cyfitter_cfg.c **** 			{0xABu, 0x04u},
ARM GAS  C:\Users\Colin\AppData\Local\Temp\ccyjTXTG.s 			page 26


 826:.\Generated_Source\PSoC5/cyfitter_cfg.c **** 			{0xACu, 0x20u},
 827:.\Generated_Source\PSoC5/cyfitter_cfg.c **** 			{0xADu, 0x42u},
 828:.\Generated_Source\PSoC5/cyfitter_cfg.c **** 			{0xAEu, 0x14u},
 829:.\Generated_Source\PSoC5/cyfitter_cfg.c **** 			{0xAFu, 0x10u},
 830:.\Generated_Source\PSoC5/cyfitter_cfg.c **** 			{0xC0u, 0x71u},
 831:.\Generated_Source\PSoC5/cyfitter_cfg.c **** 			{0xC2u, 0x50u},
 832:.\Generated_Source\PSoC5/cyfitter_cfg.c **** 			{0xC4u, 0xE9u},
 833:.\Generated_Source\PSoC5/cyfitter_cfg.c **** 			{0xCAu, 0xFEu},
 834:.\Generated_Source\PSoC5/cyfitter_cfg.c **** 			{0xCCu, 0xFFu},
 835:.\Generated_Source\PSoC5/cyfitter_cfg.c **** 			{0xCEu, 0xFFu},
 836:.\Generated_Source\PSoC5/cyfitter_cfg.c **** 			{0xD0u, 0x06u},
 837:.\Generated_Source\PSoC5/cyfitter_cfg.c **** 			{0xE2u, 0x01u},
 838:.\Generated_Source\PSoC5/cyfitter_cfg.c **** 			{0xEEu, 0x01u},
 839:.\Generated_Source\PSoC5/cyfitter_cfg.c **** 			{0x90u, 0x08u},
 840:.\Generated_Source\PSoC5/cyfitter_cfg.c **** 			{0x91u, 0x20u},
 841:.\Generated_Source\PSoC5/cyfitter_cfg.c **** 			{0x92u, 0x84u},
 842:.\Generated_Source\PSoC5/cyfitter_cfg.c **** 			{0x94u, 0x04u},
 843:.\Generated_Source\PSoC5/cyfitter_cfg.c **** 			{0x95u, 0x08u},
 844:.\Generated_Source\PSoC5/cyfitter_cfg.c **** 			{0x98u, 0x01u},
 845:.\Generated_Source\PSoC5/cyfitter_cfg.c **** 			{0x99u, 0x35u},
 846:.\Generated_Source\PSoC5/cyfitter_cfg.c **** 			{0x9Au, 0x42u},
 847:.\Generated_Source\PSoC5/cyfitter_cfg.c **** 			{0x9Bu, 0x2Cu},
 848:.\Generated_Source\PSoC5/cyfitter_cfg.c **** 			{0x9Eu, 0x81u},
 849:.\Generated_Source\PSoC5/cyfitter_cfg.c **** 			{0x9Fu, 0x10u},
 850:.\Generated_Source\PSoC5/cyfitter_cfg.c **** 			{0xA0u, 0x02u},
 851:.\Generated_Source\PSoC5/cyfitter_cfg.c **** 			{0xA2u, 0x01u},
 852:.\Generated_Source\PSoC5/cyfitter_cfg.c **** 			{0xA3u, 0x20u},
 853:.\Generated_Source\PSoC5/cyfitter_cfg.c **** 			{0xA5u, 0x58u},
 854:.\Generated_Source\PSoC5/cyfitter_cfg.c **** 			{0xA6u, 0x82u},
 855:.\Generated_Source\PSoC5/cyfitter_cfg.c **** 			{0xA7u, 0x02u},
 856:.\Generated_Source\PSoC5/cyfitter_cfg.c **** 			{0xEEu, 0x01u},
 857:.\Generated_Source\PSoC5/cyfitter_cfg.c **** 			{0xEEu, 0x01u},
 858:.\Generated_Source\PSoC5/cyfitter_cfg.c **** 			{0xB9u, 0x08u},
 859:.\Generated_Source\PSoC5/cyfitter_cfg.c **** 			{0xBFu, 0x04u},
 860:.\Generated_Source\PSoC5/cyfitter_cfg.c **** 			{0xD9u, 0x04u},
 861:.\Generated_Source\PSoC5/cyfitter_cfg.c **** 			{0xDFu, 0x01u},
 862:.\Generated_Source\PSoC5/cyfitter_cfg.c **** 			{0x27u, 0x20u},
 863:.\Generated_Source\PSoC5/cyfitter_cfg.c **** 			{0x83u, 0x20u},
 864:.\Generated_Source\PSoC5/cyfitter_cfg.c **** 			{0xEEu, 0x01u},
 865:.\Generated_Source\PSoC5/cyfitter_cfg.c **** 			{0x07u, 0x40u},
 866:.\Generated_Source\PSoC5/cyfitter_cfg.c **** 			{0x0Au, 0x01u},
 867:.\Generated_Source\PSoC5/cyfitter_cfg.c **** 			{0x0Bu, 0x78u},
 868:.\Generated_Source\PSoC5/cyfitter_cfg.c **** 			{0x0Du, 0x01u},
 869:.\Generated_Source\PSoC5/cyfitter_cfg.c **** 			{0x11u, 0x02u},
 870:.\Generated_Source\PSoC5/cyfitter_cfg.c **** 			{0x13u, 0x0Cu},
 871:.\Generated_Source\PSoC5/cyfitter_cfg.c **** 			{0x15u, 0x78u},
 872:.\Generated_Source\PSoC5/cyfitter_cfg.c **** 			{0x1Bu, 0x78u},
 873:.\Generated_Source\PSoC5/cyfitter_cfg.c **** 			{0x1Du, 0x02u},
 874:.\Generated_Source\PSoC5/cyfitter_cfg.c **** 			{0x1Fu, 0x14u},
 875:.\Generated_Source\PSoC5/cyfitter_cfg.c **** 			{0x23u, 0x20u},
 876:.\Generated_Source\PSoC5/cyfitter_cfg.c **** 			{0x27u, 0x40u},
 877:.\Generated_Source\PSoC5/cyfitter_cfg.c **** 			{0x29u, 0x78u},
 878:.\Generated_Source\PSoC5/cyfitter_cfg.c **** 			{0x2Du, 0x01u},
 879:.\Generated_Source\PSoC5/cyfitter_cfg.c **** 			{0x31u, 0x78u},
 880:.\Generated_Source\PSoC5/cyfitter_cfg.c **** 			{0x32u, 0x01u},
 881:.\Generated_Source\PSoC5/cyfitter_cfg.c **** 			{0x33u, 0x07u},
 882:.\Generated_Source\PSoC5/cyfitter_cfg.c **** 			{0x39u, 0x08u},
ARM GAS  C:\Users\Colin\AppData\Local\Temp\ccyjTXTG.s 			page 27


 883:.\Generated_Source\PSoC5/cyfitter_cfg.c **** 			{0x3Fu, 0x05u},
 884:.\Generated_Source\PSoC5/cyfitter_cfg.c **** 			{0x40u, 0x54u},
 885:.\Generated_Source\PSoC5/cyfitter_cfg.c **** 			{0x49u, 0xFFu},
 886:.\Generated_Source\PSoC5/cyfitter_cfg.c **** 			{0x4Au, 0xFFu},
 887:.\Generated_Source\PSoC5/cyfitter_cfg.c **** 			{0x4Bu, 0xFFu},
 888:.\Generated_Source\PSoC5/cyfitter_cfg.c **** 			{0x4Fu, 0x01u},
 889:.\Generated_Source\PSoC5/cyfitter_cfg.c **** 			{0x50u, 0x18u},
 890:.\Generated_Source\PSoC5/cyfitter_cfg.c **** 			{0x58u, 0x04u},
 891:.\Generated_Source\PSoC5/cyfitter_cfg.c **** 			{0x59u, 0x04u},
 892:.\Generated_Source\PSoC5/cyfitter_cfg.c **** 			{0x5Au, 0x04u},
 893:.\Generated_Source\PSoC5/cyfitter_cfg.c **** 			{0x5Du, 0x09u},
 894:.\Generated_Source\PSoC5/cyfitter_cfg.c **** 			{0x5Fu, 0x01u},
 895:.\Generated_Source\PSoC5/cyfitter_cfg.c **** 			{0x60u, 0x40u},
 896:.\Generated_Source\PSoC5/cyfitter_cfg.c **** 			{0x62u, 0x40u},
 897:.\Generated_Source\PSoC5/cyfitter_cfg.c **** 			{0x64u, 0x40u},
 898:.\Generated_Source\PSoC5/cyfitter_cfg.c **** 			{0x65u, 0x40u},
 899:.\Generated_Source\PSoC5/cyfitter_cfg.c **** 			{0x66u, 0x80u},
 900:.\Generated_Source\PSoC5/cyfitter_cfg.c **** 			{0x68u, 0x80u},
 901:.\Generated_Source\PSoC5/cyfitter_cfg.c **** 			{0x6Au, 0x80u},
 902:.\Generated_Source\PSoC5/cyfitter_cfg.c **** 			{0x6Cu, 0x80u},
 903:.\Generated_Source\PSoC5/cyfitter_cfg.c **** 			{0x6Eu, 0x80u},
 904:.\Generated_Source\PSoC5/cyfitter_cfg.c **** 			{0x80u, 0x08u},
 905:.\Generated_Source\PSoC5/cyfitter_cfg.c **** 			{0x81u, 0x02u},
 906:.\Generated_Source\PSoC5/cyfitter_cfg.c **** 			{0x82u, 0x07u},
 907:.\Generated_Source\PSoC5/cyfitter_cfg.c **** 			{0x83u, 0x09u},
 908:.\Generated_Source\PSoC5/cyfitter_cfg.c **** 			{0x84u, 0x22u},
 909:.\Generated_Source\PSoC5/cyfitter_cfg.c **** 			{0x85u, 0x01u},
 910:.\Generated_Source\PSoC5/cyfitter_cfg.c **** 			{0x86u, 0x05u},
 911:.\Generated_Source\PSoC5/cyfitter_cfg.c **** 			{0x88u, 0x40u},
 912:.\Generated_Source\PSoC5/cyfitter_cfg.c **** 			{0x8Au, 0x07u},
 913:.\Generated_Source\PSoC5/cyfitter_cfg.c **** 			{0x8Bu, 0x0Bu},
 914:.\Generated_Source\PSoC5/cyfitter_cfg.c **** 			{0x8Cu, 0x05u},
 915:.\Generated_Source\PSoC5/cyfitter_cfg.c **** 			{0x8Du, 0x1Fu},
 916:.\Generated_Source\PSoC5/cyfitter_cfg.c **** 			{0x8Eu, 0x78u},
 917:.\Generated_Source\PSoC5/cyfitter_cfg.c **** 			{0x90u, 0x03u},
 918:.\Generated_Source\PSoC5/cyfitter_cfg.c **** 			{0x91u, 0x0Fu},
 919:.\Generated_Source\PSoC5/cyfitter_cfg.c **** 			{0x94u, 0x10u},
 920:.\Generated_Source\PSoC5/cyfitter_cfg.c **** 			{0x95u, 0x01u},
 921:.\Generated_Source\PSoC5/cyfitter_cfg.c **** 			{0x96u, 0x07u},
 922:.\Generated_Source\PSoC5/cyfitter_cfg.c **** 			{0x98u, 0x01u},
 923:.\Generated_Source\PSoC5/cyfitter_cfg.c **** 			{0x99u, 0x10u},
 924:.\Generated_Source\PSoC5/cyfitter_cfg.c **** 			{0x9Bu, 0x0Bu},
 925:.\Generated_Source\PSoC5/cyfitter_cfg.c **** 			{0x9Cu, 0x03u},
 926:.\Generated_Source\PSoC5/cyfitter_cfg.c **** 			{0x9Fu, 0x14u},
 927:.\Generated_Source\PSoC5/cyfitter_cfg.c **** 			{0xA0u, 0x3Au},
 928:.\Generated_Source\PSoC5/cyfitter_cfg.c **** 			{0xA1u, 0x08u},
 929:.\Generated_Source\PSoC5/cyfitter_cfg.c **** 			{0xA2u, 0x04u},
 930:.\Generated_Source\PSoC5/cyfitter_cfg.c **** 			{0xA3u, 0x02u},
 931:.\Generated_Source\PSoC5/cyfitter_cfg.c **** 			{0xA4u, 0x01u},
 932:.\Generated_Source\PSoC5/cyfitter_cfg.c **** 			{0xA7u, 0x01u},
 933:.\Generated_Source\PSoC5/cyfitter_cfg.c **** 			{0xA8u, 0x01u},
 934:.\Generated_Source\PSoC5/cyfitter_cfg.c **** 			{0xA9u, 0x03u},
 935:.\Generated_Source\PSoC5/cyfitter_cfg.c **** 			{0xACu, 0x7Fu},
 936:.\Generated_Source\PSoC5/cyfitter_cfg.c **** 			{0xADu, 0x03u},
 937:.\Generated_Source\PSoC5/cyfitter_cfg.c **** 			{0xB2u, 0x7Fu},
 938:.\Generated_Source\PSoC5/cyfitter_cfg.c **** 			{0xB7u, 0x1Fu},
 939:.\Generated_Source\PSoC5/cyfitter_cfg.c **** 			{0xBEu, 0x04u},
ARM GAS  C:\Users\Colin\AppData\Local\Temp\ccyjTXTG.s 			page 28


 940:.\Generated_Source\PSoC5/cyfitter_cfg.c **** 			{0xC0u, 0x14u},
 941:.\Generated_Source\PSoC5/cyfitter_cfg.c **** 			{0xC9u, 0xFFu},
 942:.\Generated_Source\PSoC5/cyfitter_cfg.c **** 			{0xCAu, 0xFFu},
 943:.\Generated_Source\PSoC5/cyfitter_cfg.c **** 			{0xCBu, 0xFFu},
 944:.\Generated_Source\PSoC5/cyfitter_cfg.c **** 			{0xCDu, 0x83u},
 945:.\Generated_Source\PSoC5/cyfitter_cfg.c **** 			{0xCEu, 0x03u},
 946:.\Generated_Source\PSoC5/cyfitter_cfg.c **** 			{0xCFu, 0x01u},
 947:.\Generated_Source\PSoC5/cyfitter_cfg.c **** 			{0xD0u, 0x18u},
 948:.\Generated_Source\PSoC5/cyfitter_cfg.c **** 			{0xD2u, 0x80u},
 949:.\Generated_Source\PSoC5/cyfitter_cfg.c **** 			{0xD8u, 0x04u},
 950:.\Generated_Source\PSoC5/cyfitter_cfg.c **** 			{0xD9u, 0x04u},
 951:.\Generated_Source\PSoC5/cyfitter_cfg.c **** 			{0xDAu, 0x04u},
 952:.\Generated_Source\PSoC5/cyfitter_cfg.c **** 			{0xDBu, 0x04u},
 953:.\Generated_Source\PSoC5/cyfitter_cfg.c **** 			{0xDDu, 0x99u},
 954:.\Generated_Source\PSoC5/cyfitter_cfg.c **** 			{0xDFu, 0x01u},
 955:.\Generated_Source\PSoC5/cyfitter_cfg.c **** 			{0xE0u, 0x40u},
 956:.\Generated_Source\PSoC5/cyfitter_cfg.c **** 			{0xE2u, 0x40u},
 957:.\Generated_Source\PSoC5/cyfitter_cfg.c **** 			{0xE4u, 0x40u},
 958:.\Generated_Source\PSoC5/cyfitter_cfg.c **** 			{0xE5u, 0x40u},
 959:.\Generated_Source\PSoC5/cyfitter_cfg.c **** 			{0xE6u, 0x80u},
 960:.\Generated_Source\PSoC5/cyfitter_cfg.c **** 			{0xE8u, 0x80u},
 961:.\Generated_Source\PSoC5/cyfitter_cfg.c **** 			{0xEAu, 0x80u},
 962:.\Generated_Source\PSoC5/cyfitter_cfg.c **** 			{0xECu, 0x80u},
 963:.\Generated_Source\PSoC5/cyfitter_cfg.c **** 			{0xEEu, 0x80u},
 964:.\Generated_Source\PSoC5/cyfitter_cfg.c **** 			{0x00u, 0x10u},
 965:.\Generated_Source\PSoC5/cyfitter_cfg.c **** 			{0x04u, 0x08u},
 966:.\Generated_Source\PSoC5/cyfitter_cfg.c **** 			{0x05u, 0x21u},
 967:.\Generated_Source\PSoC5/cyfitter_cfg.c **** 			{0x07u, 0x01u},
 968:.\Generated_Source\PSoC5/cyfitter_cfg.c **** 			{0x0Cu, 0x02u},
 969:.\Generated_Source\PSoC5/cyfitter_cfg.c **** 			{0x0Eu, 0x06u},
 970:.\Generated_Source\PSoC5/cyfitter_cfg.c **** 			{0x0Fu, 0x20u},
 971:.\Generated_Source\PSoC5/cyfitter_cfg.c **** 			{0x14u, 0x40u},
 972:.\Generated_Source\PSoC5/cyfitter_cfg.c **** 			{0x15u, 0x40u},
 973:.\Generated_Source\PSoC5/cyfitter_cfg.c **** 			{0x16u, 0x08u},
 974:.\Generated_Source\PSoC5/cyfitter_cfg.c **** 			{0x17u, 0x28u},
 975:.\Generated_Source\PSoC5/cyfitter_cfg.c **** 			{0x1Au, 0x10u},
 976:.\Generated_Source\PSoC5/cyfitter_cfg.c **** 			{0x1Eu, 0x20u},
 977:.\Generated_Source\PSoC5/cyfitter_cfg.c **** 			{0x21u, 0x08u},
 978:.\Generated_Source\PSoC5/cyfitter_cfg.c **** 			{0x22u, 0x02u},
 979:.\Generated_Source\PSoC5/cyfitter_cfg.c **** 			{0x23u, 0x40u},
 980:.\Generated_Source\PSoC5/cyfitter_cfg.c **** 			{0x26u, 0x80u},
 981:.\Generated_Source\PSoC5/cyfitter_cfg.c **** 			{0x29u, 0x21u},
 982:.\Generated_Source\PSoC5/cyfitter_cfg.c **** 			{0x2Au, 0x42u},
 983:.\Generated_Source\PSoC5/cyfitter_cfg.c **** 			{0x2Bu, 0x30u},
 984:.\Generated_Source\PSoC5/cyfitter_cfg.c **** 			{0x2Cu, 0x02u},
 985:.\Generated_Source\PSoC5/cyfitter_cfg.c **** 			{0x2Eu, 0x06u},
 986:.\Generated_Source\PSoC5/cyfitter_cfg.c **** 			{0x2Fu, 0x08u},
 987:.\Generated_Source\PSoC5/cyfitter_cfg.c **** 			{0x30u, 0x40u},
 988:.\Generated_Source\PSoC5/cyfitter_cfg.c **** 			{0x31u, 0x14u},
 989:.\Generated_Source\PSoC5/cyfitter_cfg.c **** 			{0x32u, 0x80u},
 990:.\Generated_Source\PSoC5/cyfitter_cfg.c **** 			{0x33u, 0x01u},
 991:.\Generated_Source\PSoC5/cyfitter_cfg.c **** 			{0x35u, 0x20u},
 992:.\Generated_Source\PSoC5/cyfitter_cfg.c **** 			{0x36u, 0x80u},
 993:.\Generated_Source\PSoC5/cyfitter_cfg.c **** 			{0x37u, 0x09u},
 994:.\Generated_Source\PSoC5/cyfitter_cfg.c **** 			{0x38u, 0x08u},
 995:.\Generated_Source\PSoC5/cyfitter_cfg.c **** 			{0x39u, 0x20u},
 996:.\Generated_Source\PSoC5/cyfitter_cfg.c **** 			{0x3Bu, 0x40u},
ARM GAS  C:\Users\Colin\AppData\Local\Temp\ccyjTXTG.s 			page 29


 997:.\Generated_Source\PSoC5/cyfitter_cfg.c **** 			{0x3Du, 0x42u},
 998:.\Generated_Source\PSoC5/cyfitter_cfg.c **** 			{0x3Eu, 0x08u},
 999:.\Generated_Source\PSoC5/cyfitter_cfg.c **** 			{0x3Fu, 0x20u},
1000:.\Generated_Source\PSoC5/cyfitter_cfg.c **** 			{0x42u, 0x80u},
1001:.\Generated_Source\PSoC5/cyfitter_cfg.c **** 			{0x46u, 0x80u},
1002:.\Generated_Source\PSoC5/cyfitter_cfg.c **** 			{0x47u, 0x40u},
1003:.\Generated_Source\PSoC5/cyfitter_cfg.c **** 			{0x48u, 0x01u},
1004:.\Generated_Source\PSoC5/cyfitter_cfg.c **** 			{0x74u, 0x01u},
1005:.\Generated_Source\PSoC5/cyfitter_cfg.c **** 			{0x77u, 0x40u},
1006:.\Generated_Source\PSoC5/cyfitter_cfg.c **** 			{0x80u, 0x04u},
1007:.\Generated_Source\PSoC5/cyfitter_cfg.c **** 			{0x81u, 0x01u},
1008:.\Generated_Source\PSoC5/cyfitter_cfg.c **** 			{0x8Eu, 0x01u},
1009:.\Generated_Source\PSoC5/cyfitter_cfg.c **** 			{0x8Fu, 0x08u},
1010:.\Generated_Source\PSoC5/cyfitter_cfg.c **** 			{0x90u, 0x18u},
1011:.\Generated_Source\PSoC5/cyfitter_cfg.c **** 			{0x91u, 0x60u},
1012:.\Generated_Source\PSoC5/cyfitter_cfg.c **** 			{0x92u, 0x04u},
1013:.\Generated_Source\PSoC5/cyfitter_cfg.c **** 			{0x96u, 0x10u},
1014:.\Generated_Source\PSoC5/cyfitter_cfg.c **** 			{0x99u, 0x35u},
1015:.\Generated_Source\PSoC5/cyfitter_cfg.c **** 			{0x9Au, 0xC0u},
1016:.\Generated_Source\PSoC5/cyfitter_cfg.c **** 			{0x9Bu, 0x29u},
1017:.\Generated_Source\PSoC5/cyfitter_cfg.c **** 			{0x9Fu, 0x40u},
1018:.\Generated_Source\PSoC5/cyfitter_cfg.c **** 			{0xA0u, 0x02u},
1019:.\Generated_Source\PSoC5/cyfitter_cfg.c **** 			{0xA2u, 0x01u},
1020:.\Generated_Source\PSoC5/cyfitter_cfg.c **** 			{0xA3u, 0x20u},
1021:.\Generated_Source\PSoC5/cyfitter_cfg.c **** 			{0xA5u, 0x08u},
1022:.\Generated_Source\PSoC5/cyfitter_cfg.c **** 			{0xA6u, 0x92u},
1023:.\Generated_Source\PSoC5/cyfitter_cfg.c **** 			{0xC0u, 0xF2u},
1024:.\Generated_Source\PSoC5/cyfitter_cfg.c **** 			{0xC2u, 0xF0u},
1025:.\Generated_Source\PSoC5/cyfitter_cfg.c **** 			{0xC4u, 0xF0u},
1026:.\Generated_Source\PSoC5/cyfitter_cfg.c **** 			{0xCAu, 0xFFu},
1027:.\Generated_Source\PSoC5/cyfitter_cfg.c **** 			{0xCCu, 0xFFu},
1028:.\Generated_Source\PSoC5/cyfitter_cfg.c **** 			{0xCEu, 0xFEu},
1029:.\Generated_Source\PSoC5/cyfitter_cfg.c **** 			{0xD0u, 0x91u},
1030:.\Generated_Source\PSoC5/cyfitter_cfg.c **** 			{0xD2u, 0x08u},
1031:.\Generated_Source\PSoC5/cyfitter_cfg.c **** 			{0x01u, 0x10u},
1032:.\Generated_Source\PSoC5/cyfitter_cfg.c **** 			{0x05u, 0x01u},
1033:.\Generated_Source\PSoC5/cyfitter_cfg.c **** 			{0x07u, 0x06u},
1034:.\Generated_Source\PSoC5/cyfitter_cfg.c **** 			{0x09u, 0x10u},
1035:.\Generated_Source\PSoC5/cyfitter_cfg.c **** 			{0x0Bu, 0x03u},
1036:.\Generated_Source\PSoC5/cyfitter_cfg.c **** 			{0x0Du, 0x11u},
1037:.\Generated_Source\PSoC5/cyfitter_cfg.c **** 			{0x0Fu, 0x04u},
1038:.\Generated_Source\PSoC5/cyfitter_cfg.c **** 			{0x10u, 0x02u},
1039:.\Generated_Source\PSoC5/cyfitter_cfg.c **** 			{0x11u, 0x13u},
1040:.\Generated_Source\PSoC5/cyfitter_cfg.c **** 			{0x1Au, 0x01u},
1041:.\Generated_Source\PSoC5/cyfitter_cfg.c **** 			{0x1Bu, 0x20u},
1042:.\Generated_Source\PSoC5/cyfitter_cfg.c **** 			{0x1Fu, 0x03u},
1043:.\Generated_Source\PSoC5/cyfitter_cfg.c **** 			{0x23u, 0x13u},
1044:.\Generated_Source\PSoC5/cyfitter_cfg.c **** 			{0x25u, 0x13u},
1045:.\Generated_Source\PSoC5/cyfitter_cfg.c **** 			{0x26u, 0x02u},
1046:.\Generated_Source\PSoC5/cyfitter_cfg.c **** 			{0x2Bu, 0x03u},
1047:.\Generated_Source\PSoC5/cyfitter_cfg.c **** 			{0x2Du, 0x02u},
1048:.\Generated_Source\PSoC5/cyfitter_cfg.c **** 			{0x2Fu, 0x09u},
1049:.\Generated_Source\PSoC5/cyfitter_cfg.c **** 			{0x30u, 0x02u},
1050:.\Generated_Source\PSoC5/cyfitter_cfg.c **** 			{0x33u, 0x07u},
1051:.\Generated_Source\PSoC5/cyfitter_cfg.c **** 			{0x34u, 0x01u},
1052:.\Generated_Source\PSoC5/cyfitter_cfg.c **** 			{0x35u, 0x08u},
1053:.\Generated_Source\PSoC5/cyfitter_cfg.c **** 			{0x37u, 0x30u},
ARM GAS  C:\Users\Colin\AppData\Local\Temp\ccyjTXTG.s 			page 30


1054:.\Generated_Source\PSoC5/cyfitter_cfg.c **** 			{0x38u, 0x02u},
1055:.\Generated_Source\PSoC5/cyfitter_cfg.c **** 			{0x3Bu, 0x08u},
1056:.\Generated_Source\PSoC5/cyfitter_cfg.c **** 			{0x40u, 0x14u},
1057:.\Generated_Source\PSoC5/cyfitter_cfg.c **** 			{0x45u, 0xECu},
1058:.\Generated_Source\PSoC5/cyfitter_cfg.c **** 			{0x46u, 0x02u},
1059:.\Generated_Source\PSoC5/cyfitter_cfg.c **** 			{0x48u, 0x07u},
1060:.\Generated_Source\PSoC5/cyfitter_cfg.c **** 			{0x49u, 0xFFu},
1061:.\Generated_Source\PSoC5/cyfitter_cfg.c **** 			{0x4Au, 0xFFu},
1062:.\Generated_Source\PSoC5/cyfitter_cfg.c **** 			{0x4Bu, 0xFFu},
1063:.\Generated_Source\PSoC5/cyfitter_cfg.c **** 			{0x4Du, 0x83u},
1064:.\Generated_Source\PSoC5/cyfitter_cfg.c **** 			{0x4Eu, 0x03u},
1065:.\Generated_Source\PSoC5/cyfitter_cfg.c **** 			{0x4Fu, 0x01u},
1066:.\Generated_Source\PSoC5/cyfitter_cfg.c **** 			{0x50u, 0x18u},
1067:.\Generated_Source\PSoC5/cyfitter_cfg.c **** 			{0x56u, 0x08u},
1068:.\Generated_Source\PSoC5/cyfitter_cfg.c **** 			{0x58u, 0x04u},
1069:.\Generated_Source\PSoC5/cyfitter_cfg.c **** 			{0x59u, 0x04u},
1070:.\Generated_Source\PSoC5/cyfitter_cfg.c **** 			{0x5Au, 0x04u},
1071:.\Generated_Source\PSoC5/cyfitter_cfg.c **** 			{0x5Bu, 0x04u},
1072:.\Generated_Source\PSoC5/cyfitter_cfg.c **** 			{0x5Du, 0x99u},
1073:.\Generated_Source\PSoC5/cyfitter_cfg.c **** 			{0x5Fu, 0x01u},
1074:.\Generated_Source\PSoC5/cyfitter_cfg.c **** 			{0x60u, 0x40u},
1075:.\Generated_Source\PSoC5/cyfitter_cfg.c **** 			{0x62u, 0x40u},
1076:.\Generated_Source\PSoC5/cyfitter_cfg.c **** 			{0x64u, 0x40u},
1077:.\Generated_Source\PSoC5/cyfitter_cfg.c **** 			{0x65u, 0x40u},
1078:.\Generated_Source\PSoC5/cyfitter_cfg.c **** 			{0x66u, 0x80u},
1079:.\Generated_Source\PSoC5/cyfitter_cfg.c **** 			{0x68u, 0x80u},
1080:.\Generated_Source\PSoC5/cyfitter_cfg.c **** 			{0x6Au, 0x80u},
1081:.\Generated_Source\PSoC5/cyfitter_cfg.c **** 			{0x6Cu, 0x80u},
1082:.\Generated_Source\PSoC5/cyfitter_cfg.c **** 			{0x6Eu, 0x80u},
1083:.\Generated_Source\PSoC5/cyfitter_cfg.c **** 			{0x81u, 0x01u},
1084:.\Generated_Source\PSoC5/cyfitter_cfg.c **** 			{0x83u, 0x06u},
1085:.\Generated_Source\PSoC5/cyfitter_cfg.c **** 			{0x85u, 0x02u},
1086:.\Generated_Source\PSoC5/cyfitter_cfg.c **** 			{0x86u, 0x01u},
1087:.\Generated_Source\PSoC5/cyfitter_cfg.c **** 			{0x87u, 0x01u},
1088:.\Generated_Source\PSoC5/cyfitter_cfg.c **** 			{0x89u, 0x01u},
1089:.\Generated_Source\PSoC5/cyfitter_cfg.c **** 			{0x8Au, 0x01u},
1090:.\Generated_Source\PSoC5/cyfitter_cfg.c **** 			{0x8Bu, 0x0Au},
1091:.\Generated_Source\PSoC5/cyfitter_cfg.c **** 			{0x8Du, 0x01u},
1092:.\Generated_Source\PSoC5/cyfitter_cfg.c **** 			{0x8Fu, 0x04u},
1093:.\Generated_Source\PSoC5/cyfitter_cfg.c **** 			{0x91u, 0x10u},
1094:.\Generated_Source\PSoC5/cyfitter_cfg.c **** 			{0x96u, 0x01u},
1095:.\Generated_Source\PSoC5/cyfitter_cfg.c **** 			{0x9Au, 0x01u},
1096:.\Generated_Source\PSoC5/cyfitter_cfg.c **** 			{0x9Bu, 0x03u},
1097:.\Generated_Source\PSoC5/cyfitter_cfg.c **** 			{0xA4u, 0x01u},
1098:.\Generated_Source\PSoC5/cyfitter_cfg.c **** 			{0xA7u, 0x03u},
1099:.\Generated_Source\PSoC5/cyfitter_cfg.c **** 			{0xABu, 0x03u},
1100:.\Generated_Source\PSoC5/cyfitter_cfg.c **** 			{0xADu, 0x10u},
1101:.\Generated_Source\PSoC5/cyfitter_cfg.c **** 			{0xB1u, 0x07u},
1102:.\Generated_Source\PSoC5/cyfitter_cfg.c **** 			{0xB3u, 0x10u},
1103:.\Generated_Source\PSoC5/cyfitter_cfg.c **** 			{0xB4u, 0x01u},
1104:.\Generated_Source\PSoC5/cyfitter_cfg.c **** 			{0xB5u, 0x08u},
1105:.\Generated_Source\PSoC5/cyfitter_cfg.c **** 			{0xB9u, 0x08u},
1106:.\Generated_Source\PSoC5/cyfitter_cfg.c **** 			{0xBBu, 0x02u},
1107:.\Generated_Source\PSoC5/cyfitter_cfg.c **** 			{0xBEu, 0x10u},
1108:.\Generated_Source\PSoC5/cyfitter_cfg.c **** 			{0xBFu, 0x04u},
1109:.\Generated_Source\PSoC5/cyfitter_cfg.c **** 			{0xD4u, 0x01u},
1110:.\Generated_Source\PSoC5/cyfitter_cfg.c **** 			{0xD6u, 0x04u},
ARM GAS  C:\Users\Colin\AppData\Local\Temp\ccyjTXTG.s 			page 31


1111:.\Generated_Source\PSoC5/cyfitter_cfg.c **** 			{0xD8u, 0x04u},
1112:.\Generated_Source\PSoC5/cyfitter_cfg.c **** 			{0xD9u, 0x04u},
1113:.\Generated_Source\PSoC5/cyfitter_cfg.c **** 			{0xDBu, 0x04u},
1114:.\Generated_Source\PSoC5/cyfitter_cfg.c **** 			{0xDDu, 0x90u},
1115:.\Generated_Source\PSoC5/cyfitter_cfg.c **** 			{0xDFu, 0x01u},
1116:.\Generated_Source\PSoC5/cyfitter_cfg.c **** 			{0x00u, 0x18u},
1117:.\Generated_Source\PSoC5/cyfitter_cfg.c **** 			{0x01u, 0x40u},
1118:.\Generated_Source\PSoC5/cyfitter_cfg.c **** 			{0x03u, 0x02u},
1119:.\Generated_Source\PSoC5/cyfitter_cfg.c **** 			{0x04u, 0x10u},
1120:.\Generated_Source\PSoC5/cyfitter_cfg.c **** 			{0x05u, 0x10u},
1121:.\Generated_Source\PSoC5/cyfitter_cfg.c **** 			{0x08u, 0x10u},
1122:.\Generated_Source\PSoC5/cyfitter_cfg.c **** 			{0x0Au, 0x30u},
1123:.\Generated_Source\PSoC5/cyfitter_cfg.c **** 			{0x0Cu, 0x01u},
1124:.\Generated_Source\PSoC5/cyfitter_cfg.c **** 			{0x0Du, 0x20u},
1125:.\Generated_Source\PSoC5/cyfitter_cfg.c **** 			{0x12u, 0x20u},
1126:.\Generated_Source\PSoC5/cyfitter_cfg.c **** 			{0x14u, 0x40u},
1127:.\Generated_Source\PSoC5/cyfitter_cfg.c **** 			{0x17u, 0x05u},
1128:.\Generated_Source\PSoC5/cyfitter_cfg.c **** 			{0x18u, 0x04u},
1129:.\Generated_Source\PSoC5/cyfitter_cfg.c **** 			{0x1Cu, 0x08u},
1130:.\Generated_Source\PSoC5/cyfitter_cfg.c **** 			{0x1Fu, 0x12u},
1131:.\Generated_Source\PSoC5/cyfitter_cfg.c **** 			{0x21u, 0x05u},
1132:.\Generated_Source\PSoC5/cyfitter_cfg.c **** 			{0x22u, 0x20u},
1133:.\Generated_Source\PSoC5/cyfitter_cfg.c **** 			{0x23u, 0x04u},
1134:.\Generated_Source\PSoC5/cyfitter_cfg.c **** 			{0x25u, 0x74u},
1135:.\Generated_Source\PSoC5/cyfitter_cfg.c **** 			{0x27u, 0x11u},
1136:.\Generated_Source\PSoC5/cyfitter_cfg.c **** 			{0x28u, 0x10u},
1137:.\Generated_Source\PSoC5/cyfitter_cfg.c **** 			{0x29u, 0x14u},
1138:.\Generated_Source\PSoC5/cyfitter_cfg.c **** 			{0x2Au, 0x40u},
1139:.\Generated_Source\PSoC5/cyfitter_cfg.c **** 			{0x2Cu, 0x40u},
1140:.\Generated_Source\PSoC5/cyfitter_cfg.c **** 			{0x2Du, 0x20u},
1141:.\Generated_Source\PSoC5/cyfitter_cfg.c **** 			{0x2Fu, 0x21u},
1142:.\Generated_Source\PSoC5/cyfitter_cfg.c **** 			{0x32u, 0x12u},
1143:.\Generated_Source\PSoC5/cyfitter_cfg.c **** 			{0x35u, 0x01u},
1144:.\Generated_Source\PSoC5/cyfitter_cfg.c **** 			{0x36u, 0x90u},
1145:.\Generated_Source\PSoC5/cyfitter_cfg.c **** 			{0x39u, 0x42u},
1146:.\Generated_Source\PSoC5/cyfitter_cfg.c **** 			{0x3Bu, 0x24u},
1147:.\Generated_Source\PSoC5/cyfitter_cfg.c **** 			{0x3Du, 0x48u},
1148:.\Generated_Source\PSoC5/cyfitter_cfg.c **** 			{0x3Eu, 0x02u},
1149:.\Generated_Source\PSoC5/cyfitter_cfg.c **** 			{0x3Fu, 0x10u},
1150:.\Generated_Source\PSoC5/cyfitter_cfg.c **** 			{0x46u, 0x81u},
1151:.\Generated_Source\PSoC5/cyfitter_cfg.c **** 			{0x47u, 0x40u},
1152:.\Generated_Source\PSoC5/cyfitter_cfg.c **** 			{0x4Cu, 0x04u},
1153:.\Generated_Source\PSoC5/cyfitter_cfg.c **** 			{0x4Du, 0x0Au},
1154:.\Generated_Source\PSoC5/cyfitter_cfg.c **** 			{0x4Fu, 0x10u},
1155:.\Generated_Source\PSoC5/cyfitter_cfg.c **** 			{0x56u, 0x80u},
1156:.\Generated_Source\PSoC5/cyfitter_cfg.c **** 			{0x59u, 0x0Au},
1157:.\Generated_Source\PSoC5/cyfitter_cfg.c **** 			{0x5Au, 0x80u},
1158:.\Generated_Source\PSoC5/cyfitter_cfg.c **** 			{0x5Du, 0x80u},
1159:.\Generated_Source\PSoC5/cyfitter_cfg.c **** 			{0x63u, 0x40u},
1160:.\Generated_Source\PSoC5/cyfitter_cfg.c **** 			{0x67u, 0x02u},
1161:.\Generated_Source\PSoC5/cyfitter_cfg.c **** 			{0x87u, 0x40u},
1162:.\Generated_Source\PSoC5/cyfitter_cfg.c **** 			{0x90u, 0x08u},
1163:.\Generated_Source\PSoC5/cyfitter_cfg.c **** 			{0x91u, 0x20u},
1164:.\Generated_Source\PSoC5/cyfitter_cfg.c **** 			{0x92u, 0x84u},
1165:.\Generated_Source\PSoC5/cyfitter_cfg.c **** 			{0x94u, 0x04u},
1166:.\Generated_Source\PSoC5/cyfitter_cfg.c **** 			{0x95u, 0x08u},
1167:.\Generated_Source\PSoC5/cyfitter_cfg.c **** 			{0x98u, 0x01u},
ARM GAS  C:\Users\Colin\AppData\Local\Temp\ccyjTXTG.s 			page 32


1168:.\Generated_Source\PSoC5/cyfitter_cfg.c **** 			{0x99u, 0xB5u},
1169:.\Generated_Source\PSoC5/cyfitter_cfg.c **** 			{0x9Au, 0x42u},
1170:.\Generated_Source\PSoC5/cyfitter_cfg.c **** 			{0x9Bu, 0x2Cu},
1171:.\Generated_Source\PSoC5/cyfitter_cfg.c **** 			{0x9Eu, 0x81u},
1172:.\Generated_Source\PSoC5/cyfitter_cfg.c **** 			{0x9Fu, 0x10u},
1173:.\Generated_Source\PSoC5/cyfitter_cfg.c **** 			{0xA0u, 0x02u},
1174:.\Generated_Source\PSoC5/cyfitter_cfg.c **** 			{0xA2u, 0x01u},
1175:.\Generated_Source\PSoC5/cyfitter_cfg.c **** 			{0xA3u, 0x20u},
1176:.\Generated_Source\PSoC5/cyfitter_cfg.c **** 			{0xA5u, 0x58u},
1177:.\Generated_Source\PSoC5/cyfitter_cfg.c **** 			{0xA6u, 0x82u},
1178:.\Generated_Source\PSoC5/cyfitter_cfg.c **** 			{0xA7u, 0x02u},
1179:.\Generated_Source\PSoC5/cyfitter_cfg.c **** 			{0xB5u, 0x80u},
1180:.\Generated_Source\PSoC5/cyfitter_cfg.c **** 			{0xC0u, 0x06u},
1181:.\Generated_Source\PSoC5/cyfitter_cfg.c **** 			{0xC2u, 0x56u},
1182:.\Generated_Source\PSoC5/cyfitter_cfg.c **** 			{0xC4u, 0x24u},
1183:.\Generated_Source\PSoC5/cyfitter_cfg.c **** 			{0xCAu, 0xFEu},
1184:.\Generated_Source\PSoC5/cyfitter_cfg.c **** 			{0xCCu, 0xB5u},
1185:.\Generated_Source\PSoC5/cyfitter_cfg.c **** 			{0xCEu, 0xFFu},
1186:.\Generated_Source\PSoC5/cyfitter_cfg.c **** 			{0xD0u, 0x90u},
1187:.\Generated_Source\PSoC5/cyfitter_cfg.c **** 			{0xD6u, 0x1Bu},
1188:.\Generated_Source\PSoC5/cyfitter_cfg.c **** 			{0xD8u, 0x11u},
1189:.\Generated_Source\PSoC5/cyfitter_cfg.c **** 			{0xECu, 0x40u},
1190:.\Generated_Source\PSoC5/cyfitter_cfg.c **** 			{0xEEu, 0x04u},
1191:.\Generated_Source\PSoC5/cyfitter_cfg.c **** 			{0xEEu, 0x04u},
1192:.\Generated_Source\PSoC5/cyfitter_cfg.c **** 			{0x01u, 0x04u},
1193:.\Generated_Source\PSoC5/cyfitter_cfg.c **** 			{0x05u, 0x11u},
1194:.\Generated_Source\PSoC5/cyfitter_cfg.c **** 			{0x31u, 0x80u},
1195:.\Generated_Source\PSoC5/cyfitter_cfg.c **** 			{0x33u, 0x02u},
1196:.\Generated_Source\PSoC5/cyfitter_cfg.c **** 			{0x36u, 0x40u},
1197:.\Generated_Source\PSoC5/cyfitter_cfg.c **** 			{0x37u, 0x02u},
1198:.\Generated_Source\PSoC5/cyfitter_cfg.c **** 			{0x38u, 0x10u},
1199:.\Generated_Source\PSoC5/cyfitter_cfg.c **** 			{0x54u, 0x20u},
1200:.\Generated_Source\PSoC5/cyfitter_cfg.c **** 			{0x5Bu, 0x20u},
1201:.\Generated_Source\PSoC5/cyfitter_cfg.c **** 			{0x87u, 0x20u},
1202:.\Generated_Source\PSoC5/cyfitter_cfg.c **** 			{0xC0u, 0xB0u},
1203:.\Generated_Source\PSoC5/cyfitter_cfg.c **** 			{0xCCu, 0xF0u},
1204:.\Generated_Source\PSoC5/cyfitter_cfg.c **** 			{0xCEu, 0x10u},
1205:.\Generated_Source\PSoC5/cyfitter_cfg.c **** 			{0xD4u, 0xC0u},
1206:.\Generated_Source\PSoC5/cyfitter_cfg.c **** 			{0xE2u, 0x40u},
1207:.\Generated_Source\PSoC5/cyfitter_cfg.c **** 			{0x0Du, 0x80u},
1208:.\Generated_Source\PSoC5/cyfitter_cfg.c **** 			{0x0Eu, 0x01u},
1209:.\Generated_Source\PSoC5/cyfitter_cfg.c **** 			{0x33u, 0x80u},
1210:.\Generated_Source\PSoC5/cyfitter_cfg.c **** 			{0x83u, 0x02u},
1211:.\Generated_Source\PSoC5/cyfitter_cfg.c **** 			{0x84u, 0x20u},
1212:.\Generated_Source\PSoC5/cyfitter_cfg.c **** 			{0x94u, 0x10u},
1213:.\Generated_Source\PSoC5/cyfitter_cfg.c **** 			{0x99u, 0x01u},
1214:.\Generated_Source\PSoC5/cyfitter_cfg.c **** 			{0x9Fu, 0x02u},
1215:.\Generated_Source\PSoC5/cyfitter_cfg.c **** 			{0xA4u, 0x20u},
1216:.\Generated_Source\PSoC5/cyfitter_cfg.c **** 			{0xA5u, 0x80u},
1217:.\Generated_Source\PSoC5/cyfitter_cfg.c **** 			{0xA6u, 0x40u},
1218:.\Generated_Source\PSoC5/cyfitter_cfg.c **** 			{0xA7u, 0x02u},
1219:.\Generated_Source\PSoC5/cyfitter_cfg.c **** 			{0xA9u, 0x10u},
1220:.\Generated_Source\PSoC5/cyfitter_cfg.c **** 			{0xADu, 0x04u},
1221:.\Generated_Source\PSoC5/cyfitter_cfg.c **** 			{0xC2u, 0x80u},
1222:.\Generated_Source\PSoC5/cyfitter_cfg.c **** 			{0xCCu, 0x10u},
1223:.\Generated_Source\PSoC5/cyfitter_cfg.c **** 			{0xE2u, 0x60u},
1224:.\Generated_Source\PSoC5/cyfitter_cfg.c **** 			{0xECu, 0x60u},
ARM GAS  C:\Users\Colin\AppData\Local\Temp\ccyjTXTG.s 			page 33


1225:.\Generated_Source\PSoC5/cyfitter_cfg.c **** 			{0x63u, 0x01u},
1226:.\Generated_Source\PSoC5/cyfitter_cfg.c **** 			{0x83u, 0x01u},
1227:.\Generated_Source\PSoC5/cyfitter_cfg.c **** 			{0x94u, 0x10u},
1228:.\Generated_Source\PSoC5/cyfitter_cfg.c **** 			{0x99u, 0x01u},
1229:.\Generated_Source\PSoC5/cyfitter_cfg.c **** 			{0xA6u, 0x40u},
1230:.\Generated_Source\PSoC5/cyfitter_cfg.c **** 			{0xA7u, 0x80u},
1231:.\Generated_Source\PSoC5/cyfitter_cfg.c **** 			{0xABu, 0x02u},
1232:.\Generated_Source\PSoC5/cyfitter_cfg.c **** 			{0xAEu, 0x01u},
1233:.\Generated_Source\PSoC5/cyfitter_cfg.c **** 			{0xD6u, 0x40u},
1234:.\Generated_Source\PSoC5/cyfitter_cfg.c **** 			{0xE2u, 0x80u},
1235:.\Generated_Source\PSoC5/cyfitter_cfg.c **** 			{0xE8u, 0x10u},
1236:.\Generated_Source\PSoC5/cyfitter_cfg.c **** 			{0xEEu, 0x80u},
1237:.\Generated_Source\PSoC5/cyfitter_cfg.c **** 			{0x99u, 0x01u},
1238:.\Generated_Source\PSoC5/cyfitter_cfg.c **** 			{0xA6u, 0x40u},
1239:.\Generated_Source\PSoC5/cyfitter_cfg.c **** 			{0xA7u, 0x80u},
1240:.\Generated_Source\PSoC5/cyfitter_cfg.c **** 			{0xA8u, 0x10u},
1241:.\Generated_Source\PSoC5/cyfitter_cfg.c **** 			{0xEEu, 0x80u},
1242:.\Generated_Source\PSoC5/cyfitter_cfg.c **** 			{0x9Cu, 0x02u},
1243:.\Generated_Source\PSoC5/cyfitter_cfg.c **** 			{0xA8u, 0x02u},
1244:.\Generated_Source\PSoC5/cyfitter_cfg.c **** 			{0x08u, 0x02u},
1245:.\Generated_Source\PSoC5/cyfitter_cfg.c **** 			{0x0Bu, 0x02u},
1246:.\Generated_Source\PSoC5/cyfitter_cfg.c **** 			{0x0Fu, 0x20u},
1247:.\Generated_Source\PSoC5/cyfitter_cfg.c **** 			{0x9Cu, 0x02u},
1248:.\Generated_Source\PSoC5/cyfitter_cfg.c **** 			{0xA7u, 0x10u},
1249:.\Generated_Source\PSoC5/cyfitter_cfg.c **** 			{0xABu, 0x10u},
1250:.\Generated_Source\PSoC5/cyfitter_cfg.c **** 			{0xC2u, 0x0Eu},
1251:.\Generated_Source\PSoC5/cyfitter_cfg.c **** 			{0x86u, 0x40u},
1252:.\Generated_Source\PSoC5/cyfitter_cfg.c **** 			{0xA6u, 0x40u},
1253:.\Generated_Source\PSoC5/cyfitter_cfg.c **** 			{0xABu, 0x80u},
1254:.\Generated_Source\PSoC5/cyfitter_cfg.c **** 			{0xB5u, 0x01u},
1255:.\Generated_Source\PSoC5/cyfitter_cfg.c **** 			{0xE6u, 0x40u},
1256:.\Generated_Source\PSoC5/cyfitter_cfg.c **** 			{0xEEu, 0x20u},
1257:.\Generated_Source\PSoC5/cyfitter_cfg.c **** 			{0xABu, 0x01u},
1258:.\Generated_Source\PSoC5/cyfitter_cfg.c **** 			{0x00u, 0x01u},
1259:.\Generated_Source\PSoC5/cyfitter_cfg.c **** 			{0x01u, 0x01u},
1260:.\Generated_Source\PSoC5/cyfitter_cfg.c **** 			{0x08u, 0x01u},
1261:.\Generated_Source\PSoC5/cyfitter_cfg.c **** 			{0x09u, 0x01u},
1262:.\Generated_Source\PSoC5/cyfitter_cfg.c **** 			{0x0Au, 0x01u},
1263:.\Generated_Source\PSoC5/cyfitter_cfg.c **** 			{0x10u, 0x01u},
1264:.\Generated_Source\PSoC5/cyfitter_cfg.c **** 			{0x11u, 0x01u},
1265:.\Generated_Source\PSoC5/cyfitter_cfg.c **** 			{0x1Au, 0x01u},
1266:.\Generated_Source\PSoC5/cyfitter_cfg.c **** 			{0x1Bu, 0x01u},
1267:.\Generated_Source\PSoC5/cyfitter_cfg.c **** 			{0x00u, 0xBFu},
1268:.\Generated_Source\PSoC5/cyfitter_cfg.c **** 			{0x01u, 0x0Au},
1269:.\Generated_Source\PSoC5/cyfitter_cfg.c **** 		};
1270:.\Generated_Source\PSoC5/cyfitter_cfg.c **** 
1271:.\Generated_Source\PSoC5/cyfitter_cfg.c **** 
1272:.\Generated_Source\PSoC5/cyfitter_cfg.c **** 
1273:.\Generated_Source\PSoC5/cyfitter_cfg.c **** 		CYPACKED typedef struct {
1274:.\Generated_Source\PSoC5/cyfitter_cfg.c **** 			void CYFAR *address;
1275:.\Generated_Source\PSoC5/cyfitter_cfg.c **** 			uint16 size;
1276:.\Generated_Source\PSoC5/cyfitter_cfg.c **** 		} CYPACKED_ATTR cfg_memset_t;
1277:.\Generated_Source\PSoC5/cyfitter_cfg.c **** 
1278:.\Generated_Source\PSoC5/cyfitter_cfg.c **** 		static const cfg_memset_t CYCODE cfg_memset_list [] = {
1279:.\Generated_Source\PSoC5/cyfitter_cfg.c **** 			/* address, size */
1280:.\Generated_Source\PSoC5/cyfitter_cfg.c **** 			{(void CYFAR *)(CYREG_TMR0_CFG0), 12u},
1281:.\Generated_Source\PSoC5/cyfitter_cfg.c **** 			{(void CYFAR *)(CYREG_PRT5_DR), 32u},
ARM GAS  C:\Users\Colin\AppData\Local\Temp\ccyjTXTG.s 			page 34


1282:.\Generated_Source\PSoC5/cyfitter_cfg.c **** 			{(void CYFAR *)(CYREG_PRT12_DR), 16u},
1283:.\Generated_Source\PSoC5/cyfitter_cfg.c **** 			{(void CYFAR *)(CYDEV_UCFG_B0_P0_U0_BASE), 4096u},
1284:.\Generated_Source\PSoC5/cyfitter_cfg.c **** 			{(void CYFAR *)(CYDEV_UCFG_B1_P2_U0_BASE), 2048u},
1285:.\Generated_Source\PSoC5/cyfitter_cfg.c **** 			{(void CYFAR *)(CYDEV_UCFG_DSI0_BASE), 2560u},
1286:.\Generated_Source\PSoC5/cyfitter_cfg.c **** 			{(void CYFAR *)(CYDEV_UCFG_DSI12_BASE), 512u},
1287:.\Generated_Source\PSoC5/cyfitter_cfg.c **** 			{(void CYFAR *)(CYREG_BCTL0_MDCLK_EN), 32u},
1288:.\Generated_Source\PSoC5/cyfitter_cfg.c **** 		};
1289:.\Generated_Source\PSoC5/cyfitter_cfg.c **** 
1290:.\Generated_Source\PSoC5/cyfitter_cfg.c **** 		uint8 CYDATA i;
1291:.\Generated_Source\PSoC5/cyfitter_cfg.c **** 
1292:.\Generated_Source\PSoC5/cyfitter_cfg.c **** 		/* Zero out critical memory blocks before beginning configuration */
1293:.\Generated_Source\PSoC5/cyfitter_cfg.c **** 		for (i = 0u; i < (sizeof(cfg_memset_list)/sizeof(cfg_memset_list[0])); i++)
 596              		.loc 1 1293 0
 597 0036 4FF00003 		mov	r3, #0
 598 003a FB71     		strb	r3, [r7, #7]
 599 003c 19E0     		b	.L21
 600              	.L22:
 601              	.LBB4:
1294:.\Generated_Source\PSoC5/cyfitter_cfg.c **** 		{
1295:.\Generated_Source\PSoC5/cyfitter_cfg.c **** 			const cfg_memset_t CYCODE * CYDATA ms = &cfg_memset_list[i];
 602              		.loc 1 1295 0 discriminator 2
 603 003e FA79     		ldrb	r2, [r7, #7]	@ zero_extendqisi2
 604 0040 1346     		mov	r3, r2
 605 0042 4FEA4303 		lsl	r3, r3, #1
 606 0046 9B18     		adds	r3, r3, r2
 607 0048 4FEA4303 		lsl	r3, r3, #1
 608 004c 40F20002 		movw	r2, #:lower16:cfg_memset_list.4820
 609 0050 C0F20002 		movt	r2, #:upper16:cfg_memset_list.4820
 610 0054 9B18     		adds	r3, r3, r2
 611 0056 3B60     		str	r3, [r7, #0]
1296:.\Generated_Source\PSoC5/cyfitter_cfg.c **** 			CYMEMZERO(ms->address, (uint32)(ms->size));
 612              		.loc 1 1296 0 discriminator 2
 613 0058 3B68     		ldr	r3, [r7, #0]
 614 005a 1A68     		ldr	r2, [r3, #0]	@ unaligned
 615 005c 3B68     		ldr	r3, [r7, #0]
 616 005e 9B88     		ldrh	r3, [r3, #4]	@ unaligned
 617 0060 9BB2     		uxth	r3, r3
 618 0062 1046     		mov	r0, r2
 619 0064 1946     		mov	r1, r3
 620 0066 FFF7FEFF 		bl	CYMEMZERO
 621              	.LBE4:
1293:.\Generated_Source\PSoC5/cyfitter_cfg.c **** 		for (i = 0u; i < (sizeof(cfg_memset_list)/sizeof(cfg_memset_list[0])); i++)
 622              		.loc 1 1293 0 discriminator 2
 623 006a FB79     		ldrb	r3, [r7, #7]
 624 006c 03F10103 		add	r3, r3, #1
 625 0070 FB71     		strb	r3, [r7, #7]
 626              	.L21:
1293:.\Generated_Source\PSoC5/cyfitter_cfg.c **** 		for (i = 0u; i < (sizeof(cfg_memset_list)/sizeof(cfg_memset_list[0])); i++)
 627              		.loc 1 1293 0 is_stmt 0 discriminator 1
 628 0072 FB79     		ldrb	r3, [r7, #7]	@ zero_extendqisi2
 629 0074 072B     		cmp	r3, #7
 630 0076 E2D9     		bls	.L22
1297:.\Generated_Source\PSoC5/cyfitter_cfg.c **** 		}
1298:.\Generated_Source\PSoC5/cyfitter_cfg.c **** 
1299:.\Generated_Source\PSoC5/cyfitter_cfg.c **** 		cfg_write_bytes32(cy_cfg_addr_table, cy_cfg_data_table);
 631              		.loc 1 1299 0 is_stmt 1
 632 0078 40F20000 		movw	r0, #:lower16:cy_cfg_addr_table.4814
ARM GAS  C:\Users\Colin\AppData\Local\Temp\ccyjTXTG.s 			page 35


 633 007c C0F20000 		movt	r0, #:upper16:cy_cfg_addr_table.4814
 634 0080 40F20001 		movw	r1, #:lower16:cy_cfg_data_table.4815
 635 0084 C0F20001 		movt	r1, #:upper16:cy_cfg_data_table.4815
 636 0088 FFF7FEFF 		bl	cfg_write_bytes32
1300:.\Generated_Source\PSoC5/cyfitter_cfg.c **** 
1301:.\Generated_Source\PSoC5/cyfitter_cfg.c **** 		/* Enable digital routing */
1302:.\Generated_Source\PSoC5/cyfitter_cfg.c **** 		CY_SET_XTND_REG8((void CYFAR *)CYREG_BCTL0_BANK_CTL, CY_GET_XTND_REG8((void CYFAR *)CYREG_BCTL0_B
 637              		.loc 1 1302 0
 638 008c 45F20303 		movw	r3, #20483
 639 0090 C4F20103 		movt	r3, 16385
 640 0094 45F20302 		movw	r2, #20483
 641 0098 C4F20102 		movt	r2, 16385
 642 009c 1278     		ldrb	r2, [r2, #0]
 643 009e D2B2     		uxtb	r2, r2
 644 00a0 42F00202 		orr	r2, r2, #2
 645 00a4 D2B2     		uxtb	r2, r2
 646 00a6 1A70     		strb	r2, [r3, #0]
1303:.\Generated_Source\PSoC5/cyfitter_cfg.c **** 		CY_SET_XTND_REG8((void CYFAR *)CYREG_BCTL1_BANK_CTL, CY_GET_XTND_REG8((void CYFAR *)CYREG_BCTL1_B
 647              		.loc 1 1303 0
 648 00a8 45F21303 		movw	r3, #20499
 649 00ac C4F20103 		movt	r3, 16385
 650 00b0 45F21302 		movw	r2, #20499
 651 00b4 C4F20102 		movt	r2, 16385
 652 00b8 1278     		ldrb	r2, [r2, #0]
 653 00ba D2B2     		uxtb	r2, r2
 654 00bc 42F00202 		orr	r2, r2, #2
 655 00c0 D2B2     		uxtb	r2, r2
 656 00c2 1A70     		strb	r2, [r3, #0]
1304:.\Generated_Source\PSoC5/cyfitter_cfg.c **** 
1305:.\Generated_Source\PSoC5/cyfitter_cfg.c **** 		/* Enable UDB array */
1306:.\Generated_Source\PSoC5/cyfitter_cfg.c **** 		CY_SET_XTND_REG8((void CYFAR *)CYREG_PM_ACT_CFG0, CY_GET_XTND_REG8((void CYFAR *)CYREG_PM_ACT_CFG
 657              		.loc 1 1306 0
 658 00c4 44F2A033 		movw	r3, #17312
 659 00c8 C4F20003 		movt	r3, 16384
 660 00cc 44F2A032 		movw	r2, #17312
 661 00d0 C4F20002 		movt	r2, 16384
 662 00d4 1278     		ldrb	r2, [r2, #0]
 663 00d6 D2B2     		uxtb	r2, r2
 664 00d8 42F04002 		orr	r2, r2, #64
 665 00dc D2B2     		uxtb	r2, r2
 666 00de 1A70     		strb	r2, [r3, #0]
1307:.\Generated_Source\PSoC5/cyfitter_cfg.c **** 		CY_SET_XTND_REG8((void CYFAR *)CYREG_PM_AVAIL_CR2, CY_GET_XTND_REG8((void CYFAR *)CYREG_PM_AVAIL_
 667              		.loc 1 1307 0
 668 00e0 44F2C233 		movw	r3, #17346
 669 00e4 C4F20003 		movt	r3, 16384
 670 00e8 44F2C232 		movw	r2, #17346
 671 00ec C4F20002 		movt	r2, 16384
 672 00f0 1278     		ldrb	r2, [r2, #0]
 673 00f2 D2B2     		uxtb	r2, r2
 674 00f4 42F01002 		orr	r2, r2, #16
 675 00f8 D2B2     		uxtb	r2, r2
 676 00fa 1A70     		strb	r2, [r3, #0]
 677              	.LBE3:
1308:.\Generated_Source\PSoC5/cyfitter_cfg.c **** 	}
1309:.\Generated_Source\PSoC5/cyfitter_cfg.c **** 
1310:.\Generated_Source\PSoC5/cyfitter_cfg.c **** 	/* Perform second pass device configuration. These items must be configured in specific order afte
1311:.\Generated_Source\PSoC5/cyfitter_cfg.c **** 	CYCONFIGCPYCODE((void CYFAR *)(CYREG_PRT0_DR), (const void CYCODE *)(BS_IOPINS0_0_VAL), 10u);
ARM GAS  C:\Users\Colin\AppData\Local\Temp\ccyjTXTG.s 			page 36


 678              		.loc 1 1311 0
 679 00fc 4FF4A240 		mov	r0, #20736
 680 0100 C4F20000 		movt	r0, 16384
 681 0104 40F20001 		movw	r1, #:lower16:BS_IOPINS0_0_VAL.4808
 682 0108 C0F20001 		movt	r1, #:upper16:BS_IOPINS0_0_VAL.4808
 683 010c 4FF00A02 		mov	r2, #10
 684 0110 FFF7FEFF 		bl	CYCONFIGCPYCODE
1312:.\Generated_Source\PSoC5/cyfitter_cfg.c **** 	CYCONFIGCPYCODE((void CYFAR *)(CYREG_PRT15_DR), (const void CYCODE *)(BS_IOPINS0_8_VAL), 10u);
 685              		.loc 1 1312 0
 686 0114 45F2F010 		movw	r0, #20976
 687 0118 C4F20000 		movt	r0, 16384
 688 011c 40F20001 		movw	r1, #:lower16:BS_IOPINS0_8_VAL.4809
 689 0120 C0F20001 		movt	r1, #:upper16:BS_IOPINS0_8_VAL.4809
 690 0124 4FF00A02 		mov	r2, #10
 691 0128 FFF7FEFF 		bl	CYCONFIGCPYCODE
1313:.\Generated_Source\PSoC5/cyfitter_cfg.c **** 	CYCONFIGCPYCODE((void CYFAR *)(CYREG_PRT1_DM0), (const void CYCODE *)(BS_IOPINS0_1_VAL), 8u);
 692              		.loc 1 1313 0
 693 012c 45F21210 		movw	r0, #20754
 694 0130 C4F20000 		movt	r0, 16384
 695 0134 40F20001 		movw	r1, #:lower16:BS_IOPINS0_1_VAL.4810
 696 0138 C0F20001 		movt	r1, #:upper16:BS_IOPINS0_1_VAL.4810
 697 013c 4FF00802 		mov	r2, #8
 698 0140 FFF7FEFF 		bl	CYCONFIGCPYCODE
1314:.\Generated_Source\PSoC5/cyfitter_cfg.c **** 	CYCONFIGCPYCODE((void CYFAR *)(CYREG_PRT2_DM0), (const void CYCODE *)(BS_IOPINS0_2_VAL), 8u);
 699              		.loc 1 1314 0
 700 0144 45F22210 		movw	r0, #20770
 701 0148 C4F20000 		movt	r0, 16384
 702 014c 40F20001 		movw	r1, #:lower16:BS_IOPINS0_2_VAL.4811
 703 0150 C0F20001 		movt	r1, #:upper16:BS_IOPINS0_2_VAL.4811
 704 0154 4FF00802 		mov	r2, #8
 705 0158 FFF7FEFF 		bl	CYCONFIGCPYCODE
1315:.\Generated_Source\PSoC5/cyfitter_cfg.c **** 	CYCONFIGCPYCODE((void CYFAR *)(CYREG_PRT3_DM0), (const void CYCODE *)(BS_IOPINS0_3_VAL), 8u);
 706              		.loc 1 1315 0
 707 015c 45F23210 		movw	r0, #20786
 708 0160 C4F20000 		movt	r0, 16384
 709 0164 40F20001 		movw	r1, #:lower16:BS_IOPINS0_3_VAL.4812
 710 0168 C0F20001 		movt	r1, #:upper16:BS_IOPINS0_3_VAL.4812
 711 016c 4FF00802 		mov	r2, #8
 712 0170 FFF7FEFF 		bl	CYCONFIGCPYCODE
1316:.\Generated_Source\PSoC5/cyfitter_cfg.c **** 	CYCONFIGCPYCODE((void CYFAR *)(CYREG_PRT4_DR), (const void CYCODE *)(BS_IOPINS0_4_VAL), 10u);
 713              		.loc 1 1316 0
 714 0174 45F24010 		movw	r0, #20800
 715 0178 C4F20000 		movt	r0, 16384
 716 017c 40F20001 		movw	r1, #:lower16:BS_IOPINS0_4_VAL.4813
 717 0180 C0F20001 		movt	r1, #:upper16:BS_IOPINS0_4_VAL.4813
 718 0184 4FF00A02 		mov	r2, #10
 719 0188 FFF7FEFF 		bl	CYCONFIGCPYCODE
1317:.\Generated_Source\PSoC5/cyfitter_cfg.c **** 
1318:.\Generated_Source\PSoC5/cyfitter_cfg.c **** 	/* Switch Boost to the precision bandgap reference from its internal reference */
1319:.\Generated_Source\PSoC5/cyfitter_cfg.c **** 	CY_SET_REG8((void CYXDATA *)CYREG_BOOST_CR2, (CY_GET_REG8((void CYXDATA *)CYREG_BOOST_CR2) | 0x08u
 720              		.loc 1 1319 0
 721 018c 44F22233 		movw	r3, #17186
 722 0190 C4F20003 		movt	r3, 16384
 723 0194 44F22232 		movw	r2, #17186
 724 0198 C4F20002 		movt	r2, 16384
 725 019c 1278     		ldrb	r2, [r2, #0]
 726 019e D2B2     		uxtb	r2, r2
ARM GAS  C:\Users\Colin\AppData\Local\Temp\ccyjTXTG.s 			page 37


 727 01a0 42F00802 		orr	r2, r2, #8
 728 01a4 D2B2     		uxtb	r2, r2
 729 01a6 1A70     		strb	r2, [r3, #0]
1320:.\Generated_Source\PSoC5/cyfitter_cfg.c **** 
1321:.\Generated_Source\PSoC5/cyfitter_cfg.c **** 	/* Perform basic analog initialization to defaults */
1322:.\Generated_Source\PSoC5/cyfitter_cfg.c **** 	AnalogSetDefault();
 730              		.loc 1 1322 0
 731 01a8 FFF7FEFF 		bl	AnalogSetDefault
1323:.\Generated_Source\PSoC5/cyfitter_cfg.c **** 
1324:.\Generated_Source\PSoC5/cyfitter_cfg.c **** 	/* Configure alternate active mode */
1325:.\Generated_Source\PSoC5/cyfitter_cfg.c **** 	CYCONFIGCPY((void CYFAR *)CYDEV_PM_STBY_BASE, (const void CYFAR *)CYDEV_PM_ACT_BASE, 14u);
 732              		.loc 1 1325 0
 733 01ac 44F2B030 		movw	r0, #17328
 734 01b0 C4F20000 		movt	r0, 16384
 735 01b4 44F2A031 		movw	r1, #17312
 736 01b8 C4F20001 		movt	r1, 16384
 737 01bc 4FF00E02 		mov	r2, #14
 738 01c0 FFF7FEFF 		bl	CYCONFIGCPY
1326:.\Generated_Source\PSoC5/cyfitter_cfg.c **** }
 739              		.loc 1 1326 0
 740 01c4 07F10807 		add	r7, r7, #8
 741 01c8 BD46     		mov	sp, r7
 742 01ca 80BD     		pop	{r7, pc}
 743              		.cfi_endproc
 744              	.LFE8:
 745              		.size	cyfitter_cfg, .-cyfitter_cfg
 746              		.section	.rodata
 747              		.align	2
 748              		.type	cfg_memset_list.4820, %object
 749              		.size	cfg_memset_list.4820, 48
 750              	cfg_memset_list.4820:
 751 0000 004F0040 		.word	1073762048
 752 0004 0C00     		.short	12
 753 0006 50510040 		.4byte	1073762640
 754 000a 2000     		.short	32
 755 000c C0510040 		.word	1073762752
 756 0010 1000     		.short	16
 757 0012 00000140 		.4byte	1073807360
 758 0016 0010     		.short	4096
 759 0018 00140140 		.word	1073812480
 760 001c 0008     		.short	2048
 761 001e 00400140 		.4byte	1073823744
 762 0022 000A     		.short	2560
 763 0024 004C0140 		.word	1073826816
 764 0028 0002     		.short	512
 765 002a 00500140 		.4byte	1073827840
 766 002e 2000     		.short	32
 767              		.align	2
 768              		.type	cy_cfg_addr_table.4814, %object
 769              		.size	cy_cfg_addr_table.4814, 120
 770              	cy_cfg_addr_table.4814:
 771 0030 01450040 		.word	1073759489
 772 0034 024F0040 		.word	1073762050
 773 0038 03520040 		.word	1073762819
 774 003c 03640040 		.word	1073767427
 775 0040 01650040 		.word	1073767681
 776 0044 52000140 		.word	1073807442
ARM GAS  C:\Users\Colin\AppData\Local\Temp\ccyjTXTG.s 			page 38


 777 0048 35010140 		.word	1073807669
 778 004c 4F020140 		.word	1073807951
 779 0050 45030140 		.word	1073808197
 780 0054 55040140 		.word	1073808469
 781 0058 48050140 		.word	1073808712
 782 005c 12070140 		.word	1073809170
 783 0060 01090140 		.word	1073809665
 784 0064 040A0140 		.word	1073809924
 785 0068 030B0140 		.word	1073810179
 786 006c 63140140 		.word	1073812579
 787 0070 43150140 		.word	1073812803
 788 0074 55160140 		.word	1073813077
 789 0078 4B170140 		.word	1073813323
 790 007c 01190140 		.word	1073813761
 791 0080 0F400140 		.word	1073823759
 792 0084 12410140 		.word	1073824018
 793 0088 0C420140 		.word	1073824268
 794 008c 05430140 		.word	1073824517
 795 0090 02460140 		.word	1073825282
 796 0094 07470140 		.word	1073825543
 797 0098 06480140 		.word	1073825798
 798 009c 014C0140 		.word	1073826817
 799 00a0 09500140 		.word	1073827849
 800 00a4 02510140 		.word	1073828098
 801              		.align	2
 802              		.type	cy_cfg_data_table.4815, %object
 803              		.size	cy_cfg_data_table.4815, 1760
 804              	cy_cfg_data_table.4815:
 805 00a8 7E       		.byte	126
 806 00a9 02       		.byte	2
 807 00aa 01       		.byte	1
 808 00ab 80       		.byte	-128
 809 00ac 0A       		.byte	10
 810 00ad 4B       		.byte	75
 811 00ae 20       		.byte	32
 812 00af 01       		.byte	1
 813 00b0 21       		.byte	33
 814 00b1 02       		.byte	2
 815 00b2 7C       		.byte	124
 816 00b3 40       		.byte	64
 817 00b4 22       		.byte	34
 818 00b5 04       		.byte	4
 819 00b6 24       		.byte	36
 820 00b7 0F       		.byte	15
 821 00b8 34       		.byte	52
 822 00b9 08       		.byte	8
 823 00ba 87       		.byte	-121
 824 00bb 0D       		.byte	13
 825 00bc 01       		.byte	1
 826 00bd 03       		.byte	3
 827 00be 04       		.byte	4
 828 00bf 20       		.byte	32
 829 00c0 05       		.byte	5
 830 00c1 08       		.byte	8
 831 00c2 07       		.byte	7
 832 00c3 14       		.byte	20
 833 00c4 08       		.byte	8
ARM GAS  C:\Users\Colin\AppData\Local\Temp\ccyjTXTG.s 			page 39


 834 00c5 40       		.byte	64
 835 00c6 0A       		.byte	10
 836 00c7 01       		.byte	1
 837 00c8 0B       		.byte	11
 838 00c9 01       		.byte	1
 839 00ca 0C       		.byte	12
 840 00cb 20       		.byte	32
 841 00cc 0E       		.byte	14
 842 00cd 03       		.byte	3
 843 00ce 11       		.byte	17
 844 00cf 07       		.byte	7
 845 00d0 12       		.byte	18
 846 00d1 10       		.byte	16
 847 00d2 13       		.byte	19
 848 00d3 20       		.byte	32
 849 00d4 16       		.byte	22
 850 00d5 08       		.byte	8
 851 00d6 18       		.byte	24
 852 00d7 20       		.byte	32
 853 00d8 19       		.byte	25
 854 00d9 18       		.byte	24
 855 00da 1B       		.byte	27
 856 00db 06       		.byte	6
 857 00dc 1C       		.byte	28
 858 00dd 20       		.byte	32
 859 00de 1D       		.byte	29
 860 00df 04       		.byte	4
 861 00e0 1E       		.byte	30
 862 00e1 01       		.byte	1
 863 00e2 1F       		.byte	31
 864 00e3 38       		.byte	56
 865 00e4 20       		.byte	32
 866 00e5 20       		.byte	32
 867 00e6 21       		.byte	33
 868 00e7 0C       		.byte	12
 869 00e8 22       		.byte	34
 870 00e9 01       		.byte	1
 871 00ea 23       		.byte	35
 872 00eb 12       		.byte	18
 873 00ec 29       		.byte	41
 874 00ed 1E       		.byte	30
 875 00ee 2A       		.byte	42
 876 00ef 04       		.byte	4
 877 00f0 2D       		.byte	45
 878 00f1 1E       		.byte	30
 879 00f2 2E       		.byte	46
 880 00f3 02       		.byte	2
 881 00f4 30       		.byte	48
 882 00f5 07       		.byte	7
 883 00f6 34       		.byte	52
 884 00f7 08       		.byte	8
 885 00f8 35       		.byte	53
 886 00f9 03       		.byte	3
 887 00fa 36       		.byte	54
 888 00fb 70       		.byte	112
 889 00fc 37       		.byte	55
 890 00fd 3C       		.byte	60
ARM GAS  C:\Users\Colin\AppData\Local\Temp\ccyjTXTG.s 			page 40


 891 00fe 38       		.byte	56
 892 00ff 80       		.byte	-128
 893 0100 3A       		.byte	58
 894 0101 02       		.byte	2
 895 0102 3B       		.byte	59
 896 0103 80       		.byte	-128
 897 0104 3E       		.byte	62
 898 0105 40       		.byte	64
 899 0106 58       		.byte	88
 900 0107 04       		.byte	4
 901 0108 59       		.byte	89
 902 0109 04       		.byte	4
 903 010a 5F       		.byte	95
 904 010b 01       		.byte	1
 905 010c 80       		.byte	-128
 906 010d 0A       		.byte	10
 907 010e 81       		.byte	-127
 908 010f 01       		.byte	1
 909 0110 82       		.byte	-126
 910 0111 10       		.byte	16
 911 0112 83       		.byte	-125
 912 0113 04       		.byte	4
 913 0114 84       		.byte	-124
 914 0115 02       		.byte	2
 915 0116 85       		.byte	-123
 916 0117 01       		.byte	1
 917 0118 86       		.byte	-122
 918 0119 18       		.byte	24
 919 011a 87       		.byte	-121
 920 011b 02       		.byte	2
 921 011c 88       		.byte	-120
 922 011d 04       		.byte	4
 923 011e 89       		.byte	-119
 924 011f 05       		.byte	5
 925 0120 8B       		.byte	-117
 926 0121 0A       		.byte	10
 927 0122 90       		.byte	-112
 928 0123 1F       		.byte	31
 929 0124 93       		.byte	-109
 930 0125 02       		.byte	2
 931 0126 94       		.byte	-108
 932 0127 01       		.byte	1
 933 0128 98       		.byte	-104
 934 0129 01       		.byte	1
 935 012a 9A       		.byte	-102
 936 012b 1E       		.byte	30
 937 012c 9B       		.byte	-101
 938 012d 10       		.byte	16
 939 012e 9C       		.byte	-100
 940 012f 02       		.byte	2
 941 0130 A0       		.byte	-96
 942 0131 18       		.byte	24
 943 0132 A1       		.byte	-95
 944 0133 06       		.byte	6
 945 0134 A2       		.byte	-94
 946 0135 06       		.byte	6
 947 0136 A4       		.byte	-92
ARM GAS  C:\Users\Colin\AppData\Local\Temp\ccyjTXTG.s 			page 41


 948 0137 1C       		.byte	28
 949 0138 A5       		.byte	-91
 950 0139 01       		.byte	1
 951 013a A6       		.byte	-90
 952 013b 02       		.byte	2
 953 013c A7       		.byte	-89
 954 013d 02       		.byte	2
 955 013e A8       		.byte	-88
 956 013f 12       		.byte	18
 957 0140 A9       		.byte	-87
 958 0141 28       		.byte	40
 959 0142 AA       		.byte	-86
 960 0143 08       		.byte	8
 961 0144 AB       		.byte	-85
 962 0145 05       		.byte	5
 963 0146 AC       		.byte	-84
 964 0147 06       		.byte	6
 965 0148 AD       		.byte	-83
 966 0149 2F       		.byte	47
 967 014a B2       		.byte	-78
 968 014b 1F       		.byte	31
 969 014c B3       		.byte	-77
 970 014d 20       		.byte	32
 971 014e B5       		.byte	-75
 972 014f 1F       		.byte	31
 973 0150 B8       		.byte	-72
 974 0151 08       		.byte	8
 975 0152 B9       		.byte	-71
 976 0153 08       		.byte	8
 977 0154 D6       		.byte	-42
 978 0155 08       		.byte	8
 979 0156 D8       		.byte	-40
 980 0157 04       		.byte	4
 981 0158 D9       		.byte	-39
 982 0159 04       		.byte	4
 983 015a DB       		.byte	-37
 984 015b 04       		.byte	4
 985 015c DD       		.byte	-35
 986 015d 90       		.byte	-112
 987 015e DF       		.byte	-33
 988 015f 01       		.byte	1
 989 0160 01       		.byte	1
 990 0161 20       		.byte	32
 991 0162 03       		.byte	3
 992 0163 32       		.byte	50
 993 0164 04       		.byte	4
 994 0165 28       		.byte	40
 995 0166 05       		.byte	5
 996 0167 01       		.byte	1
 997 0168 08       		.byte	8
 998 0169 40       		.byte	64
 999 016a 09       		.byte	9
 1000 016b 51       		.byte	81
 1001 016c 0A       		.byte	10
 1002 016d 10       		.byte	16
 1003 016e 0C       		.byte	12
 1004 016f 82       		.byte	-126
ARM GAS  C:\Users\Colin\AppData\Local\Temp\ccyjTXTG.s 			page 42


 1005 0170 0D       		.byte	13
 1006 0171 08       		.byte	8
 1007 0172 0E       		.byte	14
 1008 0173 48       		.byte	72
 1009 0174 10       		.byte	16
 1010 0175 02       		.byte	2
 1011 0176 11       		.byte	17
 1012 0177 01       		.byte	1
 1013 0178 12       		.byte	18
 1014 0179 C8       		.byte	-56
 1015 017a 16       		.byte	22
 1016 017b 50       		.byte	80
 1017 017c 17       		.byte	23
 1018 017d 50       		.byte	80
 1019 017e 18       		.byte	24
 1020 017f 02       		.byte	2
 1021 0180 19       		.byte	25
 1022 0181 11       		.byte	17
 1023 0182 1B       		.byte	27
 1024 0183 02       		.byte	2
 1025 0184 1D       		.byte	29
 1026 0185 08       		.byte	8
 1027 0186 21       		.byte	33
 1028 0187 50       		.byte	80
 1029 0188 22       		.byte	34
 1030 0189 40       		.byte	64
 1031 018a 24       		.byte	36
 1032 018b 08       		.byte	8
 1033 018c 25       		.byte	37
 1034 018d 10       		.byte	16
 1035 018e 26       		.byte	38
 1036 018f 04       		.byte	4
 1037 0190 29       		.byte	41
 1038 0191 01       		.byte	1
 1039 0192 2A       		.byte	42
 1040 0193 50       		.byte	80
 1041 0194 2C       		.byte	44
 1042 0195 40       		.byte	64
 1043 0196 2D       		.byte	45
 1044 0197 20       		.byte	32
 1045 0198 2E       		.byte	46
 1046 0199 40       		.byte	64
 1047 019a 2F       		.byte	47
 1048 019b 20       		.byte	32
 1049 019c 30       		.byte	48
 1050 019d 02       		.byte	2
 1051 019e 32       		.byte	50
 1052 019f 40       		.byte	64
 1053 01a0 33       		.byte	51
 1054 01a1 20       		.byte	32
 1055 01a2 35       		.byte	53
 1056 01a3 01       		.byte	1
 1057 01a4 36       		.byte	54
 1058 01a5 10       		.byte	16
 1059 01a6 38       		.byte	56
 1060 01a7 0A       		.byte	10
 1061 01a8 39       		.byte	57
ARM GAS  C:\Users\Colin\AppData\Local\Temp\ccyjTXTG.s 			page 43


 1062 01a9 20       		.byte	32
 1063 01aa 3B       		.byte	59
 1064 01ab 20       		.byte	32
 1065 01ac 3D       		.byte	61
 1066 01ad 21       		.byte	33
 1067 01ae 3E       		.byte	62
 1068 01af 08       		.byte	8
 1069 01b0 5E       		.byte	94
 1070 01b1 80       		.byte	-128
 1071 01b2 64       		.byte	100
 1072 01b3 02       		.byte	2
 1073 01b4 85       		.byte	-123
 1074 01b5 08       		.byte	8
 1075 01b6 88       		.byte	-120
 1076 01b7 80       		.byte	-128
 1077 01b8 8B       		.byte	-117
 1078 01b9 10       		.byte	16
 1079 01ba C0       		.byte	-64
 1080 01bb 77       		.byte	119
 1081 01bc C2       		.byte	-62
 1082 01bd FF       		.byte	-1
 1083 01be C4       		.byte	-60
 1084 01bf FB       		.byte	-5
 1085 01c0 CA       		.byte	-54
 1086 01c1 FD       		.byte	-3
 1087 01c2 CC       		.byte	-52
 1088 01c3 AD       		.byte	-83
 1089 01c4 CE       		.byte	-50
 1090 01c5 E7       		.byte	-25
 1091 01c6 D6       		.byte	-42
 1092 01c7 10       		.byte	16
 1093 01c8 D8       		.byte	-40
 1094 01c9 10       		.byte	16
 1095 01ca 00       		.byte	0
 1096 01cb 01       		.byte	1
 1097 01cc 01       		.byte	1
 1098 01cd 40       		.byte	64
 1099 01ce 03       		.byte	3
 1100 01cf 1D       		.byte	29
 1101 01d0 05       		.byte	5
 1102 01d1 92       		.byte	-110
 1103 01d2 07       		.byte	7
 1104 01d3 60       		.byte	96
 1105 01d4 09       		.byte	9
 1106 01d5 04       		.byte	4
 1107 01d6 0B       		.byte	11
 1108 01d7 E0       		.byte	-32
 1109 01d8 0D       		.byte	13
 1110 01d9 E2       		.byte	-30
 1111 01da 10       		.byte	16
 1112 01db 01       		.byte	1
 1113 01dc 13       		.byte	19
 1114 01dd 08       		.byte	8
 1115 01de 15       		.byte	21
 1116 01df 01       		.byte	1
 1117 01e0 18       		.byte	24
 1118 01e1 02       		.byte	2
ARM GAS  C:\Users\Colin\AppData\Local\Temp\ccyjTXTG.s 			page 44


 1119 01e2 19       		.byte	25
 1120 01e3 01       		.byte	1
 1121 01e4 1A       		.byte	26
 1122 01e5 04       		.byte	4
 1123 01e6 1D       		.byte	29
 1124 01e7 5D       		.byte	93
 1125 01e8 1E       		.byte	30
 1126 01e9 01       		.byte	1
 1127 01ea 1F       		.byte	31
 1128 01eb A2       		.byte	-94
 1129 01ec 23       		.byte	35
 1130 01ed 02       		.byte	2
 1131 01ee 25       		.byte	37
 1132 01ef 3D       		.byte	61
 1133 01f0 27       		.byte	39
 1134 01f1 C2       		.byte	-62
 1135 01f2 2B       		.byte	43
 1136 01f3 FF       		.byte	-1
 1137 01f4 2C       		.byte	44
 1138 01f5 02       		.byte	2
 1139 01f6 2D       		.byte	45
 1140 01f7 0D       		.byte	13
 1141 01f8 2E       		.byte	46
 1142 01f9 0C       		.byte	12
 1143 01fa 30       		.byte	48
 1144 01fb 06       		.byte	6
 1145 01fc 32       		.byte	50
 1146 01fd 08       		.byte	8
 1147 01fe 33       		.byte	51
 1148 01ff FF       		.byte	-1
 1149 0200 36       		.byte	54
 1150 0201 01       		.byte	1
 1151 0202 3F       		.byte	63
 1152 0203 04       		.byte	4
 1153 0204 40       		.byte	64
 1154 0205 53       		.byte	83
 1155 0206 44       		.byte	68
 1156 0207 02       		.byte	2
 1157 0208 45       		.byte	69
 1158 0209 0B       		.byte	11
 1159 020a 47       		.byte	71
 1160 020b D0       		.byte	-48
 1161 020c 48       		.byte	72
 1162 020d 21       		.byte	33
 1163 020e 49       		.byte	73
 1164 020f FF       		.byte	-1
 1165 0210 4A       		.byte	74
 1166 0211 7F       		.byte	127
 1167 0212 4B       		.byte	75
 1168 0213 FF       		.byte	-1
 1169 0214 4C       		.byte	76
 1170 0215 42       		.byte	66
 1171 0216 4D       		.byte	77
 1172 0217 A0       		.byte	-96
 1173 0218 4E       		.byte	78
 1174 0219 70       		.byte	112
 1175 021a 50       		.byte	80
ARM GAS  C:\Users\Colin\AppData\Local\Temp\ccyjTXTG.s 			page 45


 1176 021b 0C       		.byte	12
 1177 021c 56       		.byte	86
 1178 021d 08       		.byte	8
 1179 021e 58       		.byte	88
 1180 021f 04       		.byte	4
 1181 0220 59       		.byte	89
 1182 0221 04       		.byte	4
 1183 0222 5A       		.byte	90
 1184 0223 04       		.byte	4
 1185 0224 5B       		.byte	91
 1186 0225 04       		.byte	4
 1187 0226 5D       		.byte	93
 1188 0227 90       		.byte	-112
 1189 0228 5F       		.byte	95
 1190 0229 01       		.byte	1
 1191 022a 61       		.byte	97
 1192 022b 09       		.byte	9
 1193 022c 62       		.byte	98
 1194 022d 40       		.byte	64
 1195 022e 63       		.byte	99
 1196 022f 09       		.byte	9
 1197 0230 64       		.byte	100
 1198 0231 30       		.byte	48
 1199 0232 65       		.byte	101
 1200 0233 09       		.byte	9
 1201 0234 81       		.byte	-127
 1202 0235 01       		.byte	1
 1203 0236 83       		.byte	-125
 1204 0237 02       		.byte	2
 1205 0238 85       		.byte	-123
 1206 0239 34       		.byte	52
 1207 023a 87       		.byte	-121
 1208 023b 01       		.byte	1
 1209 023c 89       		.byte	-119
 1210 023d 35       		.byte	53
 1211 023e 8D       		.byte	-115
 1212 023f 01       		.byte	1
 1213 0240 8F       		.byte	-113
 1214 0241 08       		.byte	8
 1215 0242 95       		.byte	-107
 1216 0243 01       		.byte	1
 1217 0244 97       		.byte	-105
 1218 0245 0E       		.byte	14
 1219 0246 99       		.byte	-103
 1220 0247 34       		.byte	52
 1221 0248 9B       		.byte	-101
 1222 0249 01       		.byte	1
 1223 024a 9D       		.byte	-99
 1224 024b 35       		.byte	53
 1225 024c A1       		.byte	-95
 1226 024d 35       		.byte	53
 1227 024e A7       		.byte	-89
 1228 024f 20       		.byte	32
 1229 0250 AD       		.byte	-83
 1230 0251 40       		.byte	64
 1231 0252 B3       		.byte	-77
 1232 0253 0F       		.byte	15
ARM GAS  C:\Users\Colin\AppData\Local\Temp\ccyjTXTG.s 			page 46


 1233 0254 B5       		.byte	-75
 1234 0255 60       		.byte	96
 1235 0256 B7       		.byte	-73
 1236 0257 10       		.byte	16
 1237 0258 B9       		.byte	-71
 1238 0259 A0       		.byte	-96
 1239 025a BB       		.byte	-69
 1240 025b 08       		.byte	8
 1241 025c BF       		.byte	-65
 1242 025d 50       		.byte	80
 1243 025e D4       		.byte	-44
 1244 025f 20       		.byte	32
 1245 0260 D6       		.byte	-42
 1246 0261 04       		.byte	4
 1247 0262 D9       		.byte	-39
 1248 0263 04       		.byte	4
 1249 0264 DB       		.byte	-37
 1250 0265 04       		.byte	4
 1251 0266 DF       		.byte	-33
 1252 0267 01       		.byte	1
 1253 0268 04       		.byte	4
 1254 0269 02       		.byte	2
 1255 026a 0D       		.byte	13
 1256 026b 10       		.byte	16
 1257 026c 0E       		.byte	14
 1258 026d 42       		.byte	66
 1259 026e 14       		.byte	20
 1260 026f 02       		.byte	2
 1261 0270 1D       		.byte	29
 1262 0271 04       		.byte	4
 1263 0272 1E       		.byte	30
 1264 0273 12       		.byte	18
 1265 0274 1F       		.byte	31
 1266 0275 02       		.byte	2
 1267 0276 21       		.byte	33
 1268 0277 20       		.byte	32
 1269 0278 22       		.byte	34
 1270 0279 04       		.byte	4
 1271 027a 23       		.byte	35
 1272 027b 01       		.byte	1
 1273 027c 26       		.byte	38
 1274 027d 08       		.byte	8
 1275 027e 29       		.byte	41
 1276 027f 01       		.byte	1
 1277 0280 2A       		.byte	42
 1278 0281 0A       		.byte	10
 1279 0282 2B       		.byte	43
 1280 0283 02       		.byte	2
 1281 0284 2C       		.byte	44
 1282 0285 A2       		.byte	-94
 1283 0286 2D       		.byte	45
 1284 0287 20       		.byte	32
 1285 0288 32       		.byte	50
 1286 0289 84       		.byte	-124
 1287 028a 33       		.byte	51
 1288 028b 20       		.byte	32
 1289 028c 36       		.byte	54
ARM GAS  C:\Users\Colin\AppData\Local\Temp\ccyjTXTG.s 			page 47


 1290 028d 81       		.byte	-127
 1291 028e 37       		.byte	55
 1292 028f 28       		.byte	40
 1293 0290 38       		.byte	56
 1294 0291 0A       		.byte	10
 1295 0292 3A       		.byte	58
 1296 0293 90       		.byte	-112
 1297 0294 3C       		.byte	60
 1298 0295 08       		.byte	8
 1299 0296 3D       		.byte	61
 1300 0297 10       		.byte	16
 1301 0298 3E       		.byte	62
 1302 0299 C2       		.byte	-62
 1303 029a 45       		.byte	69
 1304 029b 18       		.byte	24
 1305 029c 4C       		.byte	76
 1306 029d 15       		.byte	21
 1307 029e 4D       		.byte	77
 1308 029f 10       		.byte	16
 1309 02a0 54       		.byte	84
 1310 02a1 02       		.byte	2
 1311 02a2 55       		.byte	85
 1312 02a3 01       		.byte	1
 1313 02a4 58       		.byte	88
 1314 02a5 80       		.byte	-128
 1315 02a6 59       		.byte	89
 1316 02a7 02       		.byte	2
 1317 02a8 5B       		.byte	91
 1318 02a9 14       		.byte	20
 1319 02aa 5D       		.byte	93
 1320 02ab 40       		.byte	64
 1321 02ac 5F       		.byte	95
 1322 02ad 10       		.byte	16
 1323 02ae 60       		.byte	96
 1324 02af 04       		.byte	4
 1325 02b0 62       		.byte	98
 1326 02b1 01       		.byte	1
 1327 02b2 63       		.byte	99
 1328 02b3 01       		.byte	1
 1329 02b4 64       		.byte	100
 1330 02b5 01       		.byte	1
 1331 02b6 81       		.byte	-127
 1332 02b7 01       		.byte	1
 1333 02b8 82       		.byte	-126
 1334 02b9 09       		.byte	9
 1335 02ba 85       		.byte	-123
 1336 02bb 10       		.byte	16
 1337 02bc 8E       		.byte	-114
 1338 02bd 01       		.byte	1
 1339 02be 8F       		.byte	-113
 1340 02bf 40       		.byte	64
 1341 02c0 90       		.byte	-112
 1342 02c1 0A       		.byte	10
 1343 02c2 91       		.byte	-111
 1344 02c3 C0       		.byte	-64
 1345 02c4 94       		.byte	-108
 1346 02c5 20       		.byte	32
ARM GAS  C:\Users\Colin\AppData\Local\Temp\ccyjTXTG.s 			page 48


 1347 02c6 96       		.byte	-106
 1348 02c7 50       		.byte	80
 1349 02c8 98       		.byte	-104
 1350 02c9 82       		.byte	-126
 1351 02ca 99       		.byte	-103
 1352 02cb 11       		.byte	17
 1353 02cc 9D       		.byte	-99
 1354 02cd 20       		.byte	32
 1355 02ce 9E       		.byte	-98
 1356 02cf 18       		.byte	24
 1357 02d0 9F       		.byte	-97
 1358 02d1 40       		.byte	64
 1359 02d2 A4       		.byte	-92
 1360 02d3 80       		.byte	-128
 1361 02d4 A5       		.byte	-91
 1362 02d5 41       		.byte	65
 1363 02d6 A6       		.byte	-90
 1364 02d7 98       		.byte	-104
 1365 02d8 A7       		.byte	-89
 1366 02d9 20       		.byte	32
 1367 02da A9       		.byte	-87
 1368 02db 40       		.byte	64
 1369 02dc AE       		.byte	-82
 1370 02dd 40       		.byte	64
 1371 02de C0       		.byte	-64
 1372 02df 10       		.byte	16
 1373 02e0 C2       		.byte	-62
 1374 02e1 D0       		.byte	-48
 1375 02e2 C4       		.byte	-60
 1376 02e3 80       		.byte	-128
 1377 02e4 CA       		.byte	-54
 1378 02e5 FB       		.byte	-5
 1379 02e6 CC       		.byte	-52
 1380 02e7 FE       		.byte	-2
 1381 02e8 CE       		.byte	-50
 1382 02e9 FF       		.byte	-1
 1383 02ea D0       		.byte	-48
 1384 02eb 60       		.byte	96
 1385 02ec D2       		.byte	-46
 1386 02ed 10       		.byte	16
 1387 02ee D6       		.byte	-42
 1388 02ef 3F       		.byte	63
 1389 02f0 D8       		.byte	-40
 1390 02f1 1D       		.byte	29
 1391 02f2 03       		.byte	3
 1392 02f3 01       		.byte	1
 1393 02f4 07       		.byte	7
 1394 02f5 10       		.byte	16
 1395 02f6 09       		.byte	9
 1396 02f7 20       		.byte	32
 1397 02f8 0B       		.byte	11
 1398 02f9 02       		.byte	2
 1399 02fa 0C       		.byte	12
 1400 02fb 01       		.byte	1
 1401 02fc 0F       		.byte	15
 1402 02fd 01       		.byte	1
 1403 02fe 13       		.byte	19
ARM GAS  C:\Users\Colin\AppData\Local\Temp\ccyjTXTG.s 			page 49


 1404 02ff 40       		.byte	64
 1405 0300 17       		.byte	23
 1406 0301 28       		.byte	40
 1407 0302 19       		.byte	25
 1408 0303 1E       		.byte	30
 1409 0304 1D       		.byte	29
 1410 0305 20       		.byte	32
 1411 0306 1F       		.byte	31
 1412 0307 04       		.byte	4
 1413 0308 20       		.byte	32
 1414 0309 01       		.byte	1
 1415 030a 27       		.byte	39
 1416 030b 30       		.byte	48
 1417 030c 29       		.byte	41
 1418 030d 08       		.byte	8
 1419 030e 2B       		.byte	43
 1420 030f 10       		.byte	16
 1421 0310 2C       		.byte	44
 1422 0311 01       		.byte	1
 1423 0312 2D       		.byte	45
 1424 0313 7E       		.byte	126
 1425 0314 34       		.byte	52
 1426 0315 01       		.byte	1
 1427 0316 35       		.byte	53
 1428 0317 7E       		.byte	126
 1429 0318 37       		.byte	55
 1430 0319 01       		.byte	1
 1431 031a 38       		.byte	56
 1432 031b 20       		.byte	32
 1433 031c 39       		.byte	57
 1434 031d 20       		.byte	32
 1435 031e 3F       		.byte	63
 1436 031f 40       		.byte	64
 1437 0320 40       		.byte	64
 1438 0321 32       		.byte	50
 1439 0322 45       		.byte	69
 1440 0323 05       		.byte	5
 1441 0324 46       		.byte	70
 1442 0325 02       		.byte	2
 1443 0326 48       		.byte	72
 1444 0327 05       		.byte	5
 1445 0328 49       		.byte	73
 1446 0329 FF       		.byte	-1
 1447 032a 4A       		.byte	74
 1448 032b FF       		.byte	-1
 1449 032c 4B       		.byte	75
 1450 032d FF       		.byte	-1
 1451 032e 4C       		.byte	76
 1452 032f 42       		.byte	66
 1453 0330 4D       		.byte	77
 1454 0331 A0       		.byte	-96
 1455 0332 4E       		.byte	78
 1456 0333 70       		.byte	112
 1457 0334 50       		.byte	80
 1458 0335 08       		.byte	8
 1459 0336 51       		.byte	81
 1460 0337 10       		.byte	16
ARM GAS  C:\Users\Colin\AppData\Local\Temp\ccyjTXTG.s 			page 50


 1461 0338 58       		.byte	88
 1462 0339 04       		.byte	4
 1463 033a 59       		.byte	89
 1464 033b 04       		.byte	4
 1465 033c 5A       		.byte	90
 1466 033d 04       		.byte	4
 1467 033e 5F       		.byte	95
 1468 033f 01       		.byte	1
 1469 0340 61       		.byte	97
 1470 0341 48       		.byte	72
 1471 0342 62       		.byte	98
 1472 0343 40       		.byte	64
 1473 0344 63       		.byte	99
 1474 0345 48       		.byte	72
 1475 0346 64       		.byte	100
 1476 0347 80       		.byte	-128
 1477 0348 65       		.byte	101
 1478 0349 48       		.byte	72
 1479 034a 66       		.byte	102
 1480 034b 80       		.byte	-128
 1481 034c 67       		.byte	103
 1482 034d 48       		.byte	72
 1483 034e 80       		.byte	-128
 1484 034f 40       		.byte	64
 1485 0350 82       		.byte	-126
 1486 0351 13       		.byte	19
 1487 0352 83       		.byte	-125
 1488 0353 01       		.byte	1
 1489 0354 84       		.byte	-124
 1490 0355 2A       		.byte	42
 1491 0356 85       		.byte	-123
 1492 0357 4D       		.byte	77
 1493 0358 86       		.byte	-122
 1494 0359 54       		.byte	84
 1495 035a 87       		.byte	-121
 1496 035b 92       		.byte	-110
 1497 035c 88       		.byte	-120
 1498 035d 80       		.byte	-128
 1499 035e 89       		.byte	-119
 1500 035f A5       		.byte	-91
 1501 0360 8A       		.byte	-118
 1502 0361 56       		.byte	86
 1503 0362 8B       		.byte	-117
 1504 0363 4A       		.byte	74
 1505 0364 8D       		.byte	-115
 1506 0365 1A       		.byte	26
 1507 0366 8F       		.byte	-113
 1508 0367 60       		.byte	96
 1509 0368 90       		.byte	-112
 1510 0369 FF       		.byte	-1
 1511 036a 91       		.byte	-111
 1512 036b 02       		.byte	2
 1513 036c 95       		.byte	-107
 1514 036d 04       		.byte	4
 1515 036e 98       		.byte	-104
 1516 036f 46       		.byte	70
 1517 0370 9A       		.byte	-102
ARM GAS  C:\Users\Colin\AppData\Local\Temp\ccyjTXTG.s 			page 51


 1518 0371 A9       		.byte	-87
 1519 0372 9B       		.byte	-101
 1520 0373 B5       		.byte	-75
 1521 0374 9D       		.byte	-99
 1522 0375 A9       		.byte	-87
 1523 0376 9F       		.byte	-97
 1524 0377 54       		.byte	84
 1525 0378 A3       		.byte	-93
 1526 0379 04       		.byte	4
 1527 037a A4       		.byte	-92
 1528 037b 0E       		.byte	14
 1529 037c A5       		.byte	-91
 1530 037d CC       		.byte	-52
 1531 037e A6       		.byte	-90
 1532 037f 30       		.byte	48
 1533 0380 A7       		.byte	-89
 1534 0381 13       		.byte	19
 1535 0382 AA       		.byte	-86
 1536 0383 01       		.byte	1
 1537 0384 AB       		.byte	-85
 1538 0385 02       		.byte	2
 1539 0386 AC       		.byte	-84
 1540 0387 33       		.byte	51
 1541 0388 AD       		.byte	-83
 1542 0389 FF       		.byte	-1
 1543 038a AE       		.byte	-82
 1544 038b 0C       		.byte	12
 1545 038c B4       		.byte	-76
 1546 038d FF       		.byte	-1
 1547 038e B5       		.byte	-75
 1548 038f FF       		.byte	-1
 1549 0390 BF       		.byte	-65
 1550 0391 10       		.byte	16
 1551 0392 D2       		.byte	-46
 1552 0393 F6       		.byte	-10
 1553 0394 D8       		.byte	-40
 1554 0395 04       		.byte	4
 1555 0396 D9       		.byte	-39
 1556 0397 04       		.byte	4
 1557 0398 DB       		.byte	-37
 1558 0399 04       		.byte	4
 1559 039a DF       		.byte	-33
 1560 039b 01       		.byte	1
 1561 039c 03       		.byte	3
 1562 039d 02       		.byte	2
 1563 039e 04       		.byte	4
 1564 039f 08       		.byte	8
 1565 03a0 05       		.byte	5
 1566 03a1 21       		.byte	33
 1567 03a2 0E       		.byte	14
 1568 03a3 48       		.byte	72
 1569 03a4 12       		.byte	18
 1570 03a5 42       		.byte	66
 1571 03a6 16       		.byte	22
 1572 03a7 18       		.byte	24
 1573 03a8 17       		.byte	23
 1574 03a9 40       		.byte	64
ARM GAS  C:\Users\Colin\AppData\Local\Temp\ccyjTXTG.s 			page 52


 1575 03aa 19       		.byte	25
 1576 03ab 20       		.byte	32
 1577 03ac 1C       		.byte	28
 1578 03ad 08       		.byte	8
 1579 03ae 1E       		.byte	30
 1580 03af 08       		.byte	8
 1581 03b0 1F       		.byte	31
 1582 03b1 20       		.byte	32
 1583 03b2 21       		.byte	33
 1584 03b3 10       		.byte	16
 1585 03b4 22       		.byte	34
 1586 03b5 40       		.byte	64
 1587 03b6 26       		.byte	38
 1588 03b7 10       		.byte	16
 1589 03b8 29       		.byte	41
 1590 03b9 20       		.byte	32
 1591 03ba 2B       		.byte	43
 1592 03bb 22       		.byte	34
 1593 03bc 2C       		.byte	44
 1594 03bd 80       		.byte	-128
 1595 03be 2E       		.byte	46
 1596 03bf 60       		.byte	96
 1597 03c0 2F       		.byte	47
 1598 03c1 22       		.byte	34
 1599 03c2 32       		.byte	50
 1600 03c3 AA       		.byte	-86
 1601 03c4 35       		.byte	53
 1602 03c5 20       		.byte	32
 1603 03c6 36       		.byte	54
 1604 03c7 81       		.byte	-127
 1605 03c8 37       		.byte	55
 1606 03c9 48       		.byte	72
 1607 03ca 38       		.byte	56
 1608 03cb 08       		.byte	8
 1609 03cc 3A       		.byte	58
 1610 03cd 91       		.byte	-111
 1611 03ce 3C       		.byte	60
 1612 03cf 02       		.byte	2
 1613 03d0 3D       		.byte	61
 1614 03d1 90       		.byte	-112
 1615 03d2 3F       		.byte	63
 1616 03d3 08       		.byte	8
 1617 03d4 41       		.byte	65
 1618 03d5 24       		.byte	36
 1619 03d6 4A       		.byte	74
 1620 03d7 20       		.byte	32
 1621 03d8 52       		.byte	82
 1622 03d9 40       		.byte	64
 1623 03da 6E       		.byte	110
 1624 03db 04       		.byte	4
 1625 03dc 6F       		.byte	111
 1626 03dd 04       		.byte	4
 1627 03de 74       		.byte	116
 1628 03df 81       		.byte	-127
 1629 03e0 76       		.byte	118
 1630 03e1 22       		.byte	34
 1631 03e2 77       		.byte	119
ARM GAS  C:\Users\Colin\AppData\Local\Temp\ccyjTXTG.s 			page 53


 1632 03e3 28       		.byte	40
 1633 03e4 7A       		.byte	122
 1634 03e5 08       		.byte	8
 1635 03e6 7B       		.byte	123
 1636 03e7 04       		.byte	4
 1637 03e8 81       		.byte	-127
 1638 03e9 01       		.byte	1
 1639 03ea 82       		.byte	-126
 1640 03eb 08       		.byte	8
 1641 03ec 90       		.byte	-112
 1642 03ed 08       		.byte	8
 1643 03ee 91       		.byte	-111
 1644 03ef 10       		.byte	16
 1645 03f0 94       		.byte	-108
 1646 03f1 04       		.byte	4
 1647 03f2 95       		.byte	-107
 1648 03f3 20       		.byte	32
 1649 03f4 96       		.byte	-106
 1650 03f5 40       		.byte	64
 1651 03f6 98       		.byte	-104
 1652 03f7 01       		.byte	1
 1653 03f8 99       		.byte	-103
 1654 03f9 15       		.byte	21
 1655 03fa 9A       		.byte	-102
 1656 03fb 18       		.byte	24
 1657 03fc 9D       		.byte	-99
 1658 03fd 20       		.byte	32
 1659 03fe 9F       		.byte	-97
 1660 03ff 38       		.byte	56
 1661 0400 A0       		.byte	-96
 1662 0401 02       		.byte	2
 1663 0402 A1       		.byte	-95
 1664 0403 20       		.byte	32
 1665 0404 A2       		.byte	-94
 1666 0405 01       		.byte	1
 1667 0406 A4       		.byte	-92
 1668 0407 84       		.byte	-124
 1669 0408 A5       		.byte	-91
 1670 0409 58       		.byte	88
 1671 040a A6       		.byte	-90
 1672 040b 90       		.byte	-112
 1673 040c A7       		.byte	-89
 1674 040d 20       		.byte	32
 1675 040e A9       		.byte	-87
 1676 040f 40       		.byte	64
 1677 0410 AB       		.byte	-85
 1678 0411 04       		.byte	4
 1679 0412 AC       		.byte	-84
 1680 0413 20       		.byte	32
 1681 0414 AD       		.byte	-83
 1682 0415 42       		.byte	66
 1683 0416 AE       		.byte	-82
 1684 0417 14       		.byte	20
 1685 0418 AF       		.byte	-81
 1686 0419 10       		.byte	16
 1687 041a C0       		.byte	-64
 1688 041b 71       		.byte	113
ARM GAS  C:\Users\Colin\AppData\Local\Temp\ccyjTXTG.s 			page 54


 1689 041c C2       		.byte	-62
 1690 041d 50       		.byte	80
 1691 041e C4       		.byte	-60
 1692 041f E9       		.byte	-23
 1693 0420 CA       		.byte	-54
 1694 0421 FE       		.byte	-2
 1695 0422 CC       		.byte	-52
 1696 0423 FF       		.byte	-1
 1697 0424 CE       		.byte	-50
 1698 0425 FF       		.byte	-1
 1699 0426 D0       		.byte	-48
 1700 0427 06       		.byte	6
 1701 0428 E2       		.byte	-30
 1702 0429 01       		.byte	1
 1703 042a EE       		.byte	-18
 1704 042b 01       		.byte	1
 1705 042c 90       		.byte	-112
 1706 042d 08       		.byte	8
 1707 042e 91       		.byte	-111
 1708 042f 20       		.byte	32
 1709 0430 92       		.byte	-110
 1710 0431 84       		.byte	-124
 1711 0432 94       		.byte	-108
 1712 0433 04       		.byte	4
 1713 0434 95       		.byte	-107
 1714 0435 08       		.byte	8
 1715 0436 98       		.byte	-104
 1716 0437 01       		.byte	1
 1717 0438 99       		.byte	-103
 1718 0439 35       		.byte	53
 1719 043a 9A       		.byte	-102
 1720 043b 42       		.byte	66
 1721 043c 9B       		.byte	-101
 1722 043d 2C       		.byte	44
 1723 043e 9E       		.byte	-98
 1724 043f 81       		.byte	-127
 1725 0440 9F       		.byte	-97
 1726 0441 10       		.byte	16
 1727 0442 A0       		.byte	-96
 1728 0443 02       		.byte	2
 1729 0444 A2       		.byte	-94
 1730 0445 01       		.byte	1
 1731 0446 A3       		.byte	-93
 1732 0447 20       		.byte	32
 1733 0448 A5       		.byte	-91
 1734 0449 58       		.byte	88
 1735 044a A6       		.byte	-90
 1736 044b 82       		.byte	-126
 1737 044c A7       		.byte	-89
 1738 044d 02       		.byte	2
 1739 044e EE       		.byte	-18
 1740 044f 01       		.byte	1
 1741 0450 EE       		.byte	-18
 1742 0451 01       		.byte	1
 1743 0452 B9       		.byte	-71
 1744 0453 08       		.byte	8
 1745 0454 BF       		.byte	-65
ARM GAS  C:\Users\Colin\AppData\Local\Temp\ccyjTXTG.s 			page 55


 1746 0455 04       		.byte	4
 1747 0456 D9       		.byte	-39
 1748 0457 04       		.byte	4
 1749 0458 DF       		.byte	-33
 1750 0459 01       		.byte	1
 1751 045a 27       		.byte	39
 1752 045b 20       		.byte	32
 1753 045c 83       		.byte	-125
 1754 045d 20       		.byte	32
 1755 045e EE       		.byte	-18
 1756 045f 01       		.byte	1
 1757 0460 07       		.byte	7
 1758 0461 40       		.byte	64
 1759 0462 0A       		.byte	10
 1760 0463 01       		.byte	1
 1761 0464 0B       		.byte	11
 1762 0465 78       		.byte	120
 1763 0466 0D       		.byte	13
 1764 0467 01       		.byte	1
 1765 0468 11       		.byte	17
 1766 0469 02       		.byte	2
 1767 046a 13       		.byte	19
 1768 046b 0C       		.byte	12
 1769 046c 15       		.byte	21
 1770 046d 78       		.byte	120
 1771 046e 1B       		.byte	27
 1772 046f 78       		.byte	120
 1773 0470 1D       		.byte	29
 1774 0471 02       		.byte	2
 1775 0472 1F       		.byte	31
 1776 0473 14       		.byte	20
 1777 0474 23       		.byte	35
 1778 0475 20       		.byte	32
 1779 0476 27       		.byte	39
 1780 0477 40       		.byte	64
 1781 0478 29       		.byte	41
 1782 0479 78       		.byte	120
 1783 047a 2D       		.byte	45
 1784 047b 01       		.byte	1
 1785 047c 31       		.byte	49
 1786 047d 78       		.byte	120
 1787 047e 32       		.byte	50
 1788 047f 01       		.byte	1
 1789 0480 33       		.byte	51
 1790 0481 07       		.byte	7
 1791 0482 39       		.byte	57
 1792 0483 08       		.byte	8
 1793 0484 3F       		.byte	63
 1794 0485 05       		.byte	5
 1795 0486 40       		.byte	64
 1796 0487 54       		.byte	84
 1797 0488 49       		.byte	73
 1798 0489 FF       		.byte	-1
 1799 048a 4A       		.byte	74
 1800 048b FF       		.byte	-1
 1801 048c 4B       		.byte	75
 1802 048d FF       		.byte	-1
ARM GAS  C:\Users\Colin\AppData\Local\Temp\ccyjTXTG.s 			page 56


 1803 048e 4F       		.byte	79
 1804 048f 01       		.byte	1
 1805 0490 50       		.byte	80
 1806 0491 18       		.byte	24
 1807 0492 58       		.byte	88
 1808 0493 04       		.byte	4
 1809 0494 59       		.byte	89
 1810 0495 04       		.byte	4
 1811 0496 5A       		.byte	90
 1812 0497 04       		.byte	4
 1813 0498 5D       		.byte	93
 1814 0499 09       		.byte	9
 1815 049a 5F       		.byte	95
 1816 049b 01       		.byte	1
 1817 049c 60       		.byte	96
 1818 049d 40       		.byte	64
 1819 049e 62       		.byte	98
 1820 049f 40       		.byte	64
 1821 04a0 64       		.byte	100
 1822 04a1 40       		.byte	64
 1823 04a2 65       		.byte	101
 1824 04a3 40       		.byte	64
 1825 04a4 66       		.byte	102
 1826 04a5 80       		.byte	-128
 1827 04a6 68       		.byte	104
 1828 04a7 80       		.byte	-128
 1829 04a8 6A       		.byte	106
 1830 04a9 80       		.byte	-128
 1831 04aa 6C       		.byte	108
 1832 04ab 80       		.byte	-128
 1833 04ac 6E       		.byte	110
 1834 04ad 80       		.byte	-128
 1835 04ae 80       		.byte	-128
 1836 04af 08       		.byte	8
 1837 04b0 81       		.byte	-127
 1838 04b1 02       		.byte	2
 1839 04b2 82       		.byte	-126
 1840 04b3 07       		.byte	7
 1841 04b4 83       		.byte	-125
 1842 04b5 09       		.byte	9
 1843 04b6 84       		.byte	-124
 1844 04b7 22       		.byte	34
 1845 04b8 85       		.byte	-123
 1846 04b9 01       		.byte	1
 1847 04ba 86       		.byte	-122
 1848 04bb 05       		.byte	5
 1849 04bc 88       		.byte	-120
 1850 04bd 40       		.byte	64
 1851 04be 8A       		.byte	-118
 1852 04bf 07       		.byte	7
 1853 04c0 8B       		.byte	-117
 1854 04c1 0B       		.byte	11
 1855 04c2 8C       		.byte	-116
 1856 04c3 05       		.byte	5
 1857 04c4 8D       		.byte	-115
 1858 04c5 1F       		.byte	31
 1859 04c6 8E       		.byte	-114
ARM GAS  C:\Users\Colin\AppData\Local\Temp\ccyjTXTG.s 			page 57


 1860 04c7 78       		.byte	120
 1861 04c8 90       		.byte	-112
 1862 04c9 03       		.byte	3
 1863 04ca 91       		.byte	-111
 1864 04cb 0F       		.byte	15
 1865 04cc 94       		.byte	-108
 1866 04cd 10       		.byte	16
 1867 04ce 95       		.byte	-107
 1868 04cf 01       		.byte	1
 1869 04d0 96       		.byte	-106
 1870 04d1 07       		.byte	7
 1871 04d2 98       		.byte	-104
 1872 04d3 01       		.byte	1
 1873 04d4 99       		.byte	-103
 1874 04d5 10       		.byte	16
 1875 04d6 9B       		.byte	-101
 1876 04d7 0B       		.byte	11
 1877 04d8 9C       		.byte	-100
 1878 04d9 03       		.byte	3
 1879 04da 9F       		.byte	-97
 1880 04db 14       		.byte	20
 1881 04dc A0       		.byte	-96
 1882 04dd 3A       		.byte	58
 1883 04de A1       		.byte	-95
 1884 04df 08       		.byte	8
 1885 04e0 A2       		.byte	-94
 1886 04e1 04       		.byte	4
 1887 04e2 A3       		.byte	-93
 1888 04e3 02       		.byte	2
 1889 04e4 A4       		.byte	-92
 1890 04e5 01       		.byte	1
 1891 04e6 A7       		.byte	-89
 1892 04e7 01       		.byte	1
 1893 04e8 A8       		.byte	-88
 1894 04e9 01       		.byte	1
 1895 04ea A9       		.byte	-87
 1896 04eb 03       		.byte	3
 1897 04ec AC       		.byte	-84
 1898 04ed 7F       		.byte	127
 1899 04ee AD       		.byte	-83
 1900 04ef 03       		.byte	3
 1901 04f0 B2       		.byte	-78
 1902 04f1 7F       		.byte	127
 1903 04f2 B7       		.byte	-73
 1904 04f3 1F       		.byte	31
 1905 04f4 BE       		.byte	-66
 1906 04f5 04       		.byte	4
 1907 04f6 C0       		.byte	-64
 1908 04f7 14       		.byte	20
 1909 04f8 C9       		.byte	-55
 1910 04f9 FF       		.byte	-1
 1911 04fa CA       		.byte	-54
 1912 04fb FF       		.byte	-1
 1913 04fc CB       		.byte	-53
 1914 04fd FF       		.byte	-1
 1915 04fe CD       		.byte	-51
 1916 04ff 83       		.byte	-125
ARM GAS  C:\Users\Colin\AppData\Local\Temp\ccyjTXTG.s 			page 58


 1917 0500 CE       		.byte	-50
 1918 0501 03       		.byte	3
 1919 0502 CF       		.byte	-49
 1920 0503 01       		.byte	1
 1921 0504 D0       		.byte	-48
 1922 0505 18       		.byte	24
 1923 0506 D2       		.byte	-46
 1924 0507 80       		.byte	-128
 1925 0508 D8       		.byte	-40
 1926 0509 04       		.byte	4
 1927 050a D9       		.byte	-39
 1928 050b 04       		.byte	4
 1929 050c DA       		.byte	-38
 1930 050d 04       		.byte	4
 1931 050e DB       		.byte	-37
 1932 050f 04       		.byte	4
 1933 0510 DD       		.byte	-35
 1934 0511 99       		.byte	-103
 1935 0512 DF       		.byte	-33
 1936 0513 01       		.byte	1
 1937 0514 E0       		.byte	-32
 1938 0515 40       		.byte	64
 1939 0516 E2       		.byte	-30
 1940 0517 40       		.byte	64
 1941 0518 E4       		.byte	-28
 1942 0519 40       		.byte	64
 1943 051a E5       		.byte	-27
 1944 051b 40       		.byte	64
 1945 051c E6       		.byte	-26
 1946 051d 80       		.byte	-128
 1947 051e E8       		.byte	-24
 1948 051f 80       		.byte	-128
 1949 0520 EA       		.byte	-22
 1950 0521 80       		.byte	-128
 1951 0522 EC       		.byte	-20
 1952 0523 80       		.byte	-128
 1953 0524 EE       		.byte	-18
 1954 0525 80       		.byte	-128
 1955 0526 00       		.byte	0
 1956 0527 10       		.byte	16
 1957 0528 04       		.byte	4
 1958 0529 08       		.byte	8
 1959 052a 05       		.byte	5
 1960 052b 21       		.byte	33
 1961 052c 07       		.byte	7
 1962 052d 01       		.byte	1
 1963 052e 0C       		.byte	12
 1964 052f 02       		.byte	2
 1965 0530 0E       		.byte	14
 1966 0531 06       		.byte	6
 1967 0532 0F       		.byte	15
 1968 0533 20       		.byte	32
 1969 0534 14       		.byte	20
 1970 0535 40       		.byte	64
 1971 0536 15       		.byte	21
 1972 0537 40       		.byte	64
 1973 0538 16       		.byte	22
ARM GAS  C:\Users\Colin\AppData\Local\Temp\ccyjTXTG.s 			page 59


 1974 0539 08       		.byte	8
 1975 053a 17       		.byte	23
 1976 053b 28       		.byte	40
 1977 053c 1A       		.byte	26
 1978 053d 10       		.byte	16
 1979 053e 1E       		.byte	30
 1980 053f 20       		.byte	32
 1981 0540 21       		.byte	33
 1982 0541 08       		.byte	8
 1983 0542 22       		.byte	34
 1984 0543 02       		.byte	2
 1985 0544 23       		.byte	35
 1986 0545 40       		.byte	64
 1987 0546 26       		.byte	38
 1988 0547 80       		.byte	-128
 1989 0548 29       		.byte	41
 1990 0549 21       		.byte	33
 1991 054a 2A       		.byte	42
 1992 054b 42       		.byte	66
 1993 054c 2B       		.byte	43
 1994 054d 30       		.byte	48
 1995 054e 2C       		.byte	44
 1996 054f 02       		.byte	2
 1997 0550 2E       		.byte	46
 1998 0551 06       		.byte	6
 1999 0552 2F       		.byte	47
 2000 0553 08       		.byte	8
 2001 0554 30       		.byte	48
 2002 0555 40       		.byte	64
 2003 0556 31       		.byte	49
 2004 0557 14       		.byte	20
 2005 0558 32       		.byte	50
 2006 0559 80       		.byte	-128
 2007 055a 33       		.byte	51
 2008 055b 01       		.byte	1
 2009 055c 35       		.byte	53
 2010 055d 20       		.byte	32
 2011 055e 36       		.byte	54
 2012 055f 80       		.byte	-128
 2013 0560 37       		.byte	55
 2014 0561 09       		.byte	9
 2015 0562 38       		.byte	56
 2016 0563 08       		.byte	8
 2017 0564 39       		.byte	57
 2018 0565 20       		.byte	32
 2019 0566 3B       		.byte	59
 2020 0567 40       		.byte	64
 2021 0568 3D       		.byte	61
 2022 0569 42       		.byte	66
 2023 056a 3E       		.byte	62
 2024 056b 08       		.byte	8
 2025 056c 3F       		.byte	63
 2026 056d 20       		.byte	32
 2027 056e 42       		.byte	66
 2028 056f 80       		.byte	-128
 2029 0570 46       		.byte	70
 2030 0571 80       		.byte	-128
ARM GAS  C:\Users\Colin\AppData\Local\Temp\ccyjTXTG.s 			page 60


 2031 0572 47       		.byte	71
 2032 0573 40       		.byte	64
 2033 0574 48       		.byte	72
 2034 0575 01       		.byte	1
 2035 0576 74       		.byte	116
 2036 0577 01       		.byte	1
 2037 0578 77       		.byte	119
 2038 0579 40       		.byte	64
 2039 057a 80       		.byte	-128
 2040 057b 04       		.byte	4
 2041 057c 81       		.byte	-127
 2042 057d 01       		.byte	1
 2043 057e 8E       		.byte	-114
 2044 057f 01       		.byte	1
 2045 0580 8F       		.byte	-113
 2046 0581 08       		.byte	8
 2047 0582 90       		.byte	-112
 2048 0583 18       		.byte	24
 2049 0584 91       		.byte	-111
 2050 0585 60       		.byte	96
 2051 0586 92       		.byte	-110
 2052 0587 04       		.byte	4
 2053 0588 96       		.byte	-106
 2054 0589 10       		.byte	16
 2055 058a 99       		.byte	-103
 2056 058b 35       		.byte	53
 2057 058c 9A       		.byte	-102
 2058 058d C0       		.byte	-64
 2059 058e 9B       		.byte	-101
 2060 058f 29       		.byte	41
 2061 0590 9F       		.byte	-97
 2062 0591 40       		.byte	64
 2063 0592 A0       		.byte	-96
 2064 0593 02       		.byte	2
 2065 0594 A2       		.byte	-94
 2066 0595 01       		.byte	1
 2067 0596 A3       		.byte	-93
 2068 0597 20       		.byte	32
 2069 0598 A5       		.byte	-91
 2070 0599 08       		.byte	8
 2071 059a A6       		.byte	-90
 2072 059b 92       		.byte	-110
 2073 059c C0       		.byte	-64
 2074 059d F2       		.byte	-14
 2075 059e C2       		.byte	-62
 2076 059f F0       		.byte	-16
 2077 05a0 C4       		.byte	-60
 2078 05a1 F0       		.byte	-16
 2079 05a2 CA       		.byte	-54
 2080 05a3 FF       		.byte	-1
 2081 05a4 CC       		.byte	-52
 2082 05a5 FF       		.byte	-1
 2083 05a6 CE       		.byte	-50
 2084 05a7 FE       		.byte	-2
 2085 05a8 D0       		.byte	-48
 2086 05a9 91       		.byte	-111
 2087 05aa D2       		.byte	-46
ARM GAS  C:\Users\Colin\AppData\Local\Temp\ccyjTXTG.s 			page 61


 2088 05ab 08       		.byte	8
 2089 05ac 01       		.byte	1
 2090 05ad 10       		.byte	16
 2091 05ae 05       		.byte	5
 2092 05af 01       		.byte	1
 2093 05b0 07       		.byte	7
 2094 05b1 06       		.byte	6
 2095 05b2 09       		.byte	9
 2096 05b3 10       		.byte	16
 2097 05b4 0B       		.byte	11
 2098 05b5 03       		.byte	3
 2099 05b6 0D       		.byte	13
 2100 05b7 11       		.byte	17
 2101 05b8 0F       		.byte	15
 2102 05b9 04       		.byte	4
 2103 05ba 10       		.byte	16
 2104 05bb 02       		.byte	2
 2105 05bc 11       		.byte	17
 2106 05bd 13       		.byte	19
 2107 05be 1A       		.byte	26
 2108 05bf 01       		.byte	1
 2109 05c0 1B       		.byte	27
 2110 05c1 20       		.byte	32
 2111 05c2 1F       		.byte	31
 2112 05c3 03       		.byte	3
 2113 05c4 23       		.byte	35
 2114 05c5 13       		.byte	19
 2115 05c6 25       		.byte	37
 2116 05c7 13       		.byte	19
 2117 05c8 26       		.byte	38
 2118 05c9 02       		.byte	2
 2119 05ca 2B       		.byte	43
 2120 05cb 03       		.byte	3
 2121 05cc 2D       		.byte	45
 2122 05cd 02       		.byte	2
 2123 05ce 2F       		.byte	47
 2124 05cf 09       		.byte	9
 2125 05d0 30       		.byte	48
 2126 05d1 02       		.byte	2
 2127 05d2 33       		.byte	51
 2128 05d3 07       		.byte	7
 2129 05d4 34       		.byte	52
 2130 05d5 01       		.byte	1
 2131 05d6 35       		.byte	53
 2132 05d7 08       		.byte	8
 2133 05d8 37       		.byte	55
 2134 05d9 30       		.byte	48
 2135 05da 38       		.byte	56
 2136 05db 02       		.byte	2
 2137 05dc 3B       		.byte	59
 2138 05dd 08       		.byte	8
 2139 05de 40       		.byte	64
 2140 05df 14       		.byte	20
 2141 05e0 45       		.byte	69
 2142 05e1 EC       		.byte	-20
 2143 05e2 46       		.byte	70
 2144 05e3 02       		.byte	2
ARM GAS  C:\Users\Colin\AppData\Local\Temp\ccyjTXTG.s 			page 62


 2145 05e4 48       		.byte	72
 2146 05e5 07       		.byte	7
 2147 05e6 49       		.byte	73
 2148 05e7 FF       		.byte	-1
 2149 05e8 4A       		.byte	74
 2150 05e9 FF       		.byte	-1
 2151 05ea 4B       		.byte	75
 2152 05eb FF       		.byte	-1
 2153 05ec 4D       		.byte	77
 2154 05ed 83       		.byte	-125
 2155 05ee 4E       		.byte	78
 2156 05ef 03       		.byte	3
 2157 05f0 4F       		.byte	79
 2158 05f1 01       		.byte	1
 2159 05f2 50       		.byte	80
 2160 05f3 18       		.byte	24
 2161 05f4 56       		.byte	86
 2162 05f5 08       		.byte	8
 2163 05f6 58       		.byte	88
 2164 05f7 04       		.byte	4
 2165 05f8 59       		.byte	89
 2166 05f9 04       		.byte	4
 2167 05fa 5A       		.byte	90
 2168 05fb 04       		.byte	4
 2169 05fc 5B       		.byte	91
 2170 05fd 04       		.byte	4
 2171 05fe 5D       		.byte	93
 2172 05ff 99       		.byte	-103
 2173 0600 5F       		.byte	95
 2174 0601 01       		.byte	1
 2175 0602 60       		.byte	96
 2176 0603 40       		.byte	64
 2177 0604 62       		.byte	98
 2178 0605 40       		.byte	64
 2179 0606 64       		.byte	100
 2180 0607 40       		.byte	64
 2181 0608 65       		.byte	101
 2182 0609 40       		.byte	64
 2183 060a 66       		.byte	102
 2184 060b 80       		.byte	-128
 2185 060c 68       		.byte	104
 2186 060d 80       		.byte	-128
 2187 060e 6A       		.byte	106
 2188 060f 80       		.byte	-128
 2189 0610 6C       		.byte	108
 2190 0611 80       		.byte	-128
 2191 0612 6E       		.byte	110
 2192 0613 80       		.byte	-128
 2193 0614 81       		.byte	-127
 2194 0615 01       		.byte	1
 2195 0616 83       		.byte	-125
 2196 0617 06       		.byte	6
 2197 0618 85       		.byte	-123
 2198 0619 02       		.byte	2
 2199 061a 86       		.byte	-122
 2200 061b 01       		.byte	1
 2201 061c 87       		.byte	-121
ARM GAS  C:\Users\Colin\AppData\Local\Temp\ccyjTXTG.s 			page 63


 2202 061d 01       		.byte	1
 2203 061e 89       		.byte	-119
 2204 061f 01       		.byte	1
 2205 0620 8A       		.byte	-118
 2206 0621 01       		.byte	1
 2207 0622 8B       		.byte	-117
 2208 0623 0A       		.byte	10
 2209 0624 8D       		.byte	-115
 2210 0625 01       		.byte	1
 2211 0626 8F       		.byte	-113
 2212 0627 04       		.byte	4
 2213 0628 91       		.byte	-111
 2214 0629 10       		.byte	16
 2215 062a 96       		.byte	-106
 2216 062b 01       		.byte	1
 2217 062c 9A       		.byte	-102
 2218 062d 01       		.byte	1
 2219 062e 9B       		.byte	-101
 2220 062f 03       		.byte	3
 2221 0630 A4       		.byte	-92
 2222 0631 01       		.byte	1
 2223 0632 A7       		.byte	-89
 2224 0633 03       		.byte	3
 2225 0634 AB       		.byte	-85
 2226 0635 03       		.byte	3
 2227 0636 AD       		.byte	-83
 2228 0637 10       		.byte	16
 2229 0638 B1       		.byte	-79
 2230 0639 07       		.byte	7
 2231 063a B3       		.byte	-77
 2232 063b 10       		.byte	16
 2233 063c B4       		.byte	-76
 2234 063d 01       		.byte	1
 2235 063e B5       		.byte	-75
 2236 063f 08       		.byte	8
 2237 0640 B9       		.byte	-71
 2238 0641 08       		.byte	8
 2239 0642 BB       		.byte	-69
 2240 0643 02       		.byte	2
 2241 0644 BE       		.byte	-66
 2242 0645 10       		.byte	16
 2243 0646 BF       		.byte	-65
 2244 0647 04       		.byte	4
 2245 0648 D4       		.byte	-44
 2246 0649 01       		.byte	1
 2247 064a D6       		.byte	-42
 2248 064b 04       		.byte	4
 2249 064c D8       		.byte	-40
 2250 064d 04       		.byte	4
 2251 064e D9       		.byte	-39
 2252 064f 04       		.byte	4
 2253 0650 DB       		.byte	-37
 2254 0651 04       		.byte	4
 2255 0652 DD       		.byte	-35
 2256 0653 90       		.byte	-112
 2257 0654 DF       		.byte	-33
 2258 0655 01       		.byte	1
ARM GAS  C:\Users\Colin\AppData\Local\Temp\ccyjTXTG.s 			page 64


 2259 0656 00       		.byte	0
 2260 0657 18       		.byte	24
 2261 0658 01       		.byte	1
 2262 0659 40       		.byte	64
 2263 065a 03       		.byte	3
 2264 065b 02       		.byte	2
 2265 065c 04       		.byte	4
 2266 065d 10       		.byte	16
 2267 065e 05       		.byte	5
 2268 065f 10       		.byte	16
 2269 0660 08       		.byte	8
 2270 0661 10       		.byte	16
 2271 0662 0A       		.byte	10
 2272 0663 30       		.byte	48
 2273 0664 0C       		.byte	12
 2274 0665 01       		.byte	1
 2275 0666 0D       		.byte	13
 2276 0667 20       		.byte	32
 2277 0668 12       		.byte	18
 2278 0669 20       		.byte	32
 2279 066a 14       		.byte	20
 2280 066b 40       		.byte	64
 2281 066c 17       		.byte	23
 2282 066d 05       		.byte	5
 2283 066e 18       		.byte	24
 2284 066f 04       		.byte	4
 2285 0670 1C       		.byte	28
 2286 0671 08       		.byte	8
 2287 0672 1F       		.byte	31
 2288 0673 12       		.byte	18
 2289 0674 21       		.byte	33
 2290 0675 05       		.byte	5
 2291 0676 22       		.byte	34
 2292 0677 20       		.byte	32
 2293 0678 23       		.byte	35
 2294 0679 04       		.byte	4
 2295 067a 25       		.byte	37
 2296 067b 74       		.byte	116
 2297 067c 27       		.byte	39
 2298 067d 11       		.byte	17
 2299 067e 28       		.byte	40
 2300 067f 10       		.byte	16
 2301 0680 29       		.byte	41
 2302 0681 14       		.byte	20
 2303 0682 2A       		.byte	42
 2304 0683 40       		.byte	64
 2305 0684 2C       		.byte	44
 2306 0685 40       		.byte	64
 2307 0686 2D       		.byte	45
 2308 0687 20       		.byte	32
 2309 0688 2F       		.byte	47
 2310 0689 21       		.byte	33
 2311 068a 32       		.byte	50
 2312 068b 12       		.byte	18
 2313 068c 35       		.byte	53
 2314 068d 01       		.byte	1
 2315 068e 36       		.byte	54
ARM GAS  C:\Users\Colin\AppData\Local\Temp\ccyjTXTG.s 			page 65


 2316 068f 90       		.byte	-112
 2317 0690 39       		.byte	57
 2318 0691 42       		.byte	66
 2319 0692 3B       		.byte	59
 2320 0693 24       		.byte	36
 2321 0694 3D       		.byte	61
 2322 0695 48       		.byte	72
 2323 0696 3E       		.byte	62
 2324 0697 02       		.byte	2
 2325 0698 3F       		.byte	63
 2326 0699 10       		.byte	16
 2327 069a 46       		.byte	70
 2328 069b 81       		.byte	-127
 2329 069c 47       		.byte	71
 2330 069d 40       		.byte	64
 2331 069e 4C       		.byte	76
 2332 069f 04       		.byte	4
 2333 06a0 4D       		.byte	77
 2334 06a1 0A       		.byte	10
 2335 06a2 4F       		.byte	79
 2336 06a3 10       		.byte	16
 2337 06a4 56       		.byte	86
 2338 06a5 80       		.byte	-128
 2339 06a6 59       		.byte	89
 2340 06a7 0A       		.byte	10
 2341 06a8 5A       		.byte	90
 2342 06a9 80       		.byte	-128
 2343 06aa 5D       		.byte	93
 2344 06ab 80       		.byte	-128
 2345 06ac 63       		.byte	99
 2346 06ad 40       		.byte	64
 2347 06ae 67       		.byte	103
 2348 06af 02       		.byte	2
 2349 06b0 87       		.byte	-121
 2350 06b1 40       		.byte	64
 2351 06b2 90       		.byte	-112
 2352 06b3 08       		.byte	8
 2353 06b4 91       		.byte	-111
 2354 06b5 20       		.byte	32
 2355 06b6 92       		.byte	-110
 2356 06b7 84       		.byte	-124
 2357 06b8 94       		.byte	-108
 2358 06b9 04       		.byte	4
 2359 06ba 95       		.byte	-107
 2360 06bb 08       		.byte	8
 2361 06bc 98       		.byte	-104
 2362 06bd 01       		.byte	1
 2363 06be 99       		.byte	-103
 2364 06bf B5       		.byte	-75
 2365 06c0 9A       		.byte	-102
 2366 06c1 42       		.byte	66
 2367 06c2 9B       		.byte	-101
 2368 06c3 2C       		.byte	44
 2369 06c4 9E       		.byte	-98
 2370 06c5 81       		.byte	-127
 2371 06c6 9F       		.byte	-97
 2372 06c7 10       		.byte	16
ARM GAS  C:\Users\Colin\AppData\Local\Temp\ccyjTXTG.s 			page 66


 2373 06c8 A0       		.byte	-96
 2374 06c9 02       		.byte	2
 2375 06ca A2       		.byte	-94
 2376 06cb 01       		.byte	1
 2377 06cc A3       		.byte	-93
 2378 06cd 20       		.byte	32
 2379 06ce A5       		.byte	-91
 2380 06cf 58       		.byte	88
 2381 06d0 A6       		.byte	-90
 2382 06d1 82       		.byte	-126
 2383 06d2 A7       		.byte	-89
 2384 06d3 02       		.byte	2
 2385 06d4 B5       		.byte	-75
 2386 06d5 80       		.byte	-128
 2387 06d6 C0       		.byte	-64
 2388 06d7 06       		.byte	6
 2389 06d8 C2       		.byte	-62
 2390 06d9 56       		.byte	86
 2391 06da C4       		.byte	-60
 2392 06db 24       		.byte	36
 2393 06dc CA       		.byte	-54
 2394 06dd FE       		.byte	-2
 2395 06de CC       		.byte	-52
 2396 06df B5       		.byte	-75
 2397 06e0 CE       		.byte	-50
 2398 06e1 FF       		.byte	-1
 2399 06e2 D0       		.byte	-48
 2400 06e3 90       		.byte	-112
 2401 06e4 D6       		.byte	-42
 2402 06e5 1B       		.byte	27
 2403 06e6 D8       		.byte	-40
 2404 06e7 11       		.byte	17
 2405 06e8 EC       		.byte	-20
 2406 06e9 40       		.byte	64
 2407 06ea EE       		.byte	-18
 2408 06eb 04       		.byte	4
 2409 06ec EE       		.byte	-18
 2410 06ed 04       		.byte	4
 2411 06ee 01       		.byte	1
 2412 06ef 04       		.byte	4
 2413 06f0 05       		.byte	5
 2414 06f1 11       		.byte	17
 2415 06f2 31       		.byte	49
 2416 06f3 80       		.byte	-128
 2417 06f4 33       		.byte	51
 2418 06f5 02       		.byte	2
 2419 06f6 36       		.byte	54
 2420 06f7 40       		.byte	64
 2421 06f8 37       		.byte	55
 2422 06f9 02       		.byte	2
 2423 06fa 38       		.byte	56
 2424 06fb 10       		.byte	16
 2425 06fc 54       		.byte	84
 2426 06fd 20       		.byte	32
 2427 06fe 5B       		.byte	91
 2428 06ff 20       		.byte	32
 2429 0700 87       		.byte	-121
ARM GAS  C:\Users\Colin\AppData\Local\Temp\ccyjTXTG.s 			page 67


 2430 0701 20       		.byte	32
 2431 0702 C0       		.byte	-64
 2432 0703 B0       		.byte	-80
 2433 0704 CC       		.byte	-52
 2434 0705 F0       		.byte	-16
 2435 0706 CE       		.byte	-50
 2436 0707 10       		.byte	16
 2437 0708 D4       		.byte	-44
 2438 0709 C0       		.byte	-64
 2439 070a E2       		.byte	-30
 2440 070b 40       		.byte	64
 2441 070c 0D       		.byte	13
 2442 070d 80       		.byte	-128
 2443 070e 0E       		.byte	14
 2444 070f 01       		.byte	1
 2445 0710 33       		.byte	51
 2446 0711 80       		.byte	-128
 2447 0712 83       		.byte	-125
 2448 0713 02       		.byte	2
 2449 0714 84       		.byte	-124
 2450 0715 20       		.byte	32
 2451 0716 94       		.byte	-108
 2452 0717 10       		.byte	16
 2453 0718 99       		.byte	-103
 2454 0719 01       		.byte	1
 2455 071a 9F       		.byte	-97
 2456 071b 02       		.byte	2
 2457 071c A4       		.byte	-92
 2458 071d 20       		.byte	32
 2459 071e A5       		.byte	-91
 2460 071f 80       		.byte	-128
 2461 0720 A6       		.byte	-90
 2462 0721 40       		.byte	64
 2463 0722 A7       		.byte	-89
 2464 0723 02       		.byte	2
 2465 0724 A9       		.byte	-87
 2466 0725 10       		.byte	16
 2467 0726 AD       		.byte	-83
 2468 0727 04       		.byte	4
 2469 0728 C2       		.byte	-62
 2470 0729 80       		.byte	-128
 2471 072a CC       		.byte	-52
 2472 072b 10       		.byte	16
 2473 072c E2       		.byte	-30
 2474 072d 60       		.byte	96
 2475 072e EC       		.byte	-20
 2476 072f 60       		.byte	96
 2477 0730 63       		.byte	99
 2478 0731 01       		.byte	1
 2479 0732 83       		.byte	-125
 2480 0733 01       		.byte	1
 2481 0734 94       		.byte	-108
 2482 0735 10       		.byte	16
 2483 0736 99       		.byte	-103
 2484 0737 01       		.byte	1
 2485 0738 A6       		.byte	-90
 2486 0739 40       		.byte	64
ARM GAS  C:\Users\Colin\AppData\Local\Temp\ccyjTXTG.s 			page 68


 2487 073a A7       		.byte	-89
 2488 073b 80       		.byte	-128
 2489 073c AB       		.byte	-85
 2490 073d 02       		.byte	2
 2491 073e AE       		.byte	-82
 2492 073f 01       		.byte	1
 2493 0740 D6       		.byte	-42
 2494 0741 40       		.byte	64
 2495 0742 E2       		.byte	-30
 2496 0743 80       		.byte	-128
 2497 0744 E8       		.byte	-24
 2498 0745 10       		.byte	16
 2499 0746 EE       		.byte	-18
 2500 0747 80       		.byte	-128
 2501 0748 99       		.byte	-103
 2502 0749 01       		.byte	1
 2503 074a A6       		.byte	-90
 2504 074b 40       		.byte	64
 2505 074c A7       		.byte	-89
 2506 074d 80       		.byte	-128
 2507 074e A8       		.byte	-88
 2508 074f 10       		.byte	16
 2509 0750 EE       		.byte	-18
 2510 0751 80       		.byte	-128
 2511 0752 9C       		.byte	-100
 2512 0753 02       		.byte	2
 2513 0754 A8       		.byte	-88
 2514 0755 02       		.byte	2
 2515 0756 08       		.byte	8
 2516 0757 02       		.byte	2
 2517 0758 0B       		.byte	11
 2518 0759 02       		.byte	2
 2519 075a 0F       		.byte	15
 2520 075b 20       		.byte	32
 2521 075c 9C       		.byte	-100
 2522 075d 02       		.byte	2
 2523 075e A7       		.byte	-89
 2524 075f 10       		.byte	16
 2525 0760 AB       		.byte	-85
 2526 0761 10       		.byte	16
 2527 0762 C2       		.byte	-62
 2528 0763 0E       		.byte	14
 2529 0764 86       		.byte	-122
 2530 0765 40       		.byte	64
 2531 0766 A6       		.byte	-90
 2532 0767 40       		.byte	64
 2533 0768 AB       		.byte	-85
 2534 0769 80       		.byte	-128
 2535 076a B5       		.byte	-75
 2536 076b 01       		.byte	1
 2537 076c E6       		.byte	-26
 2538 076d 40       		.byte	64
 2539 076e EE       		.byte	-18
 2540 076f 20       		.byte	32
 2541 0770 AB       		.byte	-85
 2542 0771 01       		.byte	1
 2543 0772 00       		.byte	0
ARM GAS  C:\Users\Colin\AppData\Local\Temp\ccyjTXTG.s 			page 69


 2544 0773 01       		.byte	1
 2545 0774 01       		.byte	1
 2546 0775 01       		.byte	1
 2547 0776 08       		.byte	8
 2548 0777 01       		.byte	1
 2549 0778 09       		.byte	9
 2550 0779 01       		.byte	1
 2551 077a 0A       		.byte	10
 2552 077b 01       		.byte	1
 2553 077c 10       		.byte	16
 2554 077d 01       		.byte	1
 2555 077e 11       		.byte	17
 2556 077f 01       		.byte	1
 2557 0780 1A       		.byte	26
 2558 0781 01       		.byte	1
 2559 0782 1B       		.byte	27
 2560 0783 01       		.byte	1
 2561 0784 00       		.byte	0
 2562 0785 BF       		.byte	-65
 2563 0786 01       		.byte	1
 2564 0787 0A       		.byte	10
 2565              		.align	2
 2566              		.type	BS_IOPINS0_0_VAL.4808, %object
 2567              		.size	BS_IOPINS0_0_VAL.4808, 10
 2568              	BS_IOPINS0_0_VAL.4808:
 2569 0788 80       		.byte	-128
 2570 0789 00       		.byte	0
 2571 078a 00       		.byte	0
 2572 078b 80       		.byte	-128
 2573 078c 00       		.byte	0
 2574 078d 00       		.byte	0
 2575 078e 00       		.byte	0
 2576 078f 00       		.byte	0
 2577 0790 00       		.byte	0
 2578 0791 00       		.byte	0
 2579 0792 0000     		.align	2
 2580              		.type	BS_IOPINS0_8_VAL.4809, %object
 2581              		.size	BS_IOPINS0_8_VAL.4809, 10
 2582              	BS_IOPINS0_8_VAL.4809:
 2583 0794 00       		.byte	0
 2584 0795 00       		.byte	0
 2585 0796 00       		.byte	0
 2586 0797 00       		.byte	0
 2587 0798 00       		.byte	0
 2588 0799 00       		.byte	0
 2589 079a 00       		.byte	0
 2590 079b 00       		.byte	0
 2591 079c C0       		.byte	-64
 2592 079d 00       		.byte	0
 2593 079e 0000     		.align	2
 2594              		.type	BS_IOPINS0_1_VAL.4810, %object
 2595              		.size	BS_IOPINS0_1_VAL.4810, 8
 2596              	BS_IOPINS0_1_VAL.4810:
 2597 07a0 00       		.byte	0
 2598 07a1 04       		.byte	4
 2599 07a2 00       		.byte	0
 2600 07a3 00       		.byte	0
ARM GAS  C:\Users\Colin\AppData\Local\Temp\ccyjTXTG.s 			page 70


 2601 07a4 00       		.byte	0
 2602 07a5 00       		.byte	0
 2603 07a6 00       		.byte	0
 2604 07a7 00       		.byte	0
 2605              		.align	2
 2606              		.type	BS_IOPINS0_2_VAL.4811, %object
 2607              		.size	BS_IOPINS0_2_VAL.4811, 8
 2608              	BS_IOPINS0_2_VAL.4811:
 2609 07a8 00       		.byte	0
 2610 07a9 7F       		.byte	127
 2611 07aa 7F       		.byte	127
 2612 07ab 00       		.byte	0
 2613 07ac 00       		.byte	0
 2614 07ad 00       		.byte	0
 2615 07ae 00       		.byte	0
 2616 07af 00       		.byte	0
 2617              		.align	2
 2618              		.type	BS_IOPINS0_3_VAL.4812, %object
 2619              		.size	BS_IOPINS0_3_VAL.4812, 8
 2620              	BS_IOPINS0_3_VAL.4812:
 2621 07b0 00       		.byte	0
 2622 07b1 20       		.byte	32
 2623 07b2 20       		.byte	32
 2624 07b3 00       		.byte	0
 2625 07b4 00       		.byte	0
 2626 07b5 00       		.byte	0
 2627 07b6 C0       		.byte	-64
 2628 07b7 00       		.byte	0
 2629              		.align	2
 2630              		.type	BS_IOPINS0_4_VAL.4813, %object
 2631              		.size	BS_IOPINS0_4_VAL.4813, 10
 2632              	BS_IOPINS0_4_VAL.4813:
 2633 07b8 03       		.byte	3
 2634 07b9 00       		.byte	0
 2635 07ba 08       		.byte	8
 2636 07bb 00       		.byte	0
 2637 07bc 03       		.byte	3
 2638 07bd 00       		.byte	0
 2639 07be 03       		.byte	3
 2640 07bf 00       		.byte	0
 2641 07c0 00       		.byte	0
 2642 07c1 00       		.byte	0
 2643 07c2 0000     		.text
 2644              	.Letext0:
 2645              		.file 2 "c:\\program files (x86)\\cypress\\psoc creator\\3.0\\psoc creator\\import\\gnu_cs\\arm\\4
 2646              		.file 3 "./Generated_Source/PSoC5/cytypes.h"