ARM GAS  C:\Users\Colin\AppData\Local\Temp\cc5TNLaT.s 			page 1


   1              		.syntax unified
   2              		.cpu cortex-m3
   3              		.fpu softvfp
   4              		.eabi_attribute 20, 1
   5              		.eabi_attribute 21, 1
   6              		.eabi_attribute 23, 3
   7              		.eabi_attribute 24, 1
   8              		.eabi_attribute 25, 1
   9              		.eabi_attribute 26, 1
  10              		.eabi_attribute 30, 6
  11              		.eabi_attribute 34, 1
  12              		.eabi_attribute 18, 4
  13              		.thumb
  14              		.file	"Fire_Timer.c"
  15              		.text
  16              	.Ltext0:
  17              		.cfi_sections	.debug_frame
  18              		.global	Fire_Timer_initVar
  19              		.bss
  20              		.type	Fire_Timer_initVar, %object
  21              		.size	Fire_Timer_initVar, 1
  22              	Fire_Timer_initVar:
  23 0000 00       		.space	1
  24              		.section	.text.Fire_Timer_Init,"ax",%progbits
  25              		.align	2
  26              		.global	Fire_Timer_Init
  27              		.thumb
  28              		.thumb_func
  29              		.type	Fire_Timer_Init, %function
  30              	Fire_Timer_Init:
  31              	.LFB0:
  32              		.file 1 ".\\Generated_Source\\PSoC5\\Fire_Timer.c"
   1:.\Generated_Source\PSoC5/Fire_Timer.c **** /*******************************************************************************
   2:.\Generated_Source\PSoC5/Fire_Timer.c **** * File Name: Fire_Timer.c
   3:.\Generated_Source\PSoC5/Fire_Timer.c **** * Version 2.50
   4:.\Generated_Source\PSoC5/Fire_Timer.c **** *
   5:.\Generated_Source\PSoC5/Fire_Timer.c **** * Description:
   6:.\Generated_Source\PSoC5/Fire_Timer.c **** *  The Timer component consists of a 8, 16, 24 or 32-bit timer with
   7:.\Generated_Source\PSoC5/Fire_Timer.c **** *  a selectable period between 2 and 2^Width - 1.  The timer may free run
   8:.\Generated_Source\PSoC5/Fire_Timer.c **** *  or be used as a capture timer as well.  The capture can be initiated
   9:.\Generated_Source\PSoC5/Fire_Timer.c **** *  by a positive or negative edge signal as well as via software.
  10:.\Generated_Source\PSoC5/Fire_Timer.c **** *  A trigger input can be programmed to enable the timer on rising edge
  11:.\Generated_Source\PSoC5/Fire_Timer.c **** *  falling edge, either edge or continous run.
  12:.\Generated_Source\PSoC5/Fire_Timer.c **** *  Interrupts may be generated due to a terminal count condition
  13:.\Generated_Source\PSoC5/Fire_Timer.c **** *  or a capture event.
  14:.\Generated_Source\PSoC5/Fire_Timer.c **** *
  15:.\Generated_Source\PSoC5/Fire_Timer.c **** * Note:
  16:.\Generated_Source\PSoC5/Fire_Timer.c **** *
  17:.\Generated_Source\PSoC5/Fire_Timer.c **** ********************************************************************************
  18:.\Generated_Source\PSoC5/Fire_Timer.c **** * Copyright 2008-2012, Cypress Semiconductor Corporation.  All rights reserved.
  19:.\Generated_Source\PSoC5/Fire_Timer.c **** * You may use this file only in accordance with the license, terms, conditions,
  20:.\Generated_Source\PSoC5/Fire_Timer.c **** * disclaimers, and limitations in the end user license agreement accompanying
  21:.\Generated_Source\PSoC5/Fire_Timer.c **** * the software package with which this file was provided.
  22:.\Generated_Source\PSoC5/Fire_Timer.c **** ********************************************************************************/
  23:.\Generated_Source\PSoC5/Fire_Timer.c **** 
  24:.\Generated_Source\PSoC5/Fire_Timer.c **** #include "Fire_Timer.h"
  25:.\Generated_Source\PSoC5/Fire_Timer.c **** 
ARM GAS  C:\Users\Colin\AppData\Local\Temp\cc5TNLaT.s 			page 2


  26:.\Generated_Source\PSoC5/Fire_Timer.c **** uint8 Fire_Timer_initVar = 0u;
  27:.\Generated_Source\PSoC5/Fire_Timer.c **** 
  28:.\Generated_Source\PSoC5/Fire_Timer.c **** 
  29:.\Generated_Source\PSoC5/Fire_Timer.c **** /*******************************************************************************
  30:.\Generated_Source\PSoC5/Fire_Timer.c **** * Function Name: Fire_Timer_Init
  31:.\Generated_Source\PSoC5/Fire_Timer.c **** ********************************************************************************
  32:.\Generated_Source\PSoC5/Fire_Timer.c **** *
  33:.\Generated_Source\PSoC5/Fire_Timer.c **** * Summary:
  34:.\Generated_Source\PSoC5/Fire_Timer.c **** *  Initialize to the schematic state
  35:.\Generated_Source\PSoC5/Fire_Timer.c **** *
  36:.\Generated_Source\PSoC5/Fire_Timer.c **** * Parameters:
  37:.\Generated_Source\PSoC5/Fire_Timer.c **** *  void
  38:.\Generated_Source\PSoC5/Fire_Timer.c **** *
  39:.\Generated_Source\PSoC5/Fire_Timer.c **** * Return:
  40:.\Generated_Source\PSoC5/Fire_Timer.c **** *  void
  41:.\Generated_Source\PSoC5/Fire_Timer.c **** *
  42:.\Generated_Source\PSoC5/Fire_Timer.c **** *******************************************************************************/
  43:.\Generated_Source\PSoC5/Fire_Timer.c **** void Fire_Timer_Init(void) 
  44:.\Generated_Source\PSoC5/Fire_Timer.c **** {
  33              		.loc 1 44 0
  34              		.cfi_startproc
  35              		@ args = 0, pretend = 0, frame = 0
  36              		@ frame_needed = 1, uses_anonymous_args = 0
  37 0000 80B5     		push	{r7, lr}
  38              	.LCFI0:
  39              		.cfi_def_cfa_offset 8
  40              		.cfi_offset 7, -8
  41              		.cfi_offset 14, -4
  42 0002 00AF     		add	r7, sp, #0
  43              	.LCFI1:
  44              		.cfi_def_cfa_register 7
  45:.\Generated_Source\PSoC5/Fire_Timer.c ****     #if(!Fire_Timer_UsingFixedFunction)
  46:.\Generated_Source\PSoC5/Fire_Timer.c ****             /* Interrupt State Backup for Critical Region*/
  47:.\Generated_Source\PSoC5/Fire_Timer.c ****             uint8 Fire_Timer_interruptState;
  48:.\Generated_Source\PSoC5/Fire_Timer.c ****     #endif /* Interrupt state back up for Fixed Function only */
  49:.\Generated_Source\PSoC5/Fire_Timer.c **** 
  50:.\Generated_Source\PSoC5/Fire_Timer.c ****     #if (Fire_Timer_UsingFixedFunction)
  51:.\Generated_Source\PSoC5/Fire_Timer.c ****         /* Clear all bits but the enable bit (if it's already set) for Timer operation */
  52:.\Generated_Source\PSoC5/Fire_Timer.c ****         Fire_Timer_CONTROL &= Fire_Timer_CTRL_ENABLE;
  45              		.loc 1 52 0
  46 0004 4FF49E43 		mov	r3, #20224
  47 0008 C4F20003 		movt	r3, 16384
  48 000c 4FF49E42 		mov	r2, #20224
  49 0010 C4F20002 		movt	r2, 16384
  50 0014 1278     		ldrb	r2, [r2, #0]
  51 0016 D2B2     		uxtb	r2, r2
  52 0018 02F00102 		and	r2, r2, #1
  53 001c D2B2     		uxtb	r2, r2
  54 001e 1A70     		strb	r2, [r3, #0]
  53:.\Generated_Source\PSoC5/Fire_Timer.c **** 
  54:.\Generated_Source\PSoC5/Fire_Timer.c ****         /* Clear the mode bits for continuous run mode */
  55:.\Generated_Source\PSoC5/Fire_Timer.c ****         #if (CY_PSOC5A)
  56:.\Generated_Source\PSoC5/Fire_Timer.c ****             Fire_Timer_CONTROL2 &= ((uint8)(~Fire_Timer_CTRL_MODE_MASK));
  57:.\Generated_Source\PSoC5/Fire_Timer.c ****         #endif /* Clear bits in CONTROL2 only in PSOC5A */
  58:.\Generated_Source\PSoC5/Fire_Timer.c **** 
  59:.\Generated_Source\PSoC5/Fire_Timer.c ****         #if (CY_PSOC3 || CY_PSOC5LP)
  60:.\Generated_Source\PSoC5/Fire_Timer.c ****             Fire_Timer_CONTROL3 &= ((uint8)(~Fire_Timer_CTRL_MODE_MASK));
ARM GAS  C:\Users\Colin\AppData\Local\Temp\cc5TNLaT.s 			page 3


  55              		.loc 1 60 0
  56 0020 44F60273 		movw	r3, #20226
  57 0024 C4F20003 		movt	r3, 16384
  58 0028 44F60272 		movw	r2, #20226
  59 002c C4F20002 		movt	r2, 16384
  60 0030 1278     		ldrb	r2, [r2, #0]
  61 0032 D2B2     		uxtb	r2, r2
  62 0034 22F00302 		bic	r2, r2, #3
  63 0038 D2B2     		uxtb	r2, r2
  64 003a 1A70     		strb	r2, [r3, #0]
  61:.\Generated_Source\PSoC5/Fire_Timer.c ****         #endif /* CONTROL3 register exists only in PSoC3 OR PSoC5LP */
  62:.\Generated_Source\PSoC5/Fire_Timer.c **** 
  63:.\Generated_Source\PSoC5/Fire_Timer.c ****         /* Check if One Shot mode is enabled i.e. RunMode !=0*/
  64:.\Generated_Source\PSoC5/Fire_Timer.c ****         #if (Fire_Timer_RunModeUsed != 0x0u)
  65:.\Generated_Source\PSoC5/Fire_Timer.c ****             /* Set 3rd bit of Control register to enable one shot mode */
  66:.\Generated_Source\PSoC5/Fire_Timer.c ****             Fire_Timer_CONTROL |= 0x04u;
  67:.\Generated_Source\PSoC5/Fire_Timer.c ****         #endif /* One Shot enabled only when RunModeUsed is not Continuous*/
  68:.\Generated_Source\PSoC5/Fire_Timer.c **** 
  69:.\Generated_Source\PSoC5/Fire_Timer.c ****         #if (Fire_Timer_RunModeUsed == 2)
  70:.\Generated_Source\PSoC5/Fire_Timer.c ****             #if (CY_PSOC5A)
  71:.\Generated_Source\PSoC5/Fire_Timer.c ****                 /* Set last 2 bits of control2 register if one shot(halt on
  72:.\Generated_Source\PSoC5/Fire_Timer.c ****                 interrupt) is enabled*/
  73:.\Generated_Source\PSoC5/Fire_Timer.c ****                 Fire_Timer_CONTROL2 |= 0x03u;
  74:.\Generated_Source\PSoC5/Fire_Timer.c ****             #endif /* Set One-Shot Halt on Interrupt bit in CONTROL2 for PSoC5A */
  75:.\Generated_Source\PSoC5/Fire_Timer.c **** 
  76:.\Generated_Source\PSoC5/Fire_Timer.c ****             #if (CY_PSOC3 || CY_PSOC5LP)
  77:.\Generated_Source\PSoC5/Fire_Timer.c ****                 /* Set last 2 bits of control3 register if one shot(halt on
  78:.\Generated_Source\PSoC5/Fire_Timer.c ****                 interrupt) is enabled*/
  79:.\Generated_Source\PSoC5/Fire_Timer.c ****                 Fire_Timer_CONTROL3 |= 0x03u;
  80:.\Generated_Source\PSoC5/Fire_Timer.c ****             #endif /* Set One-Shot Halt on Interrupt bit in CONTROL3 for PSoC3 or PSoC5LP */
  81:.\Generated_Source\PSoC5/Fire_Timer.c **** 
  82:.\Generated_Source\PSoC5/Fire_Timer.c ****         #endif /* Remove section if One Shot Halt on Interrupt is not enabled */
  83:.\Generated_Source\PSoC5/Fire_Timer.c **** 
  84:.\Generated_Source\PSoC5/Fire_Timer.c ****         #if (Fire_Timer_UsingHWEnable != 0)
  85:.\Generated_Source\PSoC5/Fire_Timer.c ****             #if (CY_PSOC5A)
  86:.\Generated_Source\PSoC5/Fire_Timer.c ****                 /* Set the default Run Mode of the Timer to Continuous */
  87:.\Generated_Source\PSoC5/Fire_Timer.c ****                 Fire_Timer_CONTROL2 |= Fire_Timer_CTRL_MODE_PULSEWIDTH;
  88:.\Generated_Source\PSoC5/Fire_Timer.c ****             #endif /* Set Continuous Run Mode in CONTROL2 for PSoC5A */
  89:.\Generated_Source\PSoC5/Fire_Timer.c **** 
  90:.\Generated_Source\PSoC5/Fire_Timer.c ****             #if (CY_PSOC3 || CY_PSOC5LP)
  91:.\Generated_Source\PSoC5/Fire_Timer.c ****                 /* Clear and Set ROD and COD bits of CFG2 register */
  92:.\Generated_Source\PSoC5/Fire_Timer.c ****                 Fire_Timer_CONTROL3 &= ((uint8)(~Fire_Timer_CTRL_RCOD_MASK));
  93:.\Generated_Source\PSoC5/Fire_Timer.c ****                 Fire_Timer_CONTROL3 |= Fire_Timer_CTRL_RCOD;
  94:.\Generated_Source\PSoC5/Fire_Timer.c **** 
  95:.\Generated_Source\PSoC5/Fire_Timer.c ****                 /* Clear and Enable the HW enable bit in CFG2 register */
  96:.\Generated_Source\PSoC5/Fire_Timer.c ****                 Fire_Timer_CONTROL3 &= ((uint8)(~Fire_Timer_CTRL_ENBL_MASK));
  97:.\Generated_Source\PSoC5/Fire_Timer.c ****                 Fire_Timer_CONTROL3 |= Fire_Timer_CTRL_ENBL;
  98:.\Generated_Source\PSoC5/Fire_Timer.c **** 
  99:.\Generated_Source\PSoC5/Fire_Timer.c ****                 /* Set the default Run Mode of the Timer to Continuous */
 100:.\Generated_Source\PSoC5/Fire_Timer.c ****                 Fire_Timer_CONTROL3 |= Fire_Timer_CTRL_MODE_CONTINUOUS;
 101:.\Generated_Source\PSoC5/Fire_Timer.c ****             #endif /* Set Continuous Run Mode in CONTROL3 for PSoC3ES3 or PSoC5A */
 102:.\Generated_Source\PSoC5/Fire_Timer.c **** 
 103:.\Generated_Source\PSoC5/Fire_Timer.c ****         #endif /* Configure Run Mode with hardware enable */
 104:.\Generated_Source\PSoC5/Fire_Timer.c **** 
 105:.\Generated_Source\PSoC5/Fire_Timer.c ****         /* Clear and Set SYNCTC and SYNCCMP bits of RT1 register */
 106:.\Generated_Source\PSoC5/Fire_Timer.c ****         Fire_Timer_RT1 &= ((uint8)(~Fire_Timer_RT1_MASK));
  65              		.loc 1 106 0
ARM GAS  C:\Users\Colin\AppData\Local\Temp\cc5TNLaT.s 			page 4


  66 003c 44F60B73 		movw	r3, #20235
  67 0040 C4F20003 		movt	r3, 16384
  68 0044 44F60B72 		movw	r2, #20235
  69 0048 C4F20002 		movt	r2, 16384
  70 004c 1278     		ldrb	r2, [r2, #0]
  71 004e D2B2     		uxtb	r2, r2
  72 0050 22F03002 		bic	r2, r2, #48
  73 0054 D2B2     		uxtb	r2, r2
  74 0056 1A70     		strb	r2, [r3, #0]
 107:.\Generated_Source\PSoC5/Fire_Timer.c ****         Fire_Timer_RT1 |= Fire_Timer_SYNC;
  75              		.loc 1 107 0
  76 0058 44F60B73 		movw	r3, #20235
  77 005c C4F20003 		movt	r3, 16384
  78 0060 44F60B72 		movw	r2, #20235
  79 0064 C4F20002 		movt	r2, 16384
  80 0068 1278     		ldrb	r2, [r2, #0]
  81 006a D2B2     		uxtb	r2, r2
  82 006c 42F03002 		orr	r2, r2, #48
  83 0070 D2B2     		uxtb	r2, r2
  84 0072 1A70     		strb	r2, [r3, #0]
 108:.\Generated_Source\PSoC5/Fire_Timer.c **** 
 109:.\Generated_Source\PSoC5/Fire_Timer.c ****         /*Enable DSI Sync all all inputs of the Timer*/
 110:.\Generated_Source\PSoC5/Fire_Timer.c ****         Fire_Timer_RT1 &= ((uint8)(~Fire_Timer_SYNCDSI_MASK));
  85              		.loc 1 110 0
  86 0074 44F60B73 		movw	r3, #20235
  87 0078 C4F20003 		movt	r3, 16384
  88 007c 44F60B72 		movw	r2, #20235
  89 0080 C4F20002 		movt	r2, 16384
  90 0084 1278     		ldrb	r2, [r2, #0]
  91 0086 D2B2     		uxtb	r2, r2
  92 0088 22F00F02 		bic	r2, r2, #15
  93 008c D2B2     		uxtb	r2, r2
  94 008e 1A70     		strb	r2, [r3, #0]
 111:.\Generated_Source\PSoC5/Fire_Timer.c ****         Fire_Timer_RT1 |= Fire_Timer_SYNCDSI_EN;
  95              		.loc 1 111 0
  96 0090 44F60B73 		movw	r3, #20235
  97 0094 C4F20003 		movt	r3, 16384
  98 0098 44F60B72 		movw	r2, #20235
  99 009c C4F20002 		movt	r2, 16384
 100 00a0 1278     		ldrb	r2, [r2, #0]
 101 00a2 D2B2     		uxtb	r2, r2
 102 00a4 42F00F02 		orr	r2, r2, #15
 103 00a8 D2B2     		uxtb	r2, r2
 104 00aa 1A70     		strb	r2, [r3, #0]
 112:.\Generated_Source\PSoC5/Fire_Timer.c **** 
 113:.\Generated_Source\PSoC5/Fire_Timer.c ****         /* Set the IRQ to use the status register interrupts */
 114:.\Generated_Source\PSoC5/Fire_Timer.c ****         Fire_Timer_CONTROL2 |= Fire_Timer_CTRL2_IRQ_SEL;
 105              		.loc 1 114 0
 106 00ac 44F60173 		movw	r3, #20225
 107 00b0 C4F20003 		movt	r3, 16384
 108 00b4 44F60172 		movw	r2, #20225
 109 00b8 C4F20002 		movt	r2, 16384
 110 00bc 1278     		ldrb	r2, [r2, #0]
 111 00be D2B2     		uxtb	r2, r2
 112 00c0 42F00102 		orr	r2, r2, #1
 113 00c4 D2B2     		uxtb	r2, r2
 114 00c6 1A70     		strb	r2, [r3, #0]
ARM GAS  C:\Users\Colin\AppData\Local\Temp\cc5TNLaT.s 			page 5


 115:.\Generated_Source\PSoC5/Fire_Timer.c ****     #endif /* Configuring registers of fixed function implementation */
 116:.\Generated_Source\PSoC5/Fire_Timer.c **** 
 117:.\Generated_Source\PSoC5/Fire_Timer.c ****     /* Set Initial values from Configuration */
 118:.\Generated_Source\PSoC5/Fire_Timer.c ****     Fire_Timer_WritePeriod(Fire_Timer_INIT_PERIOD);
 115              		.loc 1 118 0
 116 00c8 40F23F60 		movw	r0, #1599
 117 00cc FFF7FEFF 		bl	Fire_Timer_WritePeriod
 119:.\Generated_Source\PSoC5/Fire_Timer.c ****     Fire_Timer_WriteCounter(Fire_Timer_INIT_PERIOD);
 118              		.loc 1 119 0
 119 00d0 40F23F60 		movw	r0, #1599
 120 00d4 FFF7FEFF 		bl	Fire_Timer_WriteCounter
 120:.\Generated_Source\PSoC5/Fire_Timer.c **** 
 121:.\Generated_Source\PSoC5/Fire_Timer.c ****     #if (Fire_Timer_UsingHWCaptureCounter)/* Capture counter is enabled */
 122:.\Generated_Source\PSoC5/Fire_Timer.c ****         Fire_Timer_CAPTURE_COUNT_CTRL |= Fire_Timer_CNTR_ENABLE;
 123:.\Generated_Source\PSoC5/Fire_Timer.c ****         Fire_Timer_SetCaptureCount(Fire_Timer_INIT_CAPTURE_COUNT);
 124:.\Generated_Source\PSoC5/Fire_Timer.c ****     #endif /* Configure capture counter value */
 125:.\Generated_Source\PSoC5/Fire_Timer.c **** 
 126:.\Generated_Source\PSoC5/Fire_Timer.c ****     #if (!Fire_Timer_UsingFixedFunction)
 127:.\Generated_Source\PSoC5/Fire_Timer.c ****         #if (Fire_Timer_SoftwareCaptureMode)
 128:.\Generated_Source\PSoC5/Fire_Timer.c ****             Fire_Timer_SetCaptureMode(Fire_Timer_INIT_CAPTURE_MODE);
 129:.\Generated_Source\PSoC5/Fire_Timer.c ****         #endif /* Set Capture Mode for UDB implementation if capture mode is software controlled */
 130:.\Generated_Source\PSoC5/Fire_Timer.c **** 
 131:.\Generated_Source\PSoC5/Fire_Timer.c ****         #if (Fire_Timer_SoftwareTriggerMode)
 132:.\Generated_Source\PSoC5/Fire_Timer.c ****             if (0u == (Fire_Timer_CONTROL & Fire_Timer__B_TIMER__TM_SOFTWARE))
 133:.\Generated_Source\PSoC5/Fire_Timer.c ****             {
 134:.\Generated_Source\PSoC5/Fire_Timer.c ****                 Fire_Timer_SetTriggerMode(Fire_Timer_INIT_TRIGGER_MODE);
 135:.\Generated_Source\PSoC5/Fire_Timer.c ****             }
 136:.\Generated_Source\PSoC5/Fire_Timer.c ****         #endif /* Set trigger mode for UDB Implementation if trigger mode is software controlled */
 137:.\Generated_Source\PSoC5/Fire_Timer.c **** 
 138:.\Generated_Source\PSoC5/Fire_Timer.c ****         /* CyEnterCriticalRegion and CyExitCriticalRegion are used to mark following region critica
 139:.\Generated_Source\PSoC5/Fire_Timer.c ****         /* Enter Critical Region*/
 140:.\Generated_Source\PSoC5/Fire_Timer.c ****         Fire_Timer_interruptState = CyEnterCriticalSection();
 141:.\Generated_Source\PSoC5/Fire_Timer.c **** 
 142:.\Generated_Source\PSoC5/Fire_Timer.c ****         /* Use the interrupt output of the status register for IRQ output */
 143:.\Generated_Source\PSoC5/Fire_Timer.c ****         Fire_Timer_STATUS_AUX_CTRL |= Fire_Timer_STATUS_ACTL_INT_EN_MASK;
 144:.\Generated_Source\PSoC5/Fire_Timer.c **** 
 145:.\Generated_Source\PSoC5/Fire_Timer.c ****         /* Exit Critical Region*/
 146:.\Generated_Source\PSoC5/Fire_Timer.c ****         CyExitCriticalSection(Fire_Timer_interruptState);
 147:.\Generated_Source\PSoC5/Fire_Timer.c **** 
 148:.\Generated_Source\PSoC5/Fire_Timer.c ****         #if (Fire_Timer_EnableTriggerMode)
 149:.\Generated_Source\PSoC5/Fire_Timer.c ****             Fire_Timer_EnableTrigger();
 150:.\Generated_Source\PSoC5/Fire_Timer.c ****         #endif /* Set Trigger enable bit for UDB implementation in the control register*/
 151:.\Generated_Source\PSoC5/Fire_Timer.c **** 
 152:.\Generated_Source\PSoC5/Fire_Timer.c ****         #if (Fire_Timer_InterruptOnCaptureCount)
 153:.\Generated_Source\PSoC5/Fire_Timer.c ****              #if (!Fire_Timer_ControlRegRemoved)
 154:.\Generated_Source\PSoC5/Fire_Timer.c ****                 Fire_Timer_SetInterruptCount(Fire_Timer_INIT_INT_CAPTURE_COUNT);
 155:.\Generated_Source\PSoC5/Fire_Timer.c ****             #endif /* Set interrupt count in control register if control register is not removed */
 156:.\Generated_Source\PSoC5/Fire_Timer.c ****         #endif /*Set interrupt count in UDB implementation if interrupt count feature is checked.*/
 157:.\Generated_Source\PSoC5/Fire_Timer.c **** 
 158:.\Generated_Source\PSoC5/Fire_Timer.c ****         Fire_Timer_ClearFIFO();
 159:.\Generated_Source\PSoC5/Fire_Timer.c ****     #endif /* Configure additional features of UDB implementation */
 160:.\Generated_Source\PSoC5/Fire_Timer.c **** 
 161:.\Generated_Source\PSoC5/Fire_Timer.c ****     Fire_Timer_SetInterruptMode(Fire_Timer_INIT_INTERRUPT_MODE);
 121              		.loc 1 161 0
 122 00d8 4FF00800 		mov	r0, #8
 123 00dc FFF7FEFF 		bl	Fire_Timer_SetInterruptMode
 162:.\Generated_Source\PSoC5/Fire_Timer.c **** }
ARM GAS  C:\Users\Colin\AppData\Local\Temp\cc5TNLaT.s 			page 6


 124              		.loc 1 162 0
 125 00e0 80BD     		pop	{r7, pc}
 126              		.cfi_endproc
 127              	.LFE0:
 128              		.size	Fire_Timer_Init, .-Fire_Timer_Init
 129 00e2 00BF     		.section	.text.Fire_Timer_Enable,"ax",%progbits
 130              		.align	2
 131              		.global	Fire_Timer_Enable
 132              		.thumb
 133              		.thumb_func
 134              		.type	Fire_Timer_Enable, %function
 135              	Fire_Timer_Enable:
 136              	.LFB1:
 163:.\Generated_Source\PSoC5/Fire_Timer.c **** 
 164:.\Generated_Source\PSoC5/Fire_Timer.c **** 
 165:.\Generated_Source\PSoC5/Fire_Timer.c **** /*******************************************************************************
 166:.\Generated_Source\PSoC5/Fire_Timer.c **** * Function Name: Fire_Timer_Enable
 167:.\Generated_Source\PSoC5/Fire_Timer.c **** ********************************************************************************
 168:.\Generated_Source\PSoC5/Fire_Timer.c **** *
 169:.\Generated_Source\PSoC5/Fire_Timer.c **** * Summary:
 170:.\Generated_Source\PSoC5/Fire_Timer.c **** *  Enable the Timer
 171:.\Generated_Source\PSoC5/Fire_Timer.c **** *
 172:.\Generated_Source\PSoC5/Fire_Timer.c **** * Parameters:
 173:.\Generated_Source\PSoC5/Fire_Timer.c **** *  void
 174:.\Generated_Source\PSoC5/Fire_Timer.c **** *
 175:.\Generated_Source\PSoC5/Fire_Timer.c **** * Return:
 176:.\Generated_Source\PSoC5/Fire_Timer.c **** *  void
 177:.\Generated_Source\PSoC5/Fire_Timer.c **** *
 178:.\Generated_Source\PSoC5/Fire_Timer.c **** *******************************************************************************/
 179:.\Generated_Source\PSoC5/Fire_Timer.c **** void Fire_Timer_Enable(void) 
 180:.\Generated_Source\PSoC5/Fire_Timer.c **** {
 137              		.loc 1 180 0
 138              		.cfi_startproc
 139              		@ args = 0, pretend = 0, frame = 0
 140              		@ frame_needed = 1, uses_anonymous_args = 0
 141              		@ link register save eliminated.
 142 0000 80B4     		push	{r7}
 143              	.LCFI2:
 144              		.cfi_def_cfa_offset 4
 145              		.cfi_offset 7, -4
 146 0002 00AF     		add	r7, sp, #0
 147              	.LCFI3:
 148              		.cfi_def_cfa_register 7
 181:.\Generated_Source\PSoC5/Fire_Timer.c ****     /* Globally Enable the Fixed Function Block chosen */
 182:.\Generated_Source\PSoC5/Fire_Timer.c ****     #if (Fire_Timer_UsingFixedFunction)
 183:.\Generated_Source\PSoC5/Fire_Timer.c ****         Fire_Timer_GLOBAL_ENABLE |= Fire_Timer_BLOCK_EN_MASK;
 149              		.loc 1 183 0
 150 0004 44F2A333 		movw	r3, #17315
 151 0008 C4F20003 		movt	r3, 16384
 152 000c 44F2A332 		movw	r2, #17315
 153 0010 C4F20002 		movt	r2, 16384
 154 0014 1278     		ldrb	r2, [r2, #0]
 155 0016 D2B2     		uxtb	r2, r2
 156 0018 42F00102 		orr	r2, r2, #1
 157 001c D2B2     		uxtb	r2, r2
 158 001e 1A70     		strb	r2, [r3, #0]
 184:.\Generated_Source\PSoC5/Fire_Timer.c ****         Fire_Timer_GLOBAL_STBY_ENABLE |= Fire_Timer_BLOCK_STBY_EN_MASK;
ARM GAS  C:\Users\Colin\AppData\Local\Temp\cc5TNLaT.s 			page 7


 159              		.loc 1 184 0
 160 0020 44F2B333 		movw	r3, #17331
 161 0024 C4F20003 		movt	r3, 16384
 162 0028 44F2B332 		movw	r2, #17331
 163 002c C4F20002 		movt	r2, 16384
 164 0030 1278     		ldrb	r2, [r2, #0]
 165 0032 D2B2     		uxtb	r2, r2
 166 0034 42F00102 		orr	r2, r2, #1
 167 0038 D2B2     		uxtb	r2, r2
 168 003a 1A70     		strb	r2, [r3, #0]
 185:.\Generated_Source\PSoC5/Fire_Timer.c ****     #endif /* Set Enable bit for enabling Fixed function timer*/
 186:.\Generated_Source\PSoC5/Fire_Timer.c **** 
 187:.\Generated_Source\PSoC5/Fire_Timer.c ****     /* Remove assignment if control register is removed */
 188:.\Generated_Source\PSoC5/Fire_Timer.c ****     #if (!Fire_Timer_ControlRegRemoved || Fire_Timer_UsingFixedFunction)
 189:.\Generated_Source\PSoC5/Fire_Timer.c ****         Fire_Timer_CONTROL |= Fire_Timer_CTRL_ENABLE;
 169              		.loc 1 189 0
 170 003c 4FF49E43 		mov	r3, #20224
 171 0040 C4F20003 		movt	r3, 16384
 172 0044 4FF49E42 		mov	r2, #20224
 173 0048 C4F20002 		movt	r2, 16384
 174 004c 1278     		ldrb	r2, [r2, #0]
 175 004e D2B2     		uxtb	r2, r2
 176 0050 42F00102 		orr	r2, r2, #1
 177 0054 D2B2     		uxtb	r2, r2
 178 0056 1A70     		strb	r2, [r3, #0]
 190:.\Generated_Source\PSoC5/Fire_Timer.c ****     #endif /* Remove assignment if control register is removed */
 191:.\Generated_Source\PSoC5/Fire_Timer.c **** }
 179              		.loc 1 191 0
 180 0058 BD46     		mov	sp, r7
 181 005a 80BC     		pop	{r7}
 182 005c 7047     		bx	lr
 183              		.cfi_endproc
 184              	.LFE1:
 185              		.size	Fire_Timer_Enable, .-Fire_Timer_Enable
 186 005e 00BF     		.section	.text.Fire_Timer_Start,"ax",%progbits
 187              		.align	2
 188              		.global	Fire_Timer_Start
 189              		.thumb
 190              		.thumb_func
 191              		.type	Fire_Timer_Start, %function
 192              	Fire_Timer_Start:
 193              	.LFB2:
 192:.\Generated_Source\PSoC5/Fire_Timer.c **** 
 193:.\Generated_Source\PSoC5/Fire_Timer.c **** 
 194:.\Generated_Source\PSoC5/Fire_Timer.c **** /*******************************************************************************
 195:.\Generated_Source\PSoC5/Fire_Timer.c **** * Function Name: Fire_Timer_Start
 196:.\Generated_Source\PSoC5/Fire_Timer.c **** ********************************************************************************
 197:.\Generated_Source\PSoC5/Fire_Timer.c **** *
 198:.\Generated_Source\PSoC5/Fire_Timer.c **** * Summary:
 199:.\Generated_Source\PSoC5/Fire_Timer.c **** *  The start function initializes the timer with the default values, the
 200:.\Generated_Source\PSoC5/Fire_Timer.c **** *  enables the timerto begin counting.  It does not enable interrupts,
 201:.\Generated_Source\PSoC5/Fire_Timer.c **** *  the EnableInt command should be called if interrupt generation is required.
 202:.\Generated_Source\PSoC5/Fire_Timer.c **** *
 203:.\Generated_Source\PSoC5/Fire_Timer.c **** * Parameters:
 204:.\Generated_Source\PSoC5/Fire_Timer.c **** *  void
 205:.\Generated_Source\PSoC5/Fire_Timer.c **** *
 206:.\Generated_Source\PSoC5/Fire_Timer.c **** * Return:
ARM GAS  C:\Users\Colin\AppData\Local\Temp\cc5TNLaT.s 			page 8


 207:.\Generated_Source\PSoC5/Fire_Timer.c **** *  void
 208:.\Generated_Source\PSoC5/Fire_Timer.c **** *
 209:.\Generated_Source\PSoC5/Fire_Timer.c **** * Global variables:
 210:.\Generated_Source\PSoC5/Fire_Timer.c **** *  Fire_Timer_initVar: Is modified when this function is called for the
 211:.\Generated_Source\PSoC5/Fire_Timer.c **** *   first time. Is used to ensure that initialization happens only once.
 212:.\Generated_Source\PSoC5/Fire_Timer.c **** *
 213:.\Generated_Source\PSoC5/Fire_Timer.c **** *******************************************************************************/
 214:.\Generated_Source\PSoC5/Fire_Timer.c **** void Fire_Timer_Start(void) 
 215:.\Generated_Source\PSoC5/Fire_Timer.c **** {
 194              		.loc 1 215 0
 195              		.cfi_startproc
 196              		@ args = 0, pretend = 0, frame = 0
 197              		@ frame_needed = 1, uses_anonymous_args = 0
 198 0000 80B5     		push	{r7, lr}
 199              	.LCFI4:
 200              		.cfi_def_cfa_offset 8
 201              		.cfi_offset 7, -8
 202              		.cfi_offset 14, -4
 203 0002 00AF     		add	r7, sp, #0
 204              	.LCFI5:
 205              		.cfi_def_cfa_register 7
 216:.\Generated_Source\PSoC5/Fire_Timer.c ****     if(Fire_Timer_initVar == 0u)
 206              		.loc 1 216 0
 207 0004 40F20003 		movw	r3, #:lower16:Fire_Timer_initVar
 208 0008 C0F20003 		movt	r3, #:upper16:Fire_Timer_initVar
 209 000c 1B78     		ldrb	r3, [r3, #0]	@ zero_extendqisi2
 210 000e 002B     		cmp	r3, #0
 211 0010 08D1     		bne	.L4
 217:.\Generated_Source\PSoC5/Fire_Timer.c ****     {
 218:.\Generated_Source\PSoC5/Fire_Timer.c ****         Fire_Timer_Init();
 212              		.loc 1 218 0
 213 0012 FFF7FEFF 		bl	Fire_Timer_Init
 219:.\Generated_Source\PSoC5/Fire_Timer.c **** 
 220:.\Generated_Source\PSoC5/Fire_Timer.c ****         Fire_Timer_initVar = 1u;   /* Clear this bit for Initialization */
 214              		.loc 1 220 0
 215 0016 40F20003 		movw	r3, #:lower16:Fire_Timer_initVar
 216 001a C0F20003 		movt	r3, #:upper16:Fire_Timer_initVar
 217 001e 4FF00102 		mov	r2, #1
 218 0022 1A70     		strb	r2, [r3, #0]
 219              	.L4:
 221:.\Generated_Source\PSoC5/Fire_Timer.c ****     }
 222:.\Generated_Source\PSoC5/Fire_Timer.c **** 
 223:.\Generated_Source\PSoC5/Fire_Timer.c ****     /* Enable the Timer */
 224:.\Generated_Source\PSoC5/Fire_Timer.c ****     Fire_Timer_Enable();
 220              		.loc 1 224 0
 221 0024 FFF7FEFF 		bl	Fire_Timer_Enable
 225:.\Generated_Source\PSoC5/Fire_Timer.c **** }
 222              		.loc 1 225 0
 223 0028 80BD     		pop	{r7, pc}
 224              		.cfi_endproc
 225              	.LFE2:
 226              		.size	Fire_Timer_Start, .-Fire_Timer_Start
 227 002a 00BF     		.section	.text.Fire_Timer_Stop,"ax",%progbits
 228              		.align	2
 229              		.global	Fire_Timer_Stop
 230              		.thumb
 231              		.thumb_func
ARM GAS  C:\Users\Colin\AppData\Local\Temp\cc5TNLaT.s 			page 9


 232              		.type	Fire_Timer_Stop, %function
 233              	Fire_Timer_Stop:
 234              	.LFB3:
 226:.\Generated_Source\PSoC5/Fire_Timer.c **** 
 227:.\Generated_Source\PSoC5/Fire_Timer.c **** 
 228:.\Generated_Source\PSoC5/Fire_Timer.c **** /*******************************************************************************
 229:.\Generated_Source\PSoC5/Fire_Timer.c **** * Function Name: Fire_Timer_Stop
 230:.\Generated_Source\PSoC5/Fire_Timer.c **** ********************************************************************************
 231:.\Generated_Source\PSoC5/Fire_Timer.c **** *
 232:.\Generated_Source\PSoC5/Fire_Timer.c **** * Summary:
 233:.\Generated_Source\PSoC5/Fire_Timer.c **** *  The stop function halts the timer, but does not change any modes or disable
 234:.\Generated_Source\PSoC5/Fire_Timer.c **** *  interrupts.
 235:.\Generated_Source\PSoC5/Fire_Timer.c **** *
 236:.\Generated_Source\PSoC5/Fire_Timer.c **** * Parameters:
 237:.\Generated_Source\PSoC5/Fire_Timer.c **** *  void
 238:.\Generated_Source\PSoC5/Fire_Timer.c **** *
 239:.\Generated_Source\PSoC5/Fire_Timer.c **** * Return:
 240:.\Generated_Source\PSoC5/Fire_Timer.c **** *  void
 241:.\Generated_Source\PSoC5/Fire_Timer.c **** *
 242:.\Generated_Source\PSoC5/Fire_Timer.c **** * Side Effects: If the Enable mode is set to Hardware only then this function
 243:.\Generated_Source\PSoC5/Fire_Timer.c **** *               has no effect on the operation of the timer.
 244:.\Generated_Source\PSoC5/Fire_Timer.c **** *
 245:.\Generated_Source\PSoC5/Fire_Timer.c **** *******************************************************************************/
 246:.\Generated_Source\PSoC5/Fire_Timer.c **** void Fire_Timer_Stop(void) 
 247:.\Generated_Source\PSoC5/Fire_Timer.c **** {
 235              		.loc 1 247 0
 236              		.cfi_startproc
 237              		@ args = 0, pretend = 0, frame = 0
 238              		@ frame_needed = 1, uses_anonymous_args = 0
 239              		@ link register save eliminated.
 240 0000 80B4     		push	{r7}
 241              	.LCFI6:
 242              		.cfi_def_cfa_offset 4
 243              		.cfi_offset 7, -4
 244 0002 00AF     		add	r7, sp, #0
 245              	.LCFI7:
 246              		.cfi_def_cfa_register 7
 248:.\Generated_Source\PSoC5/Fire_Timer.c ****     /* Disable Timer */
 249:.\Generated_Source\PSoC5/Fire_Timer.c ****     #if(!Fire_Timer_ControlRegRemoved || Fire_Timer_UsingFixedFunction)
 250:.\Generated_Source\PSoC5/Fire_Timer.c ****         Fire_Timer_CONTROL &= ((uint8)(~Fire_Timer_CTRL_ENABLE));
 247              		.loc 1 250 0
 248 0004 4FF49E43 		mov	r3, #20224
 249 0008 C4F20003 		movt	r3, 16384
 250 000c 4FF49E42 		mov	r2, #20224
 251 0010 C4F20002 		movt	r2, 16384
 252 0014 1278     		ldrb	r2, [r2, #0]
 253 0016 D2B2     		uxtb	r2, r2
 254 0018 22F00102 		bic	r2, r2, #1
 255 001c D2B2     		uxtb	r2, r2
 256 001e 1A70     		strb	r2, [r3, #0]
 251:.\Generated_Source\PSoC5/Fire_Timer.c ****     #endif /* Remove assignment if control register is removed */
 252:.\Generated_Source\PSoC5/Fire_Timer.c **** 
 253:.\Generated_Source\PSoC5/Fire_Timer.c ****     /* Globally disable the Fixed Function Block chosen */
 254:.\Generated_Source\PSoC5/Fire_Timer.c ****     #if (Fire_Timer_UsingFixedFunction)
 255:.\Generated_Source\PSoC5/Fire_Timer.c ****         Fire_Timer_GLOBAL_ENABLE &= ((uint8)(~Fire_Timer_BLOCK_EN_MASK));
 257              		.loc 1 255 0
 258 0020 44F2A333 		movw	r3, #17315
ARM GAS  C:\Users\Colin\AppData\Local\Temp\cc5TNLaT.s 			page 10


 259 0024 C4F20003 		movt	r3, 16384
 260 0028 44F2A332 		movw	r2, #17315
 261 002c C4F20002 		movt	r2, 16384
 262 0030 1278     		ldrb	r2, [r2, #0]
 263 0032 D2B2     		uxtb	r2, r2
 264 0034 22F00102 		bic	r2, r2, #1
 265 0038 D2B2     		uxtb	r2, r2
 266 003a 1A70     		strb	r2, [r3, #0]
 256:.\Generated_Source\PSoC5/Fire_Timer.c ****         Fire_Timer_GLOBAL_STBY_ENABLE &= ((uint8)(~Fire_Timer_BLOCK_STBY_EN_MASK));
 267              		.loc 1 256 0
 268 003c 44F2B333 		movw	r3, #17331
 269 0040 C4F20003 		movt	r3, 16384
 270 0044 44F2B332 		movw	r2, #17331
 271 0048 C4F20002 		movt	r2, 16384
 272 004c 1278     		ldrb	r2, [r2, #0]
 273 004e D2B2     		uxtb	r2, r2
 274 0050 22F00102 		bic	r2, r2, #1
 275 0054 D2B2     		uxtb	r2, r2
 276 0056 1A70     		strb	r2, [r3, #0]
 257:.\Generated_Source\PSoC5/Fire_Timer.c ****     #endif /* Disable global enable for the Timer Fixed function block to stop the Timer*/
 258:.\Generated_Source\PSoC5/Fire_Timer.c **** }
 277              		.loc 1 258 0
 278 0058 BD46     		mov	sp, r7
 279 005a 80BC     		pop	{r7}
 280 005c 7047     		bx	lr
 281              		.cfi_endproc
 282              	.LFE3:
 283              		.size	Fire_Timer_Stop, .-Fire_Timer_Stop
 284 005e 00BF     		.section	.text.Fire_Timer_SetInterruptMode,"ax",%progbits
 285              		.align	2
 286              		.global	Fire_Timer_SetInterruptMode
 287              		.thumb
 288              		.thumb_func
 289              		.type	Fire_Timer_SetInterruptMode, %function
 290              	Fire_Timer_SetInterruptMode:
 291              	.LFB4:
 259:.\Generated_Source\PSoC5/Fire_Timer.c **** 
 260:.\Generated_Source\PSoC5/Fire_Timer.c **** 
 261:.\Generated_Source\PSoC5/Fire_Timer.c **** /*******************************************************************************
 262:.\Generated_Source\PSoC5/Fire_Timer.c **** * Function Name: Fire_Timer_SetInterruptMode
 263:.\Generated_Source\PSoC5/Fire_Timer.c **** ********************************************************************************
 264:.\Generated_Source\PSoC5/Fire_Timer.c **** *
 265:.\Generated_Source\PSoC5/Fire_Timer.c **** * Summary:
 266:.\Generated_Source\PSoC5/Fire_Timer.c **** *  This function selects which of the interrupt inputs may cause an interrupt.
 267:.\Generated_Source\PSoC5/Fire_Timer.c **** *  The twosources are caputure and terminal.  One, both or neither may
 268:.\Generated_Source\PSoC5/Fire_Timer.c **** *  be selected.
 269:.\Generated_Source\PSoC5/Fire_Timer.c **** *
 270:.\Generated_Source\PSoC5/Fire_Timer.c **** * Parameters:
 271:.\Generated_Source\PSoC5/Fire_Timer.c **** *  interruptMode:   This parameter is used to enable interrups on either/or
 272:.\Generated_Source\PSoC5/Fire_Timer.c **** *                   terminal count or capture.
 273:.\Generated_Source\PSoC5/Fire_Timer.c **** *
 274:.\Generated_Source\PSoC5/Fire_Timer.c **** * Return:
 275:.\Generated_Source\PSoC5/Fire_Timer.c **** *  void
 276:.\Generated_Source\PSoC5/Fire_Timer.c **** *
 277:.\Generated_Source\PSoC5/Fire_Timer.c **** *******************************************************************************/
 278:.\Generated_Source\PSoC5/Fire_Timer.c **** void Fire_Timer_SetInterruptMode(uint8 interruptMode) 
 279:.\Generated_Source\PSoC5/Fire_Timer.c **** {
ARM GAS  C:\Users\Colin\AppData\Local\Temp\cc5TNLaT.s 			page 11


 292              		.loc 1 279 0
 293              		.cfi_startproc
 294              		@ args = 0, pretend = 0, frame = 8
 295              		@ frame_needed = 1, uses_anonymous_args = 0
 296              		@ link register save eliminated.
 297 0000 80B4     		push	{r7}
 298              	.LCFI8:
 299              		.cfi_def_cfa_offset 4
 300              		.cfi_offset 7, -4
 301 0002 83B0     		sub	sp, sp, #12
 302              	.LCFI9:
 303              		.cfi_def_cfa_offset 16
 304 0004 00AF     		add	r7, sp, #0
 305              	.LCFI10:
 306              		.cfi_def_cfa_register 7
 307 0006 0346     		mov	r3, r0
 308 0008 FB71     		strb	r3, [r7, #7]
 280:.\Generated_Source\PSoC5/Fire_Timer.c ****     Fire_Timer_STATUS_MASK = interruptMode;
 309              		.loc 1 280 0
 310 000a 44F60373 		movw	r3, #20227
 311 000e C4F20003 		movt	r3, 16384
 312 0012 FA79     		ldrb	r2, [r7, #7]
 313 0014 1A70     		strb	r2, [r3, #0]
 281:.\Generated_Source\PSoC5/Fire_Timer.c **** }
 314              		.loc 1 281 0
 315 0016 07F10C07 		add	r7, r7, #12
 316 001a BD46     		mov	sp, r7
 317 001c 80BC     		pop	{r7}
 318 001e 7047     		bx	lr
 319              		.cfi_endproc
 320              	.LFE4:
 321              		.size	Fire_Timer_SetInterruptMode, .-Fire_Timer_SetInterruptMode
 322              		.section	.text.Fire_Timer_SoftwareCapture,"ax",%progbits
 323              		.align	2
 324              		.global	Fire_Timer_SoftwareCapture
 325              		.thumb
 326              		.thumb_func
 327              		.type	Fire_Timer_SoftwareCapture, %function
 328              	Fire_Timer_SoftwareCapture:
 329              	.LFB5:
 282:.\Generated_Source\PSoC5/Fire_Timer.c **** 
 283:.\Generated_Source\PSoC5/Fire_Timer.c **** 
 284:.\Generated_Source\PSoC5/Fire_Timer.c **** /*******************************************************************************
 285:.\Generated_Source\PSoC5/Fire_Timer.c **** * Function Name: Fire_Timer_SoftwareCapture
 286:.\Generated_Source\PSoC5/Fire_Timer.c **** ********************************************************************************
 287:.\Generated_Source\PSoC5/Fire_Timer.c **** *
 288:.\Generated_Source\PSoC5/Fire_Timer.c **** * Summary:
 289:.\Generated_Source\PSoC5/Fire_Timer.c **** *  This function forces a capture independent of the capture signal.
 290:.\Generated_Source\PSoC5/Fire_Timer.c **** *
 291:.\Generated_Source\PSoC5/Fire_Timer.c **** * Parameters:
 292:.\Generated_Source\PSoC5/Fire_Timer.c **** *  void
 293:.\Generated_Source\PSoC5/Fire_Timer.c **** *
 294:.\Generated_Source\PSoC5/Fire_Timer.c **** * Return:
 295:.\Generated_Source\PSoC5/Fire_Timer.c **** *  void
 296:.\Generated_Source\PSoC5/Fire_Timer.c **** *
 297:.\Generated_Source\PSoC5/Fire_Timer.c **** * Side Effects:
 298:.\Generated_Source\PSoC5/Fire_Timer.c **** *  An existing hardware capture could be overwritten.
ARM GAS  C:\Users\Colin\AppData\Local\Temp\cc5TNLaT.s 			page 12


 299:.\Generated_Source\PSoC5/Fire_Timer.c **** *
 300:.\Generated_Source\PSoC5/Fire_Timer.c **** *******************************************************************************/
 301:.\Generated_Source\PSoC5/Fire_Timer.c **** void Fire_Timer_SoftwareCapture(void) 
 302:.\Generated_Source\PSoC5/Fire_Timer.c **** {
 330              		.loc 1 302 0
 331              		.cfi_startproc
 332              		@ args = 0, pretend = 0, frame = 0
 333              		@ frame_needed = 1, uses_anonymous_args = 0
 334              		@ link register save eliminated.
 335 0000 80B4     		push	{r7}
 336              	.LCFI11:
 337              		.cfi_def_cfa_offset 4
 338              		.cfi_offset 7, -4
 339 0002 00AF     		add	r7, sp, #0
 340              	.LCFI12:
 341              		.cfi_def_cfa_register 7
 303:.\Generated_Source\PSoC5/Fire_Timer.c ****     /* Generate a software capture by reading the counter register */
 304:.\Generated_Source\PSoC5/Fire_Timer.c ****     (void)Fire_Timer_COUNTER_LSB;
 342              		.loc 1 304 0
 343 0004 44F60673 		movw	r3, #20230
 344 0008 C4F20003 		movt	r3, 16384
 345 000c 1B88     		ldrh	r3, [r3, #0]	@ movhi
 305:.\Generated_Source\PSoC5/Fire_Timer.c ****     /* Capture Data is now in the FIFO */
 306:.\Generated_Source\PSoC5/Fire_Timer.c **** }
 346              		.loc 1 306 0
 347 000e BD46     		mov	sp, r7
 348 0010 80BC     		pop	{r7}
 349 0012 7047     		bx	lr
 350              		.cfi_endproc
 351              	.LFE5:
 352              		.size	Fire_Timer_SoftwareCapture, .-Fire_Timer_SoftwareCapture
 353              		.section	.text.Fire_Timer_ReadStatusRegister,"ax",%progbits
 354              		.align	2
 355              		.global	Fire_Timer_ReadStatusRegister
 356              		.thumb
 357              		.thumb_func
 358              		.type	Fire_Timer_ReadStatusRegister, %function
 359              	Fire_Timer_ReadStatusRegister:
 360              	.LFB6:
 307:.\Generated_Source\PSoC5/Fire_Timer.c **** 
 308:.\Generated_Source\PSoC5/Fire_Timer.c **** 
 309:.\Generated_Source\PSoC5/Fire_Timer.c **** /*******************************************************************************
 310:.\Generated_Source\PSoC5/Fire_Timer.c **** * Function Name: Fire_Timer_ReadStatusRegister
 311:.\Generated_Source\PSoC5/Fire_Timer.c **** ********************************************************************************
 312:.\Generated_Source\PSoC5/Fire_Timer.c **** *
 313:.\Generated_Source\PSoC5/Fire_Timer.c **** * Summary:
 314:.\Generated_Source\PSoC5/Fire_Timer.c **** *  Reads the status register and returns it's state. This function should use
 315:.\Generated_Source\PSoC5/Fire_Timer.c **** *  defined types for the bit-field information as the bits in this register may
 316:.\Generated_Source\PSoC5/Fire_Timer.c **** *  be permuteable.
 317:.\Generated_Source\PSoC5/Fire_Timer.c **** *
 318:.\Generated_Source\PSoC5/Fire_Timer.c **** * Parameters:
 319:.\Generated_Source\PSoC5/Fire_Timer.c **** *  void
 320:.\Generated_Source\PSoC5/Fire_Timer.c **** *
 321:.\Generated_Source\PSoC5/Fire_Timer.c **** * Return:
 322:.\Generated_Source\PSoC5/Fire_Timer.c **** *  The contents of the status register
 323:.\Generated_Source\PSoC5/Fire_Timer.c **** *
 324:.\Generated_Source\PSoC5/Fire_Timer.c **** * Side Effects:
ARM GAS  C:\Users\Colin\AppData\Local\Temp\cc5TNLaT.s 			page 13


 325:.\Generated_Source\PSoC5/Fire_Timer.c **** *  Status register bits may be clear on read.
 326:.\Generated_Source\PSoC5/Fire_Timer.c **** *
 327:.\Generated_Source\PSoC5/Fire_Timer.c **** *******************************************************************************/
 328:.\Generated_Source\PSoC5/Fire_Timer.c **** uint8   Fire_Timer_ReadStatusRegister(void) 
 329:.\Generated_Source\PSoC5/Fire_Timer.c **** {
 361              		.loc 1 329 0
 362              		.cfi_startproc
 363              		@ args = 0, pretend = 0, frame = 0
 364              		@ frame_needed = 1, uses_anonymous_args = 0
 365              		@ link register save eliminated.
 366 0000 80B4     		push	{r7}
 367              	.LCFI13:
 368              		.cfi_def_cfa_offset 4
 369              		.cfi_offset 7, -4
 370 0002 00AF     		add	r7, sp, #0
 371              	.LCFI14:
 372              		.cfi_def_cfa_register 7
 330:.\Generated_Source\PSoC5/Fire_Timer.c ****     return (Fire_Timer_STATUS);
 373              		.loc 1 330 0
 374 0004 44F60373 		movw	r3, #20227
 375 0008 C4F20003 		movt	r3, 16384
 376 000c 1B78     		ldrb	r3, [r3, #0]
 377 000e DBB2     		uxtb	r3, r3
 331:.\Generated_Source\PSoC5/Fire_Timer.c **** }
 378              		.loc 1 331 0
 379 0010 1846     		mov	r0, r3
 380 0012 BD46     		mov	sp, r7
 381 0014 80BC     		pop	{r7}
 382 0016 7047     		bx	lr
 383              		.cfi_endproc
 384              	.LFE6:
 385              		.size	Fire_Timer_ReadStatusRegister, .-Fire_Timer_ReadStatusRegister
 386              		.section	.text.Fire_Timer_ReadControlRegister,"ax",%progbits
 387              		.align	2
 388              		.global	Fire_Timer_ReadControlRegister
 389              		.thumb
 390              		.thumb_func
 391              		.type	Fire_Timer_ReadControlRegister, %function
 392              	Fire_Timer_ReadControlRegister:
 393              	.LFB7:
 332:.\Generated_Source\PSoC5/Fire_Timer.c **** 
 333:.\Generated_Source\PSoC5/Fire_Timer.c **** 
 334:.\Generated_Source\PSoC5/Fire_Timer.c **** #if (!Fire_Timer_ControlRegRemoved) /* Remove API if control register is removed */
 335:.\Generated_Source\PSoC5/Fire_Timer.c **** 
 336:.\Generated_Source\PSoC5/Fire_Timer.c **** 
 337:.\Generated_Source\PSoC5/Fire_Timer.c **** /*******************************************************************************
 338:.\Generated_Source\PSoC5/Fire_Timer.c **** * Function Name: Fire_Timer_ReadControlRegister
 339:.\Generated_Source\PSoC5/Fire_Timer.c **** ********************************************************************************
 340:.\Generated_Source\PSoC5/Fire_Timer.c **** *
 341:.\Generated_Source\PSoC5/Fire_Timer.c **** * Summary:
 342:.\Generated_Source\PSoC5/Fire_Timer.c **** *  Reads the control register and returns it's value.
 343:.\Generated_Source\PSoC5/Fire_Timer.c **** *
 344:.\Generated_Source\PSoC5/Fire_Timer.c **** * Parameters:
 345:.\Generated_Source\PSoC5/Fire_Timer.c **** *  void
 346:.\Generated_Source\PSoC5/Fire_Timer.c **** *
 347:.\Generated_Source\PSoC5/Fire_Timer.c **** * Return:
 348:.\Generated_Source\PSoC5/Fire_Timer.c **** *  The contents of the control register
ARM GAS  C:\Users\Colin\AppData\Local\Temp\cc5TNLaT.s 			page 14


 349:.\Generated_Source\PSoC5/Fire_Timer.c **** *
 350:.\Generated_Source\PSoC5/Fire_Timer.c **** *******************************************************************************/
 351:.\Generated_Source\PSoC5/Fire_Timer.c **** uint8 Fire_Timer_ReadControlRegister(void) 
 352:.\Generated_Source\PSoC5/Fire_Timer.c **** {
 394              		.loc 1 352 0
 395              		.cfi_startproc
 396              		@ args = 0, pretend = 0, frame = 0
 397              		@ frame_needed = 1, uses_anonymous_args = 0
 398              		@ link register save eliminated.
 399 0000 80B4     		push	{r7}
 400              	.LCFI15:
 401              		.cfi_def_cfa_offset 4
 402              		.cfi_offset 7, -4
 403 0002 00AF     		add	r7, sp, #0
 404              	.LCFI16:
 405              		.cfi_def_cfa_register 7
 353:.\Generated_Source\PSoC5/Fire_Timer.c ****     return ((uint8)Fire_Timer_CONTROL);
 406              		.loc 1 353 0
 407 0004 4FF49E43 		mov	r3, #20224
 408 0008 C4F20003 		movt	r3, 16384
 409 000c 1B78     		ldrb	r3, [r3, #0]
 410 000e DBB2     		uxtb	r3, r3
 354:.\Generated_Source\PSoC5/Fire_Timer.c **** }
 411              		.loc 1 354 0
 412 0010 1846     		mov	r0, r3
 413 0012 BD46     		mov	sp, r7
 414 0014 80BC     		pop	{r7}
 415 0016 7047     		bx	lr
 416              		.cfi_endproc
 417              	.LFE7:
 418              		.size	Fire_Timer_ReadControlRegister, .-Fire_Timer_ReadControlRegister
 419              		.section	.text.Fire_Timer_WriteControlRegister,"ax",%progbits
 420              		.align	2
 421              		.global	Fire_Timer_WriteControlRegister
 422              		.thumb
 423              		.thumb_func
 424              		.type	Fire_Timer_WriteControlRegister, %function
 425              	Fire_Timer_WriteControlRegister:
 426              	.LFB8:
 355:.\Generated_Source\PSoC5/Fire_Timer.c **** 
 356:.\Generated_Source\PSoC5/Fire_Timer.c **** 
 357:.\Generated_Source\PSoC5/Fire_Timer.c **** /*******************************************************************************
 358:.\Generated_Source\PSoC5/Fire_Timer.c **** * Function Name: Fire_Timer_WriteControlRegister
 359:.\Generated_Source\PSoC5/Fire_Timer.c **** ********************************************************************************
 360:.\Generated_Source\PSoC5/Fire_Timer.c **** *
 361:.\Generated_Source\PSoC5/Fire_Timer.c **** * Summary:
 362:.\Generated_Source\PSoC5/Fire_Timer.c **** *  Sets the bit-field of the control register.
 363:.\Generated_Source\PSoC5/Fire_Timer.c **** *
 364:.\Generated_Source\PSoC5/Fire_Timer.c **** * Parameters:
 365:.\Generated_Source\PSoC5/Fire_Timer.c **** *  control: The contents of the control register
 366:.\Generated_Source\PSoC5/Fire_Timer.c **** *
 367:.\Generated_Source\PSoC5/Fire_Timer.c **** * Return:
 368:.\Generated_Source\PSoC5/Fire_Timer.c **** *
 369:.\Generated_Source\PSoC5/Fire_Timer.c **** *******************************************************************************/
 370:.\Generated_Source\PSoC5/Fire_Timer.c **** void Fire_Timer_WriteControlRegister(uint8 control) 
 371:.\Generated_Source\PSoC5/Fire_Timer.c **** {
 427              		.loc 1 371 0
ARM GAS  C:\Users\Colin\AppData\Local\Temp\cc5TNLaT.s 			page 15


 428              		.cfi_startproc
 429              		@ args = 0, pretend = 0, frame = 8
 430              		@ frame_needed = 1, uses_anonymous_args = 0
 431              		@ link register save eliminated.
 432 0000 80B4     		push	{r7}
 433              	.LCFI17:
 434              		.cfi_def_cfa_offset 4
 435              		.cfi_offset 7, -4
 436 0002 83B0     		sub	sp, sp, #12
 437              	.LCFI18:
 438              		.cfi_def_cfa_offset 16
 439 0004 00AF     		add	r7, sp, #0
 440              	.LCFI19:
 441              		.cfi_def_cfa_register 7
 442 0006 0346     		mov	r3, r0
 443 0008 FB71     		strb	r3, [r7, #7]
 372:.\Generated_Source\PSoC5/Fire_Timer.c ****     Fire_Timer_CONTROL = control;
 444              		.loc 1 372 0
 445 000a 4FF49E43 		mov	r3, #20224
 446 000e C4F20003 		movt	r3, 16384
 447 0012 FA79     		ldrb	r2, [r7, #7]
 448 0014 1A70     		strb	r2, [r3, #0]
 373:.\Generated_Source\PSoC5/Fire_Timer.c **** }
 449              		.loc 1 373 0
 450 0016 07F10C07 		add	r7, r7, #12
 451 001a BD46     		mov	sp, r7
 452 001c 80BC     		pop	{r7}
 453 001e 7047     		bx	lr
 454              		.cfi_endproc
 455              	.LFE8:
 456              		.size	Fire_Timer_WriteControlRegister, .-Fire_Timer_WriteControlRegister
 457              		.section	.text.Fire_Timer_ReadPeriod,"ax",%progbits
 458              		.align	2
 459              		.global	Fire_Timer_ReadPeriod
 460              		.thumb
 461              		.thumb_func
 462              		.type	Fire_Timer_ReadPeriod, %function
 463              	Fire_Timer_ReadPeriod:
 464              	.LFB9:
 374:.\Generated_Source\PSoC5/Fire_Timer.c **** #endif /* Remove API if control register is removed */
 375:.\Generated_Source\PSoC5/Fire_Timer.c **** 
 376:.\Generated_Source\PSoC5/Fire_Timer.c **** 
 377:.\Generated_Source\PSoC5/Fire_Timer.c **** /*******************************************************************************
 378:.\Generated_Source\PSoC5/Fire_Timer.c **** * Function Name: Fire_Timer_ReadPeriod
 379:.\Generated_Source\PSoC5/Fire_Timer.c **** ********************************************************************************
 380:.\Generated_Source\PSoC5/Fire_Timer.c **** *
 381:.\Generated_Source\PSoC5/Fire_Timer.c **** * Summary:
 382:.\Generated_Source\PSoC5/Fire_Timer.c **** *  This function returns the current value of the Period.
 383:.\Generated_Source\PSoC5/Fire_Timer.c **** *
 384:.\Generated_Source\PSoC5/Fire_Timer.c **** * Parameters:
 385:.\Generated_Source\PSoC5/Fire_Timer.c **** *  void
 386:.\Generated_Source\PSoC5/Fire_Timer.c **** *
 387:.\Generated_Source\PSoC5/Fire_Timer.c **** * Return:
 388:.\Generated_Source\PSoC5/Fire_Timer.c **** *  The present value of the counter.
 389:.\Generated_Source\PSoC5/Fire_Timer.c **** *
 390:.\Generated_Source\PSoC5/Fire_Timer.c **** *******************************************************************************/
 391:.\Generated_Source\PSoC5/Fire_Timer.c **** uint16 Fire_Timer_ReadPeriod(void) 
ARM GAS  C:\Users\Colin\AppData\Local\Temp\cc5TNLaT.s 			page 16


 392:.\Generated_Source\PSoC5/Fire_Timer.c **** {
 465              		.loc 1 392 0
 466              		.cfi_startproc
 467              		@ args = 0, pretend = 0, frame = 0
 468              		@ frame_needed = 1, uses_anonymous_args = 0
 469              		@ link register save eliminated.
 470 0000 80B4     		push	{r7}
 471              	.LCFI20:
 472              		.cfi_def_cfa_offset 4
 473              		.cfi_offset 7, -4
 474 0002 00AF     		add	r7, sp, #0
 475              	.LCFI21:
 476              		.cfi_def_cfa_register 7
 393:.\Generated_Source\PSoC5/Fire_Timer.c ****    #if(Fire_Timer_UsingFixedFunction)
 394:.\Generated_Source\PSoC5/Fire_Timer.c ****        return ((uint16)CY_GET_REG16(Fire_Timer_PERIOD_LSB_PTR));
 477              		.loc 1 394 0
 478 0004 44F60473 		movw	r3, #20228
 479 0008 C4F20003 		movt	r3, 16384
 480 000c 1B88     		ldrh	r3, [r3, #0]	@ movhi
 481 000e 9BB2     		uxth	r3, r3
 395:.\Generated_Source\PSoC5/Fire_Timer.c ****    #else
 396:.\Generated_Source\PSoC5/Fire_Timer.c ****        return (CY_GET_REG16(Fire_Timer_PERIOD_LSB_PTR));
 397:.\Generated_Source\PSoC5/Fire_Timer.c ****    #endif /* (Fire_Timer_UsingFixedFunction) */
 398:.\Generated_Source\PSoC5/Fire_Timer.c **** }
 482              		.loc 1 398 0
 483 0010 1846     		mov	r0, r3
 484 0012 BD46     		mov	sp, r7
 485 0014 80BC     		pop	{r7}
 486 0016 7047     		bx	lr
 487              		.cfi_endproc
 488              	.LFE9:
 489              		.size	Fire_Timer_ReadPeriod, .-Fire_Timer_ReadPeriod
 490              		.section	.text.Fire_Timer_WritePeriod,"ax",%progbits
 491              		.align	2
 492              		.global	Fire_Timer_WritePeriod
 493              		.thumb
 494              		.thumb_func
 495              		.type	Fire_Timer_WritePeriod, %function
 496              	Fire_Timer_WritePeriod:
 497              	.LFB10:
 399:.\Generated_Source\PSoC5/Fire_Timer.c **** 
 400:.\Generated_Source\PSoC5/Fire_Timer.c **** 
 401:.\Generated_Source\PSoC5/Fire_Timer.c **** /*******************************************************************************
 402:.\Generated_Source\PSoC5/Fire_Timer.c **** * Function Name: Fire_Timer_WritePeriod
 403:.\Generated_Source\PSoC5/Fire_Timer.c **** ********************************************************************************
 404:.\Generated_Source\PSoC5/Fire_Timer.c **** *
 405:.\Generated_Source\PSoC5/Fire_Timer.c **** * Summary:
 406:.\Generated_Source\PSoC5/Fire_Timer.c **** *  This function is used to change the period of the counter.  The new period
 407:.\Generated_Source\PSoC5/Fire_Timer.c **** *  will be loaded the next time terminal count is detected.
 408:.\Generated_Source\PSoC5/Fire_Timer.c **** *
 409:.\Generated_Source\PSoC5/Fire_Timer.c **** * Parameters:
 410:.\Generated_Source\PSoC5/Fire_Timer.c **** *  period: This value may be between 1 and (2^Resolution)-1.  A value of 0 will
 411:.\Generated_Source\PSoC5/Fire_Timer.c **** *          result in the counter remaining at zero.
 412:.\Generated_Source\PSoC5/Fire_Timer.c **** *
 413:.\Generated_Source\PSoC5/Fire_Timer.c **** * Return:
 414:.\Generated_Source\PSoC5/Fire_Timer.c **** *  void
 415:.\Generated_Source\PSoC5/Fire_Timer.c **** *
ARM GAS  C:\Users\Colin\AppData\Local\Temp\cc5TNLaT.s 			page 17


 416:.\Generated_Source\PSoC5/Fire_Timer.c **** *******************************************************************************/
 417:.\Generated_Source\PSoC5/Fire_Timer.c **** void Fire_Timer_WritePeriod(uint16 period) 
 418:.\Generated_Source\PSoC5/Fire_Timer.c **** {
 498              		.loc 1 418 0
 499              		.cfi_startproc
 500              		@ args = 0, pretend = 0, frame = 16
 501              		@ frame_needed = 1, uses_anonymous_args = 0
 502              		@ link register save eliminated.
 503 0000 80B4     		push	{r7}
 504              	.LCFI22:
 505              		.cfi_def_cfa_offset 4
 506              		.cfi_offset 7, -4
 507 0002 85B0     		sub	sp, sp, #20
 508              	.LCFI23:
 509              		.cfi_def_cfa_offset 24
 510 0004 00AF     		add	r7, sp, #0
 511              	.LCFI24:
 512              		.cfi_def_cfa_register 7
 513 0006 0346     		mov	r3, r0
 514 0008 FB80     		strh	r3, [r7, #6]	@ movhi
 419:.\Generated_Source\PSoC5/Fire_Timer.c ****     #if(Fire_Timer_UsingFixedFunction)
 420:.\Generated_Source\PSoC5/Fire_Timer.c ****         uint16 period_temp = (uint16)period;
 515              		.loc 1 420 0
 516 000a FB88     		ldrh	r3, [r7, #6]	@ movhi
 517 000c FB81     		strh	r3, [r7, #14]	@ movhi
 421:.\Generated_Source\PSoC5/Fire_Timer.c ****         CY_SET_REG16(Fire_Timer_PERIOD_LSB_PTR, period_temp);
 518              		.loc 1 421 0
 519 000e 44F60473 		movw	r3, #20228
 520 0012 C4F20003 		movt	r3, 16384
 521 0016 FA89     		ldrh	r2, [r7, #14]	@ movhi
 522 0018 1A80     		strh	r2, [r3, #0]	@ movhi
 422:.\Generated_Source\PSoC5/Fire_Timer.c ****     #else
 423:.\Generated_Source\PSoC5/Fire_Timer.c ****         CY_SET_REG16(Fire_Timer_PERIOD_LSB_PTR, period);
 424:.\Generated_Source\PSoC5/Fire_Timer.c ****     #endif /*Write Period value with appropriate resolution suffix depending on UDB or fixed functi
 425:.\Generated_Source\PSoC5/Fire_Timer.c **** }
 523              		.loc 1 425 0
 524 001a 07F11407 		add	r7, r7, #20
 525 001e BD46     		mov	sp, r7
 526 0020 80BC     		pop	{r7}
 527 0022 7047     		bx	lr
 528              		.cfi_endproc
 529              	.LFE10:
 530              		.size	Fire_Timer_WritePeriod, .-Fire_Timer_WritePeriod
 531              		.section	.text.Fire_Timer_ReadCapture,"ax",%progbits
 532              		.align	2
 533              		.global	Fire_Timer_ReadCapture
 534              		.thumb
 535              		.thumb_func
 536              		.type	Fire_Timer_ReadCapture, %function
 537              	Fire_Timer_ReadCapture:
 538              	.LFB11:
 426:.\Generated_Source\PSoC5/Fire_Timer.c **** 
 427:.\Generated_Source\PSoC5/Fire_Timer.c **** 
 428:.\Generated_Source\PSoC5/Fire_Timer.c **** /*******************************************************************************
 429:.\Generated_Source\PSoC5/Fire_Timer.c **** * Function Name: Fire_Timer_ReadCapture
 430:.\Generated_Source\PSoC5/Fire_Timer.c **** ********************************************************************************
 431:.\Generated_Source\PSoC5/Fire_Timer.c **** *
ARM GAS  C:\Users\Colin\AppData\Local\Temp\cc5TNLaT.s 			page 18


 432:.\Generated_Source\PSoC5/Fire_Timer.c **** * Summary:
 433:.\Generated_Source\PSoC5/Fire_Timer.c **** *  This function returns the last value captured.
 434:.\Generated_Source\PSoC5/Fire_Timer.c **** *
 435:.\Generated_Source\PSoC5/Fire_Timer.c **** * Parameters:
 436:.\Generated_Source\PSoC5/Fire_Timer.c **** *  void
 437:.\Generated_Source\PSoC5/Fire_Timer.c **** *
 438:.\Generated_Source\PSoC5/Fire_Timer.c **** * Return:
 439:.\Generated_Source\PSoC5/Fire_Timer.c **** *  Present Capture value.
 440:.\Generated_Source\PSoC5/Fire_Timer.c **** *
 441:.\Generated_Source\PSoC5/Fire_Timer.c **** *******************************************************************************/
 442:.\Generated_Source\PSoC5/Fire_Timer.c **** uint16 Fire_Timer_ReadCapture(void) 
 443:.\Generated_Source\PSoC5/Fire_Timer.c **** {
 539              		.loc 1 443 0
 540              		.cfi_startproc
 541              		@ args = 0, pretend = 0, frame = 0
 542              		@ frame_needed = 1, uses_anonymous_args = 0
 543              		@ link register save eliminated.
 544 0000 80B4     		push	{r7}
 545              	.LCFI25:
 546              		.cfi_def_cfa_offset 4
 547              		.cfi_offset 7, -4
 548 0002 00AF     		add	r7, sp, #0
 549              	.LCFI26:
 550              		.cfi_def_cfa_register 7
 444:.\Generated_Source\PSoC5/Fire_Timer.c ****    #if(Fire_Timer_UsingFixedFunction)
 445:.\Generated_Source\PSoC5/Fire_Timer.c ****        return ((uint16)CY_GET_REG16(Fire_Timer_CAPTURE_LSB_PTR));
 551              		.loc 1 445 0
 552 0004 44F60873 		movw	r3, #20232
 553 0008 C4F20003 		movt	r3, 16384
 554 000c 1B88     		ldrh	r3, [r3, #0]	@ movhi
 555 000e 9BB2     		uxth	r3, r3
 446:.\Generated_Source\PSoC5/Fire_Timer.c ****    #else
 447:.\Generated_Source\PSoC5/Fire_Timer.c ****        return (CY_GET_REG16(Fire_Timer_CAPTURE_LSB_PTR));
 448:.\Generated_Source\PSoC5/Fire_Timer.c ****    #endif /* (Fire_Timer_UsingFixedFunction) */
 449:.\Generated_Source\PSoC5/Fire_Timer.c **** }
 556              		.loc 1 449 0
 557 0010 1846     		mov	r0, r3
 558 0012 BD46     		mov	sp, r7
 559 0014 80BC     		pop	{r7}
 560 0016 7047     		bx	lr
 561              		.cfi_endproc
 562              	.LFE11:
 563              		.size	Fire_Timer_ReadCapture, .-Fire_Timer_ReadCapture
 564              		.section	.text.Fire_Timer_WriteCounter,"ax",%progbits
 565              		.align	2
 566              		.global	Fire_Timer_WriteCounter
 567              		.thumb
 568              		.thumb_func
 569              		.type	Fire_Timer_WriteCounter, %function
 570              	Fire_Timer_WriteCounter:
 571              	.LFB12:
 450:.\Generated_Source\PSoC5/Fire_Timer.c **** 
 451:.\Generated_Source\PSoC5/Fire_Timer.c **** 
 452:.\Generated_Source\PSoC5/Fire_Timer.c **** /*******************************************************************************
 453:.\Generated_Source\PSoC5/Fire_Timer.c **** * Function Name: Fire_Timer_WriteCounter
 454:.\Generated_Source\PSoC5/Fire_Timer.c **** ********************************************************************************
 455:.\Generated_Source\PSoC5/Fire_Timer.c **** *
ARM GAS  C:\Users\Colin\AppData\Local\Temp\cc5TNLaT.s 			page 19


 456:.\Generated_Source\PSoC5/Fire_Timer.c **** * Summary:
 457:.\Generated_Source\PSoC5/Fire_Timer.c **** *  This funtion is used to set the counter to a specific value
 458:.\Generated_Source\PSoC5/Fire_Timer.c **** *
 459:.\Generated_Source\PSoC5/Fire_Timer.c **** * Parameters:
 460:.\Generated_Source\PSoC5/Fire_Timer.c **** *  counter:  New counter value.
 461:.\Generated_Source\PSoC5/Fire_Timer.c **** *
 462:.\Generated_Source\PSoC5/Fire_Timer.c **** * Return:
 463:.\Generated_Source\PSoC5/Fire_Timer.c **** *  void
 464:.\Generated_Source\PSoC5/Fire_Timer.c **** *
 465:.\Generated_Source\PSoC5/Fire_Timer.c **** *******************************************************************************/
 466:.\Generated_Source\PSoC5/Fire_Timer.c **** void Fire_Timer_WriteCounter(uint16 counter) \
 467:.\Generated_Source\PSoC5/Fire_Timer.c ****                                    
 468:.\Generated_Source\PSoC5/Fire_Timer.c **** {
 572              		.loc 1 468 0
 573              		.cfi_startproc
 574              		@ args = 0, pretend = 0, frame = 8
 575              		@ frame_needed = 1, uses_anonymous_args = 0
 576              		@ link register save eliminated.
 577 0000 80B4     		push	{r7}
 578              	.LCFI27:
 579              		.cfi_def_cfa_offset 4
 580              		.cfi_offset 7, -4
 581 0002 83B0     		sub	sp, sp, #12
 582              	.LCFI28:
 583              		.cfi_def_cfa_offset 16
 584 0004 00AF     		add	r7, sp, #0
 585              	.LCFI29:
 586              		.cfi_def_cfa_register 7
 587 0006 0346     		mov	r3, r0
 588 0008 FB80     		strh	r3, [r7, #6]	@ movhi
 469:.\Generated_Source\PSoC5/Fire_Timer.c ****    #if(Fire_Timer_UsingFixedFunction)
 470:.\Generated_Source\PSoC5/Fire_Timer.c ****         /* This functionality is removed until a FixedFunction HW update to
 471:.\Generated_Source\PSoC5/Fire_Timer.c ****          * allow this register to be written
 472:.\Generated_Source\PSoC5/Fire_Timer.c ****          */
 473:.\Generated_Source\PSoC5/Fire_Timer.c ****         CY_SET_REG16(Fire_Timer_COUNTER_LSB_PTR, (uint16)counter);
 589              		.loc 1 473 0
 590 000a 44F60673 		movw	r3, #20230
 591 000e C4F20003 		movt	r3, 16384
 592 0012 FA88     		ldrh	r2, [r7, #6]	@ movhi
 593 0014 1A80     		strh	r2, [r3, #0]	@ movhi
 474:.\Generated_Source\PSoC5/Fire_Timer.c ****         
 475:.\Generated_Source\PSoC5/Fire_Timer.c ****     #else
 476:.\Generated_Source\PSoC5/Fire_Timer.c ****         CY_SET_REG16(Fire_Timer_COUNTER_LSB_PTR, counter);
 477:.\Generated_Source\PSoC5/Fire_Timer.c ****     #endif /* Set Write Counter only for the UDB implementation (Write Counter not available in fix
 478:.\Generated_Source\PSoC5/Fire_Timer.c **** }
 594              		.loc 1 478 0
 595 0016 07F10C07 		add	r7, r7, #12
 596 001a BD46     		mov	sp, r7
 597 001c 80BC     		pop	{r7}
 598 001e 7047     		bx	lr
 599              		.cfi_endproc
 600              	.LFE12:
 601              		.size	Fire_Timer_WriteCounter, .-Fire_Timer_WriteCounter
 602              		.section	.text.Fire_Timer_ReadCounter,"ax",%progbits
 603              		.align	2
 604              		.global	Fire_Timer_ReadCounter
 605              		.thumb
ARM GAS  C:\Users\Colin\AppData\Local\Temp\cc5TNLaT.s 			page 20


 606              		.thumb_func
 607              		.type	Fire_Timer_ReadCounter, %function
 608              	Fire_Timer_ReadCounter:
 609              	.LFB13:
 479:.\Generated_Source\PSoC5/Fire_Timer.c **** 
 480:.\Generated_Source\PSoC5/Fire_Timer.c **** 
 481:.\Generated_Source\PSoC5/Fire_Timer.c **** /*******************************************************************************
 482:.\Generated_Source\PSoC5/Fire_Timer.c **** * Function Name: Fire_Timer_ReadCounter
 483:.\Generated_Source\PSoC5/Fire_Timer.c **** ********************************************************************************
 484:.\Generated_Source\PSoC5/Fire_Timer.c **** *
 485:.\Generated_Source\PSoC5/Fire_Timer.c **** * Summary:
 486:.\Generated_Source\PSoC5/Fire_Timer.c **** *  This function returns the current counter value.
 487:.\Generated_Source\PSoC5/Fire_Timer.c **** *
 488:.\Generated_Source\PSoC5/Fire_Timer.c **** * Parameters:
 489:.\Generated_Source\PSoC5/Fire_Timer.c **** *  void
 490:.\Generated_Source\PSoC5/Fire_Timer.c **** *
 491:.\Generated_Source\PSoC5/Fire_Timer.c **** * Return:
 492:.\Generated_Source\PSoC5/Fire_Timer.c **** *  Present compare value.
 493:.\Generated_Source\PSoC5/Fire_Timer.c **** *
 494:.\Generated_Source\PSoC5/Fire_Timer.c **** *******************************************************************************/
 495:.\Generated_Source\PSoC5/Fire_Timer.c **** uint16 Fire_Timer_ReadCounter(void) 
 496:.\Generated_Source\PSoC5/Fire_Timer.c **** {
 610              		.loc 1 496 0
 611              		.cfi_startproc
 612              		@ args = 0, pretend = 0, frame = 0
 613              		@ frame_needed = 1, uses_anonymous_args = 0
 614              		@ link register save eliminated.
 615 0000 80B4     		push	{r7}
 616              	.LCFI30:
 617              		.cfi_def_cfa_offset 4
 618              		.cfi_offset 7, -4
 619 0002 00AF     		add	r7, sp, #0
 620              	.LCFI31:
 621              		.cfi_def_cfa_register 7
 497:.\Generated_Source\PSoC5/Fire_Timer.c **** 
 498:.\Generated_Source\PSoC5/Fire_Timer.c ****     /* Force capture by reading Accumulator */
 499:.\Generated_Source\PSoC5/Fire_Timer.c ****     /* Must first do a software capture to be able to read the counter */
 500:.\Generated_Source\PSoC5/Fire_Timer.c ****     /* It is up to the user code to make sure there isn't already captured data in the FIFO */
 501:.\Generated_Source\PSoC5/Fire_Timer.c ****     (void)Fire_Timer_COUNTER_LSB;
 622              		.loc 1 501 0
 623 0004 44F60673 		movw	r3, #20230
 624 0008 C4F20003 		movt	r3, 16384
 625 000c 1B88     		ldrh	r3, [r3, #0]	@ movhi
 502:.\Generated_Source\PSoC5/Fire_Timer.c **** 
 503:.\Generated_Source\PSoC5/Fire_Timer.c ****     /* Read the data from the FIFO (or capture register for Fixed Function)*/
 504:.\Generated_Source\PSoC5/Fire_Timer.c ****     #if(Fire_Timer_UsingFixedFunction)
 505:.\Generated_Source\PSoC5/Fire_Timer.c ****         return ((uint16)CY_GET_REG16(Fire_Timer_CAPTURE_LSB_PTR));
 626              		.loc 1 505 0
 627 000e 44F60873 		movw	r3, #20232
 628 0012 C4F20003 		movt	r3, 16384
 629 0016 1B88     		ldrh	r3, [r3, #0]	@ movhi
 630 0018 9BB2     		uxth	r3, r3
 506:.\Generated_Source\PSoC5/Fire_Timer.c ****     #else
 507:.\Generated_Source\PSoC5/Fire_Timer.c ****         return (CY_GET_REG16(Fire_Timer_CAPTURE_LSB_PTR));
 508:.\Generated_Source\PSoC5/Fire_Timer.c ****     #endif /* (Fire_Timer_UsingFixedFunction) */
 509:.\Generated_Source\PSoC5/Fire_Timer.c **** }
 631              		.loc 1 509 0
ARM GAS  C:\Users\Colin\AppData\Local\Temp\cc5TNLaT.s 			page 21


 632 001a 1846     		mov	r0, r3
 633 001c BD46     		mov	sp, r7
 634 001e 80BC     		pop	{r7}
 635 0020 7047     		bx	lr
 636              		.cfi_endproc
 637              	.LFE13:
 638              		.size	Fire_Timer_ReadCounter, .-Fire_Timer_ReadCounter
 639 0022 00BF     		.text
 640              	.Letext0:
 641              		.file 2 ".\\Generated_Source\\PSoC5\\cytypes.h"