ARM GAS  C:\Users\Colin\AppData\Local\Temp\ccmu05xf.s 			page 1


   1              		.syntax unified
   2              		.cpu cortex-m3
   3              		.fpu softvfp
   4              		.eabi_attribute 20, 1
   5              		.eabi_attribute 21, 1
   6              		.eabi_attribute 23, 3
   7              		.eabi_attribute 24, 1
   8              		.eabi_attribute 25, 1
   9              		.eabi_attribute 26, 1
  10              		.eabi_attribute 30, 6
  11              		.eabi_attribute 34, 1
  12              		.eabi_attribute 18, 4
  13              		.thumb
  14              		.file	"I2C_1_MASTER.c"
  15              		.text
  16              	.Ltext0:
  17              		.cfi_sections	.debug_frame
  18              		.comm	I2C_1_mstrStatus,1,1
  19              		.comm	I2C_1_mstrControl,1,1
  20              		.comm	I2C_1_mstrRdBufPtr,4,4
  21              		.comm	I2C_1_mstrRdBufSize,1,1
  22              		.comm	I2C_1_mstrRdBufIndex,1,1
  23              		.comm	I2C_1_mstrWrBufPtr,4,4
  24              		.comm	I2C_1_mstrWrBufSize,1,1
  25              		.comm	I2C_1_mstrWrBufIndex,1,1
  26              		.section	.text.I2C_1_MasterWriteBuf,"ax",%progbits
  27              		.align	2
  28              		.global	I2C_1_MasterWriteBuf
  29              		.thumb
  30              		.thumb_func
  31              		.type	I2C_1_MasterWriteBuf, %function
  32              	I2C_1_MasterWriteBuf:
  33              	.LFB0:
  34              		.file 1 ".\\Generated_Source\\PSoC5\\I2C_1_MASTER.c"
   1:.\Generated_Source\PSoC5/I2C_1_MASTER.c **** /*******************************************************************************
   2:.\Generated_Source\PSoC5/I2C_1_MASTER.c **** * File Name: I2C_1_MASTER.c
   3:.\Generated_Source\PSoC5/I2C_1_MASTER.c **** * Version 3.30
   4:.\Generated_Source\PSoC5/I2C_1_MASTER.c **** *
   5:.\Generated_Source\PSoC5/I2C_1_MASTER.c **** * Description:
   6:.\Generated_Source\PSoC5/I2C_1_MASTER.c **** *  This file provides the source code of APIs for the I2C component Master mode.
   7:.\Generated_Source\PSoC5/I2C_1_MASTER.c **** *
   8:.\Generated_Source\PSoC5/I2C_1_MASTER.c **** * Note:
   9:.\Generated_Source\PSoC5/I2C_1_MASTER.c **** *
  10:.\Generated_Source\PSoC5/I2C_1_MASTER.c **** *******************************************************************************
  11:.\Generated_Source\PSoC5/I2C_1_MASTER.c **** * Copyright 2012, Cypress Semiconductor Corporation.  All rights reserved.
  12:.\Generated_Source\PSoC5/I2C_1_MASTER.c **** * You may use this file only in accordance with the license, terms, conditions,
  13:.\Generated_Source\PSoC5/I2C_1_MASTER.c **** * disclaimers, and limitations in the end user license agreement accompanying
  14:.\Generated_Source\PSoC5/I2C_1_MASTER.c **** * the software package with which this file was provided.
  15:.\Generated_Source\PSoC5/I2C_1_MASTER.c **** *******************************************************************************/
  16:.\Generated_Source\PSoC5/I2C_1_MASTER.c **** 
  17:.\Generated_Source\PSoC5/I2C_1_MASTER.c **** #include "I2C_1_PVT.h"
  18:.\Generated_Source\PSoC5/I2C_1_MASTER.c **** 
  19:.\Generated_Source\PSoC5/I2C_1_MASTER.c **** #if(I2C_1_MODE_MASTER_ENABLED)
  20:.\Generated_Source\PSoC5/I2C_1_MASTER.c **** 
  21:.\Generated_Source\PSoC5/I2C_1_MASTER.c **** /**********************************
  22:.\Generated_Source\PSoC5/I2C_1_MASTER.c **** *      System variables
  23:.\Generated_Source\PSoC5/I2C_1_MASTER.c **** **********************************/
ARM GAS  C:\Users\Colin\AppData\Local\Temp\ccmu05xf.s 			page 2


  24:.\Generated_Source\PSoC5/I2C_1_MASTER.c **** 
  25:.\Generated_Source\PSoC5/I2C_1_MASTER.c **** volatile uint8 I2C_1_mstrStatus;     /* Master Status byte  */
  26:.\Generated_Source\PSoC5/I2C_1_MASTER.c **** volatile uint8 I2C_1_mstrControl;    /* Master Control byte */
  27:.\Generated_Source\PSoC5/I2C_1_MASTER.c **** 
  28:.\Generated_Source\PSoC5/I2C_1_MASTER.c **** /* Transmit buffer variables */
  29:.\Generated_Source\PSoC5/I2C_1_MASTER.c **** volatile uint8 * I2C_1_mstrRdBufPtr;     /* Pointer to Master Read buffer */
  30:.\Generated_Source\PSoC5/I2C_1_MASTER.c **** volatile uint8   I2C_1_mstrRdBufSize;    /* Master Read buffer size       */
  31:.\Generated_Source\PSoC5/I2C_1_MASTER.c **** volatile uint8   I2C_1_mstrRdBufIndex;   /* Master Read buffer Index      */
  32:.\Generated_Source\PSoC5/I2C_1_MASTER.c **** 
  33:.\Generated_Source\PSoC5/I2C_1_MASTER.c **** /* Receive buffer variables */
  34:.\Generated_Source\PSoC5/I2C_1_MASTER.c **** volatile uint8 * I2C_1_mstrWrBufPtr;     /* Pointer to Master Write buffer */
  35:.\Generated_Source\PSoC5/I2C_1_MASTER.c **** volatile uint8   I2C_1_mstrWrBufSize;    /* Master Write buffer size       */
  36:.\Generated_Source\PSoC5/I2C_1_MASTER.c **** volatile uint8   I2C_1_mstrWrBufIndex;   /* Master Write buffer Index      */
  37:.\Generated_Source\PSoC5/I2C_1_MASTER.c **** 
  38:.\Generated_Source\PSoC5/I2C_1_MASTER.c **** 
  39:.\Generated_Source\PSoC5/I2C_1_MASTER.c **** /*******************************************************************************
  40:.\Generated_Source\PSoC5/I2C_1_MASTER.c **** * Function Name: I2C_1_MasterWriteBuf
  41:.\Generated_Source\PSoC5/I2C_1_MASTER.c **** ********************************************************************************
  42:.\Generated_Source\PSoC5/I2C_1_MASTER.c **** *
  43:.\Generated_Source\PSoC5/I2C_1_MASTER.c **** * Summary:
  44:.\Generated_Source\PSoC5/I2C_1_MASTER.c **** *  Automatically writes an entire buffer of data to a slave device. Once the
  45:.\Generated_Source\PSoC5/I2C_1_MASTER.c **** *  data transfer is initiated by this function, further data transfer is handled
  46:.\Generated_Source\PSoC5/I2C_1_MASTER.c **** *  by the included ISR in byte by byte mode.
  47:.\Generated_Source\PSoC5/I2C_1_MASTER.c **** *
  48:.\Generated_Source\PSoC5/I2C_1_MASTER.c **** * Parameters:
  49:.\Generated_Source\PSoC5/I2C_1_MASTER.c **** *  slaveAddr: 7-bit slave address.
  50:.\Generated_Source\PSoC5/I2C_1_MASTER.c **** *  xferData:  Pointer to buffer of data to be sent.
  51:.\Generated_Source\PSoC5/I2C_1_MASTER.c **** *  cnt:       Size of buffer to send.
  52:.\Generated_Source\PSoC5/I2C_1_MASTER.c **** *  mode:      Transfer mode defines: start or restart condition generation at
  53:.\Generated_Source\PSoC5/I2C_1_MASTER.c **** *             begin of the transfer and complete the transfer or halt before
  54:.\Generated_Source\PSoC5/I2C_1_MASTER.c **** *             generating a stop.
  55:.\Generated_Source\PSoC5/I2C_1_MASTER.c **** *
  56:.\Generated_Source\PSoC5/I2C_1_MASTER.c **** * Return:
  57:.\Generated_Source\PSoC5/I2C_1_MASTER.c **** *  Status error - zero means no errors.
  58:.\Generated_Source\PSoC5/I2C_1_MASTER.c **** *
  59:.\Generated_Source\PSoC5/I2C_1_MASTER.c **** * Side Effects:
  60:.\Generated_Source\PSoC5/I2C_1_MASTER.c **** *  The included ISR will start transfer after start or restart condition will
  61:.\Generated_Source\PSoC5/I2C_1_MASTER.c **** *  be generated.
  62:.\Generated_Source\PSoC5/I2C_1_MASTER.c **** *
  63:.\Generated_Source\PSoC5/I2C_1_MASTER.c **** * Global variables:
  64:.\Generated_Source\PSoC5/I2C_1_MASTER.c **** *  I2C_1_mstrStatus  - used to store current status of I2C Master.
  65:.\Generated_Source\PSoC5/I2C_1_MASTER.c **** *  I2C_1_state       - used to store current state of software FSM.
  66:.\Generated_Source\PSoC5/I2C_1_MASTER.c **** *  I2C_1_mstrControl - used to control master end of transaction with
  67:.\Generated_Source\PSoC5/I2C_1_MASTER.c **** *  or without the Stop generation.
  68:.\Generated_Source\PSoC5/I2C_1_MASTER.c **** *  I2C_1_mstrWrBufPtr - used to store pointer to master write buffer.
  69:.\Generated_Source\PSoC5/I2C_1_MASTER.c **** *  I2C_1_mstrWrBufIndex - used to current index within master write
  70:.\Generated_Source\PSoC5/I2C_1_MASTER.c **** *  buffer.
  71:.\Generated_Source\PSoC5/I2C_1_MASTER.c **** *  I2C_1_mstrWrBufSize - used to store master write buffer size.
  72:.\Generated_Source\PSoC5/I2C_1_MASTER.c **** *
  73:.\Generated_Source\PSoC5/I2C_1_MASTER.c **** * Reentrant:
  74:.\Generated_Source\PSoC5/I2C_1_MASTER.c **** *  No
  75:.\Generated_Source\PSoC5/I2C_1_MASTER.c **** *
  76:.\Generated_Source\PSoC5/I2C_1_MASTER.c **** *******************************************************************************/
  77:.\Generated_Source\PSoC5/I2C_1_MASTER.c **** uint8 I2C_1_MasterWriteBuf(uint8 slaveAddress, uint8 * wrData, uint8 cnt, uint8 mode)
  78:.\Generated_Source\PSoC5/I2C_1_MASTER.c ****       
  79:.\Generated_Source\PSoC5/I2C_1_MASTER.c **** {
  35              		.loc 1 79 0
ARM GAS  C:\Users\Colin\AppData\Local\Temp\ccmu05xf.s 			page 3


  36              		.cfi_startproc
  37              		@ args = 0, pretend = 0, frame = 16
  38              		@ frame_needed = 1, uses_anonymous_args = 0
  39              		@ link register save eliminated.
  40 0000 80B4     		push	{r7}
  41              	.LCFI0:
  42              		.cfi_def_cfa_offset 4
  43              		.cfi_offset 7, -4
  44 0002 85B0     		sub	sp, sp, #20
  45              	.LCFI1:
  46              		.cfi_def_cfa_offset 24
  47 0004 00AF     		add	r7, sp, #0
  48              	.LCFI2:
  49              		.cfi_def_cfa_register 7
  50 0006 3960     		str	r1, [r7, #0]
  51 0008 0146     		mov	r1, r0
  52 000a F971     		strb	r1, [r7, #7]
  53 000c BA71     		strb	r2, [r7, #6]
  54 000e 7B71     		strb	r3, [r7, #5]
  80:.\Generated_Source\PSoC5/I2C_1_MASTER.c ****     uint8 errStatus;
  81:.\Generated_Source\PSoC5/I2C_1_MASTER.c **** 
  82:.\Generated_Source\PSoC5/I2C_1_MASTER.c ****     errStatus = I2C_1_MSTR_NOT_READY;
  55              		.loc 1 82 0
  56 0010 4FF00203 		mov	r3, #2
  57 0014 FB73     		strb	r3, [r7, #15]
  83:.\Generated_Source\PSoC5/I2C_1_MASTER.c **** 
  84:.\Generated_Source\PSoC5/I2C_1_MASTER.c ****     if(NULL != wrData)
  58              		.loc 1 84 0
  59 0016 3B68     		ldr	r3, [r7, #0]
  60 0018 002B     		cmp	r3, #0
  61 001a 00F09D80 		beq	.L2
  85:.\Generated_Source\PSoC5/I2C_1_MASTER.c ****     {
  86:.\Generated_Source\PSoC5/I2C_1_MASTER.c ****         /* Check I2C state before transfer: valid are IDLE or HALT */
  87:.\Generated_Source\PSoC5/I2C_1_MASTER.c ****         if(I2C_1_SM_IDLE == I2C_1_state)
  62              		.loc 1 87 0
  63 001e 40F20003 		movw	r3, #:lower16:I2C_1_state
  64 0022 C0F20003 		movt	r3, #:upper16:I2C_1_state
  65 0026 1B78     		ldrb	r3, [r3, #0]
  66 0028 DBB2     		uxtb	r3, r3
  67 002a 102B     		cmp	r3, #16
  68 002c 11D1     		bne	.L3
  88:.\Generated_Source\PSoC5/I2C_1_MASTER.c ****         {
  89:.\Generated_Source\PSoC5/I2C_1_MASTER.c ****             /* Check if free: Master is ready to transaction */
  90:.\Generated_Source\PSoC5/I2C_1_MASTER.c ****             if(I2C_1_CHECK_BUS_FREE(I2C_1_MCSR_REG))
  69              		.loc 1 90 0
  70 002e 46F26343 		movw	r3, #25699
  71 0032 C4F20003 		movt	r3, 16384
  72 0036 1B78     		ldrb	r3, [r3, #0]
  73 0038 DBB2     		uxtb	r3, r3
  74 003a 03F01003 		and	r3, r3, #16
  75 003e 002B     		cmp	r3, #0
  76 0040 03D1     		bne	.L4
  91:.\Generated_Source\PSoC5/I2C_1_MASTER.c ****             {
  92:.\Generated_Source\PSoC5/I2C_1_MASTER.c ****                 errStatus = I2C_1_MSTR_NO_ERROR;
  77              		.loc 1 92 0
  78 0042 4FF00003 		mov	r3, #0
  79 0046 FB73     		strb	r3, [r7, #15]
ARM GAS  C:\Users\Colin\AppData\Local\Temp\ccmu05xf.s 			page 4


  80 0048 23E0     		b	.L5
  81              	.L4:
  93:.\Generated_Source\PSoC5/I2C_1_MASTER.c ****             }
  94:.\Generated_Source\PSoC5/I2C_1_MASTER.c ****             else
  95:.\Generated_Source\PSoC5/I2C_1_MASTER.c ****             {
  96:.\Generated_Source\PSoC5/I2C_1_MASTER.c ****                 errStatus = I2C_1_MSTR_BUS_BUSY;
  82              		.loc 1 96 0
  83 004a 4FF00103 		mov	r3, #1
  84 004e FB73     		strb	r3, [r7, #15]
  85 0050 1FE0     		b	.L5
  86              	.L3:
  97:.\Generated_Source\PSoC5/I2C_1_MASTER.c ****             }
  98:.\Generated_Source\PSoC5/I2C_1_MASTER.c ****         }
  99:.\Generated_Source\PSoC5/I2C_1_MASTER.c ****         else if(I2C_1_SM_MSTR_HALT == I2C_1_state)
  87              		.loc 1 99 0
  88 0052 40F20003 		movw	r3, #:lower16:I2C_1_state
  89 0056 C0F20003 		movt	r3, #:upper16:I2C_1_state
  90 005a 1B78     		ldrb	r3, [r3, #0]
  91 005c DBB2     		uxtb	r3, r3
  92 005e 602B     		cmp	r3, #96
  93 0060 17D1     		bne	.L5
 100:.\Generated_Source\PSoC5/I2C_1_MASTER.c ****         {
 101:.\Generated_Source\PSoC5/I2C_1_MASTER.c ****             errStatus = I2C_1_MSTR_NO_ERROR;
  94              		.loc 1 101 0
  95 0062 4FF00003 		mov	r3, #0
  96 0066 FB73     		strb	r3, [r7, #15]
 102:.\Generated_Source\PSoC5/I2C_1_MASTER.c **** 
 103:.\Generated_Source\PSoC5/I2C_1_MASTER.c ****             CyIntClearPending(I2C_1_ISR_NUMBER);
  97              		.loc 1 103 0
  98 0068 4EF28023 		movw	r3, #57984
  99 006c CEF20003 		movt	r3, 57344
 100 0070 4FF00402 		mov	r2, #4
 101 0074 1A60     		str	r2, [r3, #0]
 104:.\Generated_Source\PSoC5/I2C_1_MASTER.c ****             I2C_1_mstrStatus &= ((uint8) ~I2C_1_MSTAT_XFER_HALT);
 102              		.loc 1 104 0
 103 0076 40F20003 		movw	r3, #:lower16:I2C_1_mstrStatus
 104 007a C0F20003 		movt	r3, #:upper16:I2C_1_mstrStatus
 105 007e 1B78     		ldrb	r3, [r3, #0]
 106 0080 DBB2     		uxtb	r3, r3
 107 0082 23F00803 		bic	r3, r3, #8
 108 0086 DAB2     		uxtb	r2, r3
 109 0088 40F20003 		movw	r3, #:lower16:I2C_1_mstrStatus
 110 008c C0F20003 		movt	r3, #:upper16:I2C_1_mstrStatus
 111 0090 1A70     		strb	r2, [r3, #0]
 112              	.L5:
 105:.\Generated_Source\PSoC5/I2C_1_MASTER.c ****         }
 106:.\Generated_Source\PSoC5/I2C_1_MASTER.c ****         else
 107:.\Generated_Source\PSoC5/I2C_1_MASTER.c ****         {
 108:.\Generated_Source\PSoC5/I2C_1_MASTER.c ****             /* errStatus = I2C_1_MSTR_NOT_READY was send before */
 109:.\Generated_Source\PSoC5/I2C_1_MASTER.c ****         }
 110:.\Generated_Source\PSoC5/I2C_1_MASTER.c **** 
 111:.\Generated_Source\PSoC5/I2C_1_MASTER.c ****         if(I2C_1_MSTR_NO_ERROR == errStatus)
 113              		.loc 1 111 0
 114 0092 FB7B     		ldrb	r3, [r7, #15]	@ zero_extendqisi2
 115 0094 002B     		cmp	r3, #0
 116 0096 5FD1     		bne	.L2
 112:.\Generated_Source\PSoC5/I2C_1_MASTER.c ****         {
ARM GAS  C:\Users\Colin\AppData\Local\Temp\ccmu05xf.s 			page 5


 113:.\Generated_Source\PSoC5/I2C_1_MASTER.c ****             I2C_1_state    = I2C_1_SM_MSTR_WR_ADDR;
 117              		.loc 1 113 0
 118 0098 40F20003 		movw	r3, #:lower16:I2C_1_state
 119 009c C0F20003 		movt	r3, #:upper16:I2C_1_state
 120 00a0 4FF04502 		mov	r2, #69
 121 00a4 1A70     		strb	r2, [r3, #0]
 114:.\Generated_Source\PSoC5/I2C_1_MASTER.c ****             I2C_1_DATA_REG = ((uint8) (slaveAddress << I2C_1_SLAVE_ADDR_SHIFT));
 122              		.loc 1 114 0
 123 00a6 46F20243 		movw	r3, #25602
 124 00aa C4F20003 		movt	r3, 16384
 125 00ae FA79     		ldrb	r2, [r7, #7]
 126 00b0 4FEA4202 		lsl	r2, r2, #1
 127 00b4 D2B2     		uxtb	r2, r2
 128 00b6 1A70     		strb	r2, [r3, #0]
 115:.\Generated_Source\PSoC5/I2C_1_MASTER.c **** 
 116:.\Generated_Source\PSoC5/I2C_1_MASTER.c ****             I2C_1_mstrWrBufIndex = 0u;
 129              		.loc 1 116 0
 130 00b8 40F20003 		movw	r3, #:lower16:I2C_1_mstrWrBufIndex
 131 00bc C0F20003 		movt	r3, #:upper16:I2C_1_mstrWrBufIndex
 132 00c0 4FF00002 		mov	r2, #0
 133 00c4 1A70     		strb	r2, [r3, #0]
 117:.\Generated_Source\PSoC5/I2C_1_MASTER.c ****             I2C_1_mstrWrBufSize  = cnt;
 134              		.loc 1 117 0
 135 00c6 40F20003 		movw	r3, #:lower16:I2C_1_mstrWrBufSize
 136 00ca C0F20003 		movt	r3, #:upper16:I2C_1_mstrWrBufSize
 137 00ce BA79     		ldrb	r2, [r7, #6]
 138 00d0 1A70     		strb	r2, [r3, #0]
 118:.\Generated_Source\PSoC5/I2C_1_MASTER.c ****             I2C_1_mstrWrBufPtr   = (volatile uint8 *) wrData;
 139              		.loc 1 118 0
 140 00d2 40F20003 		movw	r3, #:lower16:I2C_1_mstrWrBufPtr
 141 00d6 C0F20003 		movt	r3, #:upper16:I2C_1_mstrWrBufPtr
 142 00da 3A68     		ldr	r2, [r7, #0]
 143 00dc 1A60     		str	r2, [r3, #0]
 119:.\Generated_Source\PSoC5/I2C_1_MASTER.c **** 
 120:.\Generated_Source\PSoC5/I2C_1_MASTER.c ****             I2C_1_mstrControl = mode;    /* Save transaction mode */
 144              		.loc 1 120 0
 145 00de 40F20003 		movw	r3, #:lower16:I2C_1_mstrControl
 146 00e2 C0F20003 		movt	r3, #:upper16:I2C_1_mstrControl
 147 00e6 7A79     		ldrb	r2, [r7, #5]
 148 00e8 1A70     		strb	r2, [r3, #0]
 121:.\Generated_Source\PSoC5/I2C_1_MASTER.c **** 
 122:.\Generated_Source\PSoC5/I2C_1_MASTER.c ****             /* Generate a Start or ReStart depends on mode */
 123:.\Generated_Source\PSoC5/I2C_1_MASTER.c ****             if(I2C_1_CHECK_RESTART(mode))
 149              		.loc 1 123 0
 150 00ea 7B79     		ldrb	r3, [r7, #5]	@ zero_extendqisi2
 151 00ec 03F00103 		and	r3, r3, #1
 152 00f0 002B     		cmp	r3, #0
 153 00f2 0ED0     		beq	.L6
 124:.\Generated_Source\PSoC5/I2C_1_MASTER.c ****             {
 125:.\Generated_Source\PSoC5/I2C_1_MASTER.c ****                 I2C_1_GENERATE_RESTART;
 154              		.loc 1 125 0
 155 00f4 46F27543 		movw	r3, #25717
 156 00f8 C4F20003 		movt	r3, 16384
 157 00fc 4FF03202 		mov	r2, #50
 158 0100 1A70     		strb	r2, [r3, #0]
 159 0102 46F25243 		movw	r3, #25682
 160 0106 C4F20003 		movt	r3, 16384
ARM GAS  C:\Users\Colin\AppData\Local\Temp\ccmu05xf.s 			page 6


 161 010a 4FF00002 		mov	r2, #0
 162 010e 1A70     		strb	r2, [r3, #0]
 163 0110 0DE0     		b	.L7
 164              	.L6:
 126:.\Generated_Source\PSoC5/I2C_1_MASTER.c ****             }
 127:.\Generated_Source\PSoC5/I2C_1_MASTER.c ****             else
 128:.\Generated_Source\PSoC5/I2C_1_MASTER.c ****             {
 129:.\Generated_Source\PSoC5/I2C_1_MASTER.c ****                 I2C_1_GENERATE_START;
 165              		.loc 1 129 0
 166 0112 46F27543 		movw	r3, #25717
 167 0116 C4F20003 		movt	r3, 16384
 168 011a 4FF08202 		mov	r2, #130
 169 011e 1A70     		strb	r2, [r3, #0]
 170 0120 46F25243 		movw	r3, #25682
 171 0124 C4F20003 		movt	r3, 16384
 172 0128 4FF00002 		mov	r2, #0
 173 012c 1A70     		strb	r2, [r3, #0]
 174              	.L7:
 130:.\Generated_Source\PSoC5/I2C_1_MASTER.c ****             }
 131:.\Generated_Source\PSoC5/I2C_1_MASTER.c **** 
 132:.\Generated_Source\PSoC5/I2C_1_MASTER.c ****             I2C_1_mstrStatus &= ((uint8) ~I2C_1_MSTAT_WR_CMPLT);
 175              		.loc 1 132 0
 176 012e 40F20003 		movw	r3, #:lower16:I2C_1_mstrStatus
 177 0132 C0F20003 		movt	r3, #:upper16:I2C_1_mstrStatus
 178 0136 1B78     		ldrb	r3, [r3, #0]
 179 0138 DBB2     		uxtb	r3, r3
 180 013a 23F00203 		bic	r3, r3, #2
 181 013e DAB2     		uxtb	r2, r3
 182 0140 40F20003 		movw	r3, #:lower16:I2C_1_mstrStatus
 183 0144 C0F20003 		movt	r3, #:upper16:I2C_1_mstrStatus
 184 0148 1A70     		strb	r2, [r3, #0]
 133:.\Generated_Source\PSoC5/I2C_1_MASTER.c **** 
 134:.\Generated_Source\PSoC5/I2C_1_MASTER.c ****             I2C_1_EnableInt();   /* Enable intr to complete transfer */
 185              		.loc 1 134 0
 186 014a 4FF46143 		mov	r3, #57600
 187 014e CEF20003 		movt	r3, 57344
 188 0152 4FF00402 		mov	r2, #4
 189 0156 1A60     		str	r2, [r3, #0]
 190              	.L2:
 135:.\Generated_Source\PSoC5/I2C_1_MASTER.c ****         }
 136:.\Generated_Source\PSoC5/I2C_1_MASTER.c ****     }
 137:.\Generated_Source\PSoC5/I2C_1_MASTER.c **** 
 138:.\Generated_Source\PSoC5/I2C_1_MASTER.c ****     return(errStatus);
 191              		.loc 1 138 0
 192 0158 FB7B     		ldrb	r3, [r7, #15]	@ zero_extendqisi2
 139:.\Generated_Source\PSoC5/I2C_1_MASTER.c **** }
 193              		.loc 1 139 0
 194 015a 1846     		mov	r0, r3
 195 015c 07F11407 		add	r7, r7, #20
 196 0160 BD46     		mov	sp, r7
 197 0162 80BC     		pop	{r7}
 198 0164 7047     		bx	lr
 199              		.cfi_endproc
 200              	.LFE0:
 201              		.size	I2C_1_MasterWriteBuf, .-I2C_1_MasterWriteBuf
 202 0166 00BF     		.section	.text.I2C_1_MasterReadBuf,"ax",%progbits
 203              		.align	2
ARM GAS  C:\Users\Colin\AppData\Local\Temp\ccmu05xf.s 			page 7


 204              		.global	I2C_1_MasterReadBuf
 205              		.thumb
 206              		.thumb_func
 207              		.type	I2C_1_MasterReadBuf, %function
 208              	I2C_1_MasterReadBuf:
 209              	.LFB1:
 140:.\Generated_Source\PSoC5/I2C_1_MASTER.c **** 
 141:.\Generated_Source\PSoC5/I2C_1_MASTER.c **** 
 142:.\Generated_Source\PSoC5/I2C_1_MASTER.c **** /*******************************************************************************
 143:.\Generated_Source\PSoC5/I2C_1_MASTER.c **** * Function Name: I2C_1_MasterReadBuf
 144:.\Generated_Source\PSoC5/I2C_1_MASTER.c **** ********************************************************************************
 145:.\Generated_Source\PSoC5/I2C_1_MASTER.c **** *
 146:.\Generated_Source\PSoC5/I2C_1_MASTER.c **** * Summary:
 147:.\Generated_Source\PSoC5/I2C_1_MASTER.c **** *  Automatically writes an entire buffer of data to a slave device. Once the
 148:.\Generated_Source\PSoC5/I2C_1_MASTER.c **** *  data transfer is initiated by this function, further data transfer is handled
 149:.\Generated_Source\PSoC5/I2C_1_MASTER.c **** *  by the included ISR in byte by byte mode.
 150:.\Generated_Source\PSoC5/I2C_1_MASTER.c **** *
 151:.\Generated_Source\PSoC5/I2C_1_MASTER.c **** * Parameters:
 152:.\Generated_Source\PSoC5/I2C_1_MASTER.c **** *  slaveAddr: 7-bit slave address.
 153:.\Generated_Source\PSoC5/I2C_1_MASTER.c **** *  xferData:  Pointer to buffer where to put data from slave.
 154:.\Generated_Source\PSoC5/I2C_1_MASTER.c **** *  cnt:       Size of buffer to read.
 155:.\Generated_Source\PSoC5/I2C_1_MASTER.c **** *  mode:      Transfer mode defines: start or restart condition generation at
 156:.\Generated_Source\PSoC5/I2C_1_MASTER.c **** *             begin of the transfer and complete the transfer or halt before
 157:.\Generated_Source\PSoC5/I2C_1_MASTER.c **** *             generating a stop.
 158:.\Generated_Source\PSoC5/I2C_1_MASTER.c **** *
 159:.\Generated_Source\PSoC5/I2C_1_MASTER.c **** * Return:
 160:.\Generated_Source\PSoC5/I2C_1_MASTER.c **** *  Status error - zero means no errors.
 161:.\Generated_Source\PSoC5/I2C_1_MASTER.c **** *
 162:.\Generated_Source\PSoC5/I2C_1_MASTER.c **** * Side Effects:
 163:.\Generated_Source\PSoC5/I2C_1_MASTER.c **** *  The included ISR will start transfer after start or restart condition will
 164:.\Generated_Source\PSoC5/I2C_1_MASTER.c **** *  be generated.
 165:.\Generated_Source\PSoC5/I2C_1_MASTER.c **** *
 166:.\Generated_Source\PSoC5/I2C_1_MASTER.c **** * Global variables:
 167:.\Generated_Source\PSoC5/I2C_1_MASTER.c **** *  I2C_1_mstrStatus  - used to store current status of I2C Master.
 168:.\Generated_Source\PSoC5/I2C_1_MASTER.c **** *  I2C_1_state       - used to store current state of software FSM.
 169:.\Generated_Source\PSoC5/I2C_1_MASTER.c **** *  I2C_1_mstrControl - used to control master end of transaction with
 170:.\Generated_Source\PSoC5/I2C_1_MASTER.c **** *  or without the Stop generation.
 171:.\Generated_Source\PSoC5/I2C_1_MASTER.c **** *  I2C_1_mstrRdBufPtr - used to store pointer to master write buffer.
 172:.\Generated_Source\PSoC5/I2C_1_MASTER.c **** *  I2C_1_mstrRdBufIndex - used to current index within master write
 173:.\Generated_Source\PSoC5/I2C_1_MASTER.c **** *  buffer.
 174:.\Generated_Source\PSoC5/I2C_1_MASTER.c **** *  I2C_1_mstrRdBufSize - used to store master write buffer size.
 175:.\Generated_Source\PSoC5/I2C_1_MASTER.c **** *
 176:.\Generated_Source\PSoC5/I2C_1_MASTER.c **** * Reentrant:
 177:.\Generated_Source\PSoC5/I2C_1_MASTER.c **** *  No
 178:.\Generated_Source\PSoC5/I2C_1_MASTER.c **** *
 179:.\Generated_Source\PSoC5/I2C_1_MASTER.c **** *******************************************************************************/
 180:.\Generated_Source\PSoC5/I2C_1_MASTER.c **** uint8 I2C_1_MasterReadBuf(uint8 slaveAddress, uint8 * rdData, uint8 cnt, uint8 mode)
 181:.\Generated_Source\PSoC5/I2C_1_MASTER.c ****       
 182:.\Generated_Source\PSoC5/I2C_1_MASTER.c **** {
 210              		.loc 1 182 0
 211              		.cfi_startproc
 212              		@ args = 0, pretend = 0, frame = 16
 213              		@ frame_needed = 1, uses_anonymous_args = 0
 214              		@ link register save eliminated.
 215 0000 80B4     		push	{r7}
 216              	.LCFI3:
 217              		.cfi_def_cfa_offset 4
ARM GAS  C:\Users\Colin\AppData\Local\Temp\ccmu05xf.s 			page 8


 218              		.cfi_offset 7, -4
 219 0002 85B0     		sub	sp, sp, #20
 220              	.LCFI4:
 221              		.cfi_def_cfa_offset 24
 222 0004 00AF     		add	r7, sp, #0
 223              	.LCFI5:
 224              		.cfi_def_cfa_register 7
 225 0006 3960     		str	r1, [r7, #0]
 226 0008 0146     		mov	r1, r0
 227 000a F971     		strb	r1, [r7, #7]
 228 000c BA71     		strb	r2, [r7, #6]
 229 000e 7B71     		strb	r3, [r7, #5]
 183:.\Generated_Source\PSoC5/I2C_1_MASTER.c ****     uint8 errStatus;
 184:.\Generated_Source\PSoC5/I2C_1_MASTER.c **** 
 185:.\Generated_Source\PSoC5/I2C_1_MASTER.c ****     errStatus = I2C_1_MSTR_NOT_READY;
 230              		.loc 1 185 0
 231 0010 4FF00203 		mov	r3, #2
 232 0014 FB73     		strb	r3, [r7, #15]
 186:.\Generated_Source\PSoC5/I2C_1_MASTER.c **** 
 187:.\Generated_Source\PSoC5/I2C_1_MASTER.c ****     if(NULL != rdData)
 233              		.loc 1 187 0
 234 0016 3B68     		ldr	r3, [r7, #0]
 235 0018 002B     		cmp	r3, #0
 236 001a 00F0A080 		beq	.L10
 188:.\Generated_Source\PSoC5/I2C_1_MASTER.c ****     {
 189:.\Generated_Source\PSoC5/I2C_1_MASTER.c ****         /* Check I2C state before transfer: valid are IDLE or HALT */
 190:.\Generated_Source\PSoC5/I2C_1_MASTER.c ****         if(I2C_1_SM_IDLE == I2C_1_state)
 237              		.loc 1 190 0
 238 001e 40F20003 		movw	r3, #:lower16:I2C_1_state
 239 0022 C0F20003 		movt	r3, #:upper16:I2C_1_state
 240 0026 1B78     		ldrb	r3, [r3, #0]
 241 0028 DBB2     		uxtb	r3, r3
 242 002a 102B     		cmp	r3, #16
 243 002c 11D1     		bne	.L11
 191:.\Generated_Source\PSoC5/I2C_1_MASTER.c ****         {
 192:.\Generated_Source\PSoC5/I2C_1_MASTER.c ****             /* Check if free: Master is ready to transaction */
 193:.\Generated_Source\PSoC5/I2C_1_MASTER.c ****             if(I2C_1_CHECK_BUS_FREE(I2C_1_MCSR_REG))
 244              		.loc 1 193 0
 245 002e 46F26343 		movw	r3, #25699
 246 0032 C4F20003 		movt	r3, 16384
 247 0036 1B78     		ldrb	r3, [r3, #0]
 248 0038 DBB2     		uxtb	r3, r3
 249 003a 03F01003 		and	r3, r3, #16
 250 003e 002B     		cmp	r3, #0
 251 0040 03D1     		bne	.L12
 194:.\Generated_Source\PSoC5/I2C_1_MASTER.c ****             {
 195:.\Generated_Source\PSoC5/I2C_1_MASTER.c ****                 errStatus = I2C_1_MSTR_NO_ERROR;
 252              		.loc 1 195 0
 253 0042 4FF00003 		mov	r3, #0
 254 0046 FB73     		strb	r3, [r7, #15]
 255 0048 23E0     		b	.L13
 256              	.L12:
 196:.\Generated_Source\PSoC5/I2C_1_MASTER.c ****             }
 197:.\Generated_Source\PSoC5/I2C_1_MASTER.c ****             else
 198:.\Generated_Source\PSoC5/I2C_1_MASTER.c ****             {
 199:.\Generated_Source\PSoC5/I2C_1_MASTER.c ****                 errStatus = I2C_1_MSTR_BUS_BUSY;
 257              		.loc 1 199 0
ARM GAS  C:\Users\Colin\AppData\Local\Temp\ccmu05xf.s 			page 9


 258 004a 4FF00103 		mov	r3, #1
 259 004e FB73     		strb	r3, [r7, #15]
 260 0050 1FE0     		b	.L13
 261              	.L11:
 200:.\Generated_Source\PSoC5/I2C_1_MASTER.c ****             }
 201:.\Generated_Source\PSoC5/I2C_1_MASTER.c ****         }
 202:.\Generated_Source\PSoC5/I2C_1_MASTER.c ****         else if(I2C_1_SM_MSTR_HALT == I2C_1_state)
 262              		.loc 1 202 0
 263 0052 40F20003 		movw	r3, #:lower16:I2C_1_state
 264 0056 C0F20003 		movt	r3, #:upper16:I2C_1_state
 265 005a 1B78     		ldrb	r3, [r3, #0]
 266 005c DBB2     		uxtb	r3, r3
 267 005e 602B     		cmp	r3, #96
 268 0060 17D1     		bne	.L13
 203:.\Generated_Source\PSoC5/I2C_1_MASTER.c ****         {
 204:.\Generated_Source\PSoC5/I2C_1_MASTER.c ****             errStatus = I2C_1_MSTR_NO_ERROR;
 269              		.loc 1 204 0
 270 0062 4FF00003 		mov	r3, #0
 271 0066 FB73     		strb	r3, [r7, #15]
 205:.\Generated_Source\PSoC5/I2C_1_MASTER.c **** 
 206:.\Generated_Source\PSoC5/I2C_1_MASTER.c ****             CyIntClearPending(I2C_1_ISR_NUMBER);
 272              		.loc 1 206 0
 273 0068 4EF28023 		movw	r3, #57984
 274 006c CEF20003 		movt	r3, 57344
 275 0070 4FF00402 		mov	r2, #4
 276 0074 1A60     		str	r2, [r3, #0]
 207:.\Generated_Source\PSoC5/I2C_1_MASTER.c ****             I2C_1_mstrStatus &= ((uint8) ~I2C_1_MSTAT_XFER_HALT);
 277              		.loc 1 207 0
 278 0076 40F20003 		movw	r3, #:lower16:I2C_1_mstrStatus
 279 007a C0F20003 		movt	r3, #:upper16:I2C_1_mstrStatus
 280 007e 1B78     		ldrb	r3, [r3, #0]
 281 0080 DBB2     		uxtb	r3, r3
 282 0082 23F00803 		bic	r3, r3, #8
 283 0086 DAB2     		uxtb	r2, r3
 284 0088 40F20003 		movw	r3, #:lower16:I2C_1_mstrStatus
 285 008c C0F20003 		movt	r3, #:upper16:I2C_1_mstrStatus
 286 0090 1A70     		strb	r2, [r3, #0]
 287              	.L13:
 208:.\Generated_Source\PSoC5/I2C_1_MASTER.c ****         }
 209:.\Generated_Source\PSoC5/I2C_1_MASTER.c ****         else
 210:.\Generated_Source\PSoC5/I2C_1_MASTER.c ****         {
 211:.\Generated_Source\PSoC5/I2C_1_MASTER.c ****             /* errStatus = I2C_1_MSTR_NOT_READY was send before */
 212:.\Generated_Source\PSoC5/I2C_1_MASTER.c ****         }
 213:.\Generated_Source\PSoC5/I2C_1_MASTER.c **** 
 214:.\Generated_Source\PSoC5/I2C_1_MASTER.c ****         if(I2C_1_MSTR_NO_ERROR == errStatus)
 288              		.loc 1 214 0
 289 0092 FB7B     		ldrb	r3, [r7, #15]	@ zero_extendqisi2
 290 0094 002B     		cmp	r3, #0
 291 0096 62D1     		bne	.L10
 215:.\Generated_Source\PSoC5/I2C_1_MASTER.c ****         {
 216:.\Generated_Source\PSoC5/I2C_1_MASTER.c ****             I2C_1_state    = I2C_1_SM_MSTR_RD_ADDR;
 292              		.loc 1 216 0
 293 0098 40F20003 		movw	r3, #:lower16:I2C_1_state
 294 009c C0F20003 		movt	r3, #:upper16:I2C_1_state
 295 00a0 4FF04902 		mov	r2, #73
 296 00a4 1A70     		strb	r2, [r3, #0]
 217:.\Generated_Source\PSoC5/I2C_1_MASTER.c ****             I2C_1_DATA_REG = (((uint8) (slaveAddress << I2C_1_SLAVE_ADDR_SHIFT)) |
ARM GAS  C:\Users\Colin\AppData\Local\Temp\ccmu05xf.s 			page 10


 297              		.loc 1 217 0
 298 00a6 46F20243 		movw	r3, #25602
 299 00aa C4F20003 		movt	r3, 16384
 300 00ae FA79     		ldrb	r2, [r7, #7]
 301 00b0 4FEA4202 		lsl	r2, r2, #1
 302 00b4 D2B2     		uxtb	r2, r2
 303 00b6 42F00102 		orr	r2, r2, #1
 304 00ba D2B2     		uxtb	r2, r2
 305 00bc 1A70     		strb	r2, [r3, #0]
 218:.\Generated_Source\PSoC5/I2C_1_MASTER.c ****                                                    I2C_1_READ_FLAG);
 219:.\Generated_Source\PSoC5/I2C_1_MASTER.c **** 
 220:.\Generated_Source\PSoC5/I2C_1_MASTER.c ****             I2C_1_mstrRdBufIndex  = 0u;
 306              		.loc 1 220 0
 307 00be 40F20003 		movw	r3, #:lower16:I2C_1_mstrRdBufIndex
 308 00c2 C0F20003 		movt	r3, #:upper16:I2C_1_mstrRdBufIndex
 309 00c6 4FF00002 		mov	r2, #0
 310 00ca 1A70     		strb	r2, [r3, #0]
 221:.\Generated_Source\PSoC5/I2C_1_MASTER.c ****             I2C_1_mstrRdBufSize   = cnt;
 311              		.loc 1 221 0
 312 00cc 40F20003 		movw	r3, #:lower16:I2C_1_mstrRdBufSize
 313 00d0 C0F20003 		movt	r3, #:upper16:I2C_1_mstrRdBufSize
 314 00d4 BA79     		ldrb	r2, [r7, #6]
 315 00d6 1A70     		strb	r2, [r3, #0]
 222:.\Generated_Source\PSoC5/I2C_1_MASTER.c ****             I2C_1_mstrRdBufPtr    = (volatile uint8 *) rdData;
 316              		.loc 1 222 0
 317 00d8 40F20003 		movw	r3, #:lower16:I2C_1_mstrRdBufPtr
 318 00dc C0F20003 		movt	r3, #:upper16:I2C_1_mstrRdBufPtr
 319 00e0 3A68     		ldr	r2, [r7, #0]
 320 00e2 1A60     		str	r2, [r3, #0]
 223:.\Generated_Source\PSoC5/I2C_1_MASTER.c **** 
 224:.\Generated_Source\PSoC5/I2C_1_MASTER.c ****             I2C_1_mstrControl = mode;    /* Save transaction mode */
 321              		.loc 1 224 0
 322 00e4 40F20003 		movw	r3, #:lower16:I2C_1_mstrControl
 323 00e8 C0F20003 		movt	r3, #:upper16:I2C_1_mstrControl
 324 00ec 7A79     		ldrb	r2, [r7, #5]
 325 00ee 1A70     		strb	r2, [r3, #0]
 225:.\Generated_Source\PSoC5/I2C_1_MASTER.c **** 
 226:.\Generated_Source\PSoC5/I2C_1_MASTER.c ****             /* Generate a Start or ReStart depends on mode */
 227:.\Generated_Source\PSoC5/I2C_1_MASTER.c ****             if(I2C_1_CHECK_RESTART(mode))
 326              		.loc 1 227 0
 327 00f0 7B79     		ldrb	r3, [r7, #5]	@ zero_extendqisi2
 328 00f2 03F00103 		and	r3, r3, #1
 329 00f6 002B     		cmp	r3, #0
 330 00f8 0ED0     		beq	.L14
 228:.\Generated_Source\PSoC5/I2C_1_MASTER.c ****             {
 229:.\Generated_Source\PSoC5/I2C_1_MASTER.c ****                 I2C_1_GENERATE_RESTART;
 331              		.loc 1 229 0
 332 00fa 46F27543 		movw	r3, #25717
 333 00fe C4F20003 		movt	r3, 16384
 334 0102 4FF03202 		mov	r2, #50
 335 0106 1A70     		strb	r2, [r3, #0]
 336 0108 46F25243 		movw	r3, #25682
 337 010c C4F20003 		movt	r3, 16384
 338 0110 4FF00002 		mov	r2, #0
 339 0114 1A70     		strb	r2, [r3, #0]
 340 0116 0DE0     		b	.L15
 341              	.L14:
ARM GAS  C:\Users\Colin\AppData\Local\Temp\ccmu05xf.s 			page 11


 230:.\Generated_Source\PSoC5/I2C_1_MASTER.c ****             }
 231:.\Generated_Source\PSoC5/I2C_1_MASTER.c ****             else
 232:.\Generated_Source\PSoC5/I2C_1_MASTER.c ****             {
 233:.\Generated_Source\PSoC5/I2C_1_MASTER.c ****                 I2C_1_GENERATE_START;
 342              		.loc 1 233 0
 343 0118 46F27543 		movw	r3, #25717
 344 011c C4F20003 		movt	r3, 16384
 345 0120 4FF08202 		mov	r2, #130
 346 0124 1A70     		strb	r2, [r3, #0]
 347 0126 46F25243 		movw	r3, #25682
 348 012a C4F20003 		movt	r3, 16384
 349 012e 4FF00002 		mov	r2, #0
 350 0132 1A70     		strb	r2, [r3, #0]
 351              	.L15:
 234:.\Generated_Source\PSoC5/I2C_1_MASTER.c ****             }
 235:.\Generated_Source\PSoC5/I2C_1_MASTER.c **** 
 236:.\Generated_Source\PSoC5/I2C_1_MASTER.c ****             I2C_1_mstrStatus &= ((uint8) ~I2C_1_MSTAT_RD_CMPLT);
 352              		.loc 1 236 0
 353 0134 40F20003 		movw	r3, #:lower16:I2C_1_mstrStatus
 354 0138 C0F20003 		movt	r3, #:upper16:I2C_1_mstrStatus
 355 013c 1B78     		ldrb	r3, [r3, #0]
 356 013e DBB2     		uxtb	r3, r3
 357 0140 23F00103 		bic	r3, r3, #1
 358 0144 DAB2     		uxtb	r2, r3
 359 0146 40F20003 		movw	r3, #:lower16:I2C_1_mstrStatus
 360 014a C0F20003 		movt	r3, #:upper16:I2C_1_mstrStatus
 361 014e 1A70     		strb	r2, [r3, #0]
 237:.\Generated_Source\PSoC5/I2C_1_MASTER.c **** 
 238:.\Generated_Source\PSoC5/I2C_1_MASTER.c ****             I2C_1_EnableInt();   /* Enable intr to complete transfer */
 362              		.loc 1 238 0
 363 0150 4FF46143 		mov	r3, #57600
 364 0154 CEF20003 		movt	r3, 57344
 365 0158 4FF00402 		mov	r2, #4
 366 015c 1A60     		str	r2, [r3, #0]
 367              	.L10:
 239:.\Generated_Source\PSoC5/I2C_1_MASTER.c ****         }
 240:.\Generated_Source\PSoC5/I2C_1_MASTER.c ****     }
 241:.\Generated_Source\PSoC5/I2C_1_MASTER.c **** 
 242:.\Generated_Source\PSoC5/I2C_1_MASTER.c ****     return(errStatus);
 368              		.loc 1 242 0
 369 015e FB7B     		ldrb	r3, [r7, #15]	@ zero_extendqisi2
 243:.\Generated_Source\PSoC5/I2C_1_MASTER.c **** }
 370              		.loc 1 243 0
 371 0160 1846     		mov	r0, r3
 372 0162 07F11407 		add	r7, r7, #20
 373 0166 BD46     		mov	sp, r7
 374 0168 80BC     		pop	{r7}
 375 016a 7047     		bx	lr
 376              		.cfi_endproc
 377              	.LFE1:
 378              		.size	I2C_1_MasterReadBuf, .-I2C_1_MasterReadBuf
 379              		.section	.text.I2C_1_MasterSendStart,"ax",%progbits
 380              		.align	2
 381              		.global	I2C_1_MasterSendStart
 382              		.thumb
 383              		.thumb_func
 384              		.type	I2C_1_MasterSendStart, %function
ARM GAS  C:\Users\Colin\AppData\Local\Temp\ccmu05xf.s 			page 12


 385              	I2C_1_MasterSendStart:
 386              	.LFB2:
 244:.\Generated_Source\PSoC5/I2C_1_MASTER.c **** 
 245:.\Generated_Source\PSoC5/I2C_1_MASTER.c **** 
 246:.\Generated_Source\PSoC5/I2C_1_MASTER.c **** /*******************************************************************************
 247:.\Generated_Source\PSoC5/I2C_1_MASTER.c **** * Function Name: I2C_1_MasterSendStart
 248:.\Generated_Source\PSoC5/I2C_1_MASTER.c **** ********************************************************************************
 249:.\Generated_Source\PSoC5/I2C_1_MASTER.c **** *
 250:.\Generated_Source\PSoC5/I2C_1_MASTER.c **** * Summary:
 251:.\Generated_Source\PSoC5/I2C_1_MASTER.c **** *  Generates Start condition and sends slave address with read/write bit.
 252:.\Generated_Source\PSoC5/I2C_1_MASTER.c **** *
 253:.\Generated_Source\PSoC5/I2C_1_MASTER.c **** * Parameters:
 254:.\Generated_Source\PSoC5/I2C_1_MASTER.c **** *  slaveAddress:  7-bit slave address.
 255:.\Generated_Source\PSoC5/I2C_1_MASTER.c **** *  R_nW:          Zero, send write command, non-zero send read command.
 256:.\Generated_Source\PSoC5/I2C_1_MASTER.c **** *
 257:.\Generated_Source\PSoC5/I2C_1_MASTER.c **** * Return:
 258:.\Generated_Source\PSoC5/I2C_1_MASTER.c **** *  Status error - zero means no errors.
 259:.\Generated_Source\PSoC5/I2C_1_MASTER.c **** *
 260:.\Generated_Source\PSoC5/I2C_1_MASTER.c **** * Side Effects:
 261:.\Generated_Source\PSoC5/I2C_1_MASTER.c **** *  This function is entered without a 'byte complete' bit set in the I2C_CSR
 262:.\Generated_Source\PSoC5/I2C_1_MASTER.c **** *  register. It does not exit until it will be set.
 263:.\Generated_Source\PSoC5/I2C_1_MASTER.c **** *
 264:.\Generated_Source\PSoC5/I2C_1_MASTER.c **** * Global variables:
 265:.\Generated_Source\PSoC5/I2C_1_MASTER.c **** *  I2C_1_state - used to store current state of software FSM.
 266:.\Generated_Source\PSoC5/I2C_1_MASTER.c **** *
 267:.\Generated_Source\PSoC5/I2C_1_MASTER.c **** * Reentrant:
 268:.\Generated_Source\PSoC5/I2C_1_MASTER.c **** *  No
 269:.\Generated_Source\PSoC5/I2C_1_MASTER.c **** *
 270:.\Generated_Source\PSoC5/I2C_1_MASTER.c **** *******************************************************************************/
 271:.\Generated_Source\PSoC5/I2C_1_MASTER.c **** uint8 I2C_1_MasterSendStart(uint8 slaveAddress, uint8 R_nW)
 272:.\Generated_Source\PSoC5/I2C_1_MASTER.c ****       
 273:.\Generated_Source\PSoC5/I2C_1_MASTER.c **** {
 387              		.loc 1 273 0
 388              		.cfi_startproc
 389              		@ args = 0, pretend = 0, frame = 16
 390              		@ frame_needed = 1, uses_anonymous_args = 0
 391              		@ link register save eliminated.
 392 0000 80B4     		push	{r7}
 393              	.LCFI6:
 394              		.cfi_def_cfa_offset 4
 395              		.cfi_offset 7, -4
 396 0002 85B0     		sub	sp, sp, #20
 397              	.LCFI7:
 398              		.cfi_def_cfa_offset 24
 399 0004 00AF     		add	r7, sp, #0
 400              	.LCFI8:
 401              		.cfi_def_cfa_register 7
 402 0006 0246     		mov	r2, r0
 403 0008 0B46     		mov	r3, r1
 404 000a FA71     		strb	r2, [r7, #7]
 405 000c BB71     		strb	r3, [r7, #6]
 274:.\Generated_Source\PSoC5/I2C_1_MASTER.c ****     uint8 errStatus;
 275:.\Generated_Source\PSoC5/I2C_1_MASTER.c **** 
 276:.\Generated_Source\PSoC5/I2C_1_MASTER.c ****     errStatus = I2C_1_MSTR_NOT_READY;
 406              		.loc 1 276 0
 407 000e 4FF00203 		mov	r3, #2
 408 0012 FB73     		strb	r3, [r7, #15]
ARM GAS  C:\Users\Colin\AppData\Local\Temp\ccmu05xf.s 			page 13


 277:.\Generated_Source\PSoC5/I2C_1_MASTER.c **** 
 278:.\Generated_Source\PSoC5/I2C_1_MASTER.c ****     /* If IDLE, check if bus is free */
 279:.\Generated_Source\PSoC5/I2C_1_MASTER.c ****     if(I2C_1_SM_IDLE == I2C_1_state)
 409              		.loc 1 279 0
 410 0014 40F20003 		movw	r3, #:lower16:I2C_1_state
 411 0018 C0F20003 		movt	r3, #:upper16:I2C_1_state
 412 001c 1B78     		ldrb	r3, [r3, #0]
 413 001e DBB2     		uxtb	r3, r3
 414 0020 102B     		cmp	r3, #16
 415 0022 66D1     		bne	.L18
 280:.\Generated_Source\PSoC5/I2C_1_MASTER.c ****     {
 281:.\Generated_Source\PSoC5/I2C_1_MASTER.c ****         /* If bus is free, generate Start condition */
 282:.\Generated_Source\PSoC5/I2C_1_MASTER.c ****         if(I2C_1_CHECK_BUS_FREE(I2C_1_MCSR_REG))
 416              		.loc 1 282 0
 417 0024 46F26343 		movw	r3, #25699
 418 0028 C4F20003 		movt	r3, 16384
 419 002c 1B78     		ldrb	r3, [r3, #0]
 420 002e DBB2     		uxtb	r3, r3
 421 0030 03F01003 		and	r3, r3, #16
 422 0034 002B     		cmp	r3, #0
 423 0036 59D1     		bne	.L19
 283:.\Generated_Source\PSoC5/I2C_1_MASTER.c ****         {
 284:.\Generated_Source\PSoC5/I2C_1_MASTER.c ****             I2C_1_DisableInt();  /* Disable ISR for Manual functions */
 424              		.loc 1 284 0
 425 0038 4EF28013 		movw	r3, #57728
 426 003c CEF20003 		movt	r3, 57344
 427 0040 4FF00402 		mov	r2, #4
 428 0044 1A60     		str	r2, [r3, #0]
 285:.\Generated_Source\PSoC5/I2C_1_MASTER.c **** 
 286:.\Generated_Source\PSoC5/I2C_1_MASTER.c ****             slaveAddress = ((uint8) (slaveAddress << I2C_1_SLAVE_ADDR_SHIFT)); /* Set Address */
 429              		.loc 1 286 0
 430 0046 FB79     		ldrb	r3, [r7, #7]
 431 0048 4FEA4303 		lsl	r3, r3, #1
 432 004c FB71     		strb	r3, [r7, #7]
 287:.\Generated_Source\PSoC5/I2C_1_MASTER.c ****             if(0u != R_nW)                                      /* Set the Read/Write flag */
 433              		.loc 1 287 0
 434 004e BB79     		ldrb	r3, [r7, #6]	@ zero_extendqisi2
 435 0050 002B     		cmp	r3, #0
 436 0052 0BD0     		beq	.L20
 288:.\Generated_Source\PSoC5/I2C_1_MASTER.c ****             {
 289:.\Generated_Source\PSoC5/I2C_1_MASTER.c ****                 slaveAddress |= I2C_1_READ_FLAG;
 437              		.loc 1 289 0
 438 0054 FB79     		ldrb	r3, [r7, #7]
 439 0056 43F00103 		orr	r3, r3, #1
 440 005a FB71     		strb	r3, [r7, #7]
 290:.\Generated_Source\PSoC5/I2C_1_MASTER.c ****                 I2C_1_state = I2C_1_SM_MSTR_RD_ADDR;
 441              		.loc 1 290 0
 442 005c 40F20003 		movw	r3, #:lower16:I2C_1_state
 443 0060 C0F20003 		movt	r3, #:upper16:I2C_1_state
 444 0064 4FF04902 		mov	r2, #73
 445 0068 1A70     		strb	r2, [r3, #0]
 446 006a 06E0     		b	.L21
 447              	.L20:
 291:.\Generated_Source\PSoC5/I2C_1_MASTER.c ****             }
 292:.\Generated_Source\PSoC5/I2C_1_MASTER.c ****             else
 293:.\Generated_Source\PSoC5/I2C_1_MASTER.c ****             {
 294:.\Generated_Source\PSoC5/I2C_1_MASTER.c ****                 I2C_1_state = I2C_1_SM_MSTR_WR_ADDR;
ARM GAS  C:\Users\Colin\AppData\Local\Temp\ccmu05xf.s 			page 14


 448              		.loc 1 294 0
 449 006c 40F20003 		movw	r3, #:lower16:I2C_1_state
 450 0070 C0F20003 		movt	r3, #:upper16:I2C_1_state
 451 0074 4FF04502 		mov	r2, #69
 452 0078 1A70     		strb	r2, [r3, #0]
 453              	.L21:
 295:.\Generated_Source\PSoC5/I2C_1_MASTER.c ****             }
 296:.\Generated_Source\PSoC5/I2C_1_MASTER.c ****             I2C_1_DATA_REG = slaveAddress;   /* Write address to data reg */
 454              		.loc 1 296 0
 455 007a 46F20243 		movw	r3, #25602
 456 007e C4F20003 		movt	r3, 16384
 457 0082 FA79     		ldrb	r2, [r7, #7]
 458 0084 1A70     		strb	r2, [r3, #0]
 297:.\Generated_Source\PSoC5/I2C_1_MASTER.c **** 
 298:.\Generated_Source\PSoC5/I2C_1_MASTER.c **** 
 299:.\Generated_Source\PSoC5/I2C_1_MASTER.c ****             I2C_1_GENERATE_START;
 459              		.loc 1 299 0
 460 0086 46F27543 		movw	r3, #25717
 461 008a C4F20003 		movt	r3, 16384
 462 008e 4FF08202 		mov	r2, #130
 463 0092 1A70     		strb	r2, [r3, #0]
 464 0094 46F25243 		movw	r3, #25682
 465 0098 C4F20003 		movt	r3, 16384
 466 009c 4FF00002 		mov	r2, #0
 467 00a0 1A70     		strb	r2, [r3, #0]
 300:.\Generated_Source\PSoC5/I2C_1_MASTER.c ****             while(I2C_1_WAIT_BYTE_COMPLETE(I2C_1_CSR_REG))
 468              		.loc 1 300 0
 469 00a2 00BF     		nop
 470              	.L22:
 471              		.loc 1 300 0 is_stmt 0 discriminator 1
 472 00a4 46F26343 		movw	r3, #25699
 473 00a8 C4F20003 		movt	r3, 16384
 474 00ac 1B78     		ldrb	r3, [r3, #0]
 475 00ae DBB2     		uxtb	r3, r3
 476 00b0 03F00103 		and	r3, r3, #1
 477 00b4 002B     		cmp	r3, #0
 478 00b6 F5D0     		beq	.L22
 301:.\Generated_Source\PSoC5/I2C_1_MASTER.c ****             {
 302:.\Generated_Source\PSoC5/I2C_1_MASTER.c ****                 ; /* Wait for the address to be transfered */
 303:.\Generated_Source\PSoC5/I2C_1_MASTER.c ****             }
 304:.\Generated_Source\PSoC5/I2C_1_MASTER.c **** 
 305:.\Generated_Source\PSoC5/I2C_1_MASTER.c ****             #if(I2C_1_MODE_MULTI_MASTER_SLAVE_ENABLED)
 306:.\Generated_Source\PSoC5/I2C_1_MASTER.c ****                 if(I2C_1_CHECK_START_GEN(I2C_1_MCSR_REG))
 307:.\Generated_Source\PSoC5/I2C_1_MASTER.c ****                 {
 308:.\Generated_Source\PSoC5/I2C_1_MASTER.c ****                     I2C_1_CLEAR_START_GEN;
 309:.\Generated_Source\PSoC5/I2C_1_MASTER.c **** 
 310:.\Generated_Source\PSoC5/I2C_1_MASTER.c ****                     /* Start condition was not generated: reset FSM to IDLE */
 311:.\Generated_Source\PSoC5/I2C_1_MASTER.c ****                     I2C_1_state = I2C_1_SM_IDLE;
 312:.\Generated_Source\PSoC5/I2C_1_MASTER.c ****                     errStatus = I2C_1_MSTR_ERR_ABORT_START_GEN;
 313:.\Generated_Source\PSoC5/I2C_1_MASTER.c ****                 }
 314:.\Generated_Source\PSoC5/I2C_1_MASTER.c ****                 else
 315:.\Generated_Source\PSoC5/I2C_1_MASTER.c ****             #endif /* (I2C_1_MODE_MULTI_MASTER_SLAVE_ENABLED) */
 316:.\Generated_Source\PSoC5/I2C_1_MASTER.c **** 
 317:.\Generated_Source\PSoC5/I2C_1_MASTER.c ****             #if(I2C_1_MODE_MULTI_MASTER_ENABLED)
 318:.\Generated_Source\PSoC5/I2C_1_MASTER.c **** 
 319:.\Generated_Source\PSoC5/I2C_1_MASTER.c ****                 if(I2C_1_CHECK_LOST_ARB(I2C_1_CSR_REG))
 320:.\Generated_Source\PSoC5/I2C_1_MASTER.c ****                 {
ARM GAS  C:\Users\Colin\AppData\Local\Temp\ccmu05xf.s 			page 15


 321:.\Generated_Source\PSoC5/I2C_1_MASTER.c ****                     I2C_1_BUS_RELEASE;
 322:.\Generated_Source\PSoC5/I2C_1_MASTER.c **** 
 323:.\Generated_Source\PSoC5/I2C_1_MASTER.c ****                     /* Master lost arbitrage: reset FSM to IDLE */
 324:.\Generated_Source\PSoC5/I2C_1_MASTER.c ****                     I2C_1_state = I2C_1_SM_IDLE;
 325:.\Generated_Source\PSoC5/I2C_1_MASTER.c ****                     errStatus = I2C_1_MSTR_ERR_ARB_LOST;
 326:.\Generated_Source\PSoC5/I2C_1_MASTER.c ****                 }
 327:.\Generated_Source\PSoC5/I2C_1_MASTER.c ****                 else
 328:.\Generated_Source\PSoC5/I2C_1_MASTER.c ****             #endif /* (I2C_1_MODE_MULTI_MASTER_ENABLED) */
 329:.\Generated_Source\PSoC5/I2C_1_MASTER.c **** 
 330:.\Generated_Source\PSoC5/I2C_1_MASTER.c ****                 if(I2C_1_CHECK_ADDR_NAK(I2C_1_CSR_REG))
 479              		.loc 1 330 0 is_stmt 1
 480 00b8 46F26343 		movw	r3, #25699
 481 00bc C4F20003 		movt	r3, 16384
 482 00c0 1B78     		ldrb	r3, [r3, #0]
 483 00c2 DBB2     		uxtb	r3, r3
 484 00c4 03F00A03 		and	r3, r3, #10
 485 00c8 DBB2     		uxtb	r3, r3
 486 00ca 0A2B     		cmp	r3, #10
 487 00cc 0AD1     		bne	.L23
 331:.\Generated_Source\PSoC5/I2C_1_MASTER.c ****                 {
 332:.\Generated_Source\PSoC5/I2C_1_MASTER.c ****                     /* Address has been NACKed: reset FSM to IDLE */
 333:.\Generated_Source\PSoC5/I2C_1_MASTER.c ****                     I2C_1_state = I2C_1_SM_IDLE;
 488              		.loc 1 333 0
 489 00ce 40F20003 		movw	r3, #:lower16:I2C_1_state
 490 00d2 C0F20003 		movt	r3, #:upper16:I2C_1_state
 491 00d6 4FF01002 		mov	r2, #16
 492 00da 1A70     		strb	r2, [r3, #0]
 334:.\Generated_Source\PSoC5/I2C_1_MASTER.c ****                     errStatus = I2C_1_MSTR_ERR_LB_NAK;
 493              		.loc 1 334 0
 494 00dc 4FF00303 		mov	r3, #3
 495 00e0 FB73     		strb	r3, [r7, #15]
 496 00e2 06E0     		b	.L18
 497              	.L23:
 335:.\Generated_Source\PSoC5/I2C_1_MASTER.c ****                 }
 336:.\Generated_Source\PSoC5/I2C_1_MASTER.c ****                 else
 337:.\Generated_Source\PSoC5/I2C_1_MASTER.c ****                 {
 338:.\Generated_Source\PSoC5/I2C_1_MASTER.c ****                     /* Start was sent witout errors */
 339:.\Generated_Source\PSoC5/I2C_1_MASTER.c ****                     errStatus = I2C_1_MSTR_NO_ERROR;
 498              		.loc 1 339 0
 499 00e4 4FF00003 		mov	r3, #0
 500 00e8 FB73     		strb	r3, [r7, #15]
 501 00ea 02E0     		b	.L18
 502              	.L19:
 340:.\Generated_Source\PSoC5/I2C_1_MASTER.c ****                 }
 341:.\Generated_Source\PSoC5/I2C_1_MASTER.c ****         }
 342:.\Generated_Source\PSoC5/I2C_1_MASTER.c ****         else
 343:.\Generated_Source\PSoC5/I2C_1_MASTER.c ****         {
 344:.\Generated_Source\PSoC5/I2C_1_MASTER.c ****             errStatus = I2C_1_MSTR_BUS_BUSY; /* Bus is busy */
 503              		.loc 1 344 0
 504 00ec 4FF00103 		mov	r3, #1
 505 00f0 FB73     		strb	r3, [r7, #15]
 506              	.L18:
 345:.\Generated_Source\PSoC5/I2C_1_MASTER.c ****         }
 346:.\Generated_Source\PSoC5/I2C_1_MASTER.c ****     }
 347:.\Generated_Source\PSoC5/I2C_1_MASTER.c **** 
 348:.\Generated_Source\PSoC5/I2C_1_MASTER.c ****     return(errStatus);
 507              		.loc 1 348 0
ARM GAS  C:\Users\Colin\AppData\Local\Temp\ccmu05xf.s 			page 16


 508 00f2 FB7B     		ldrb	r3, [r7, #15]	@ zero_extendqisi2
 349:.\Generated_Source\PSoC5/I2C_1_MASTER.c **** }
 509              		.loc 1 349 0
 510 00f4 1846     		mov	r0, r3
 511 00f6 07F11407 		add	r7, r7, #20
 512 00fa BD46     		mov	sp, r7
 513 00fc 80BC     		pop	{r7}
 514 00fe 7047     		bx	lr
 515              		.cfi_endproc
 516              	.LFE2:
 517              		.size	I2C_1_MasterSendStart, .-I2C_1_MasterSendStart
 518              		.section	.text.I2C_1_MasterSendRestart,"ax",%progbits
 519              		.align	2
 520              		.global	I2C_1_MasterSendRestart
 521              		.thumb
 522              		.thumb_func
 523              		.type	I2C_1_MasterSendRestart, %function
 524              	I2C_1_MasterSendRestart:
 525              	.LFB3:
 350:.\Generated_Source\PSoC5/I2C_1_MASTER.c **** 
 351:.\Generated_Source\PSoC5/I2C_1_MASTER.c **** 
 352:.\Generated_Source\PSoC5/I2C_1_MASTER.c **** /*******************************************************************************
 353:.\Generated_Source\PSoC5/I2C_1_MASTER.c **** * Function Name: I2C_1_MasterSendRestart
 354:.\Generated_Source\PSoC5/I2C_1_MASTER.c **** ********************************************************************************
 355:.\Generated_Source\PSoC5/I2C_1_MASTER.c **** *
 356:.\Generated_Source\PSoC5/I2C_1_MASTER.c **** * Summary:
 357:.\Generated_Source\PSoC5/I2C_1_MASTER.c **** *  Generates ReStart condition and sends slave address with read/write bit.
 358:.\Generated_Source\PSoC5/I2C_1_MASTER.c **** *
 359:.\Generated_Source\PSoC5/I2C_1_MASTER.c **** * Parameters:
 360:.\Generated_Source\PSoC5/I2C_1_MASTER.c **** *  slaveAddress:  7-bit slave address.
 361:.\Generated_Source\PSoC5/I2C_1_MASTER.c **** *  R_nW:          Zero, send write command, non-zero send read command.
 362:.\Generated_Source\PSoC5/I2C_1_MASTER.c **** *
 363:.\Generated_Source\PSoC5/I2C_1_MASTER.c **** * Return:
 364:.\Generated_Source\PSoC5/I2C_1_MASTER.c **** *  Status error - zero means no errors.
 365:.\Generated_Source\PSoC5/I2C_1_MASTER.c **** *
 366:.\Generated_Source\PSoC5/I2C_1_MASTER.c **** * Side Effects:
 367:.\Generated_Source\PSoC5/I2C_1_MASTER.c **** *  This function is entered without a 'byte complete' bit set in the I2C_CSR
 368:.\Generated_Source\PSoC5/I2C_1_MASTER.c **** *  register. It does not exit until it will be set.
 369:.\Generated_Source\PSoC5/I2C_1_MASTER.c **** *
 370:.\Generated_Source\PSoC5/I2C_1_MASTER.c **** * Global variables:
 371:.\Generated_Source\PSoC5/I2C_1_MASTER.c **** *  I2C_1_state - used to store current state of software FSM.
 372:.\Generated_Source\PSoC5/I2C_1_MASTER.c **** *
 373:.\Generated_Source\PSoC5/I2C_1_MASTER.c **** * Reentrant:
 374:.\Generated_Source\PSoC5/I2C_1_MASTER.c **** *  No
 375:.\Generated_Source\PSoC5/I2C_1_MASTER.c **** *
 376:.\Generated_Source\PSoC5/I2C_1_MASTER.c **** *******************************************************************************/
 377:.\Generated_Source\PSoC5/I2C_1_MASTER.c **** uint8 I2C_1_MasterSendRestart(uint8 slaveAddress, uint8 R_nW)
 378:.\Generated_Source\PSoC5/I2C_1_MASTER.c ****       
 379:.\Generated_Source\PSoC5/I2C_1_MASTER.c **** {
 526              		.loc 1 379 0
 527              		.cfi_startproc
 528              		@ args = 0, pretend = 0, frame = 16
 529              		@ frame_needed = 1, uses_anonymous_args = 0
 530              		@ link register save eliminated.
 531 0000 80B4     		push	{r7}
 532              	.LCFI9:
 533              		.cfi_def_cfa_offset 4
ARM GAS  C:\Users\Colin\AppData\Local\Temp\ccmu05xf.s 			page 17


 534              		.cfi_offset 7, -4
 535 0002 85B0     		sub	sp, sp, #20
 536              	.LCFI10:
 537              		.cfi_def_cfa_offset 24
 538 0004 00AF     		add	r7, sp, #0
 539              	.LCFI11:
 540              		.cfi_def_cfa_register 7
 541 0006 0246     		mov	r2, r0
 542 0008 0B46     		mov	r3, r1
 543 000a FA71     		strb	r2, [r7, #7]
 544 000c BB71     		strb	r3, [r7, #6]
 380:.\Generated_Source\PSoC5/I2C_1_MASTER.c ****     uint8 errStatus;
 381:.\Generated_Source\PSoC5/I2C_1_MASTER.c **** 
 382:.\Generated_Source\PSoC5/I2C_1_MASTER.c ****     errStatus = I2C_1_MSTR_NOT_READY;
 545              		.loc 1 382 0
 546 000e 4FF00203 		mov	r3, #2
 547 0012 FB73     		strb	r3, [r7, #15]
 383:.\Generated_Source\PSoC5/I2C_1_MASTER.c **** 
 384:.\Generated_Source\PSoC5/I2C_1_MASTER.c ****     /* Check if START condition was generated */
 385:.\Generated_Source\PSoC5/I2C_1_MASTER.c ****     if(I2C_1_CHECK_MASTER_MODE(I2C_1_MCSR_REG))
 548              		.loc 1 385 0
 549 0014 46F26343 		movw	r3, #25699
 550 0018 C4F20003 		movt	r3, 16384
 551 001c 1B78     		ldrb	r3, [r3, #0]
 552 001e DBB2     		uxtb	r3, r3
 553 0020 03F00403 		and	r3, r3, #4
 554 0024 002B     		cmp	r3, #0
 555 0026 5BD0     		beq	.L26
 386:.\Generated_Source\PSoC5/I2C_1_MASTER.c ****     {
 387:.\Generated_Source\PSoC5/I2C_1_MASTER.c ****         slaveAddress = ((uint8) (slaveAddress << I2C_1_SLAVE_ADDR_SHIFT)); /* Set Address */
 556              		.loc 1 387 0
 557 0028 FB79     		ldrb	r3, [r7, #7]
 558 002a 4FEA4303 		lsl	r3, r3, #1
 559 002e FB71     		strb	r3, [r7, #7]
 388:.\Generated_Source\PSoC5/I2C_1_MASTER.c ****         if(0u != R_nW)  /* Set the Read/Write flag */
 560              		.loc 1 388 0
 561 0030 BB79     		ldrb	r3, [r7, #6]	@ zero_extendqisi2
 562 0032 002B     		cmp	r3, #0
 563 0034 0BD0     		beq	.L27
 389:.\Generated_Source\PSoC5/I2C_1_MASTER.c ****         {
 390:.\Generated_Source\PSoC5/I2C_1_MASTER.c ****             slaveAddress |= I2C_1_READ_FLAG;
 564              		.loc 1 390 0
 565 0036 FB79     		ldrb	r3, [r7, #7]
 566 0038 43F00103 		orr	r3, r3, #1
 567 003c FB71     		strb	r3, [r7, #7]
 391:.\Generated_Source\PSoC5/I2C_1_MASTER.c ****             I2C_1_state = I2C_1_SM_MSTR_RD_ADDR;
 568              		.loc 1 391 0
 569 003e 40F20003 		movw	r3, #:lower16:I2C_1_state
 570 0042 C0F20003 		movt	r3, #:upper16:I2C_1_state
 571 0046 4FF04902 		mov	r2, #73
 572 004a 1A70     		strb	r2, [r3, #0]
 573 004c 06E0     		b	.L28
 574              	.L27:
 392:.\Generated_Source\PSoC5/I2C_1_MASTER.c ****         }
 393:.\Generated_Source\PSoC5/I2C_1_MASTER.c ****         else
 394:.\Generated_Source\PSoC5/I2C_1_MASTER.c ****         {
 395:.\Generated_Source\PSoC5/I2C_1_MASTER.c ****             I2C_1_state = I2C_1_SM_MSTR_WR_ADDR;
ARM GAS  C:\Users\Colin\AppData\Local\Temp\ccmu05xf.s 			page 18


 575              		.loc 1 395 0
 576 004e 40F20003 		movw	r3, #:lower16:I2C_1_state
 577 0052 C0F20003 		movt	r3, #:upper16:I2C_1_state
 578 0056 4FF04502 		mov	r2, #69
 579 005a 1A70     		strb	r2, [r3, #0]
 580              	.L28:
 396:.\Generated_Source\PSoC5/I2C_1_MASTER.c ****         }
 397:.\Generated_Source\PSoC5/I2C_1_MASTER.c ****         I2C_1_DATA_REG = slaveAddress;    /* Write address to data reg */
 581              		.loc 1 397 0
 582 005c 46F20243 		movw	r3, #25602
 583 0060 C4F20003 		movt	r3, 16384
 584 0064 FA79     		ldrb	r2, [r7, #7]
 585 0066 1A70     		strb	r2, [r3, #0]
 398:.\Generated_Source\PSoC5/I2C_1_MASTER.c **** 
 399:.\Generated_Source\PSoC5/I2C_1_MASTER.c **** 
 400:.\Generated_Source\PSoC5/I2C_1_MASTER.c ****         I2C_1_GENERATE_RESTART_MANUAL;
 586              		.loc 1 400 0
 587 0068 46F27543 		movw	r3, #25717
 588 006c C4F20003 		movt	r3, 16384
 589 0070 4FF03202 		mov	r2, #50
 590 0074 1A70     		strb	r2, [r3, #0]
 591 0076 46F25243 		movw	r3, #25682
 592 007a C4F20003 		movt	r3, 16384
 593 007e 4FF00002 		mov	r2, #0
 594 0082 1A70     		strb	r2, [r3, #0]
 595              	.L29:
 596              		.loc 1 400 0 is_stmt 0 discriminator 1
 597 0084 46F26343 		movw	r3, #25699
 598 0088 C4F20003 		movt	r3, 16384
 599 008c 1B78     		ldrb	r3, [r3, #0]
 600 008e DBB2     		uxtb	r3, r3
 601 0090 03F00103 		and	r3, r3, #1
 602 0094 002B     		cmp	r3, #0
 603 0096 F5D1     		bne	.L29
 401:.\Generated_Source\PSoC5/I2C_1_MASTER.c ****         while(I2C_1_WAIT_BYTE_COMPLETE(I2C_1_CSR_REG))
 604              		.loc 1 401 0 is_stmt 1
 605 0098 00BF     		nop
 606              	.L30:
 607              		.loc 1 401 0 is_stmt 0 discriminator 1
 608 009a 46F26343 		movw	r3, #25699
 609 009e C4F20003 		movt	r3, 16384
 610 00a2 1B78     		ldrb	r3, [r3, #0]
 611 00a4 DBB2     		uxtb	r3, r3
 612 00a6 03F00103 		and	r3, r3, #1
 613 00aa 002B     		cmp	r3, #0
 614 00ac F5D0     		beq	.L30
 402:.\Generated_Source\PSoC5/I2C_1_MASTER.c ****         {
 403:.\Generated_Source\PSoC5/I2C_1_MASTER.c ****             ; /* Wait for the address to be transfered */
 404:.\Generated_Source\PSoC5/I2C_1_MASTER.c ****         }
 405:.\Generated_Source\PSoC5/I2C_1_MASTER.c **** 
 406:.\Generated_Source\PSoC5/I2C_1_MASTER.c ****         #if(I2C_1_MODE_MULTI_MASTER_ENABLED)
 407:.\Generated_Source\PSoC5/I2C_1_MASTER.c ****             if(I2C_1_CHECK_LOST_ARB(I2C_1_CSR_REG))
 408:.\Generated_Source\PSoC5/I2C_1_MASTER.c ****             {
 409:.\Generated_Source\PSoC5/I2C_1_MASTER.c ****                 I2C_1_BUS_RELEASE;
 410:.\Generated_Source\PSoC5/I2C_1_MASTER.c **** 
 411:.\Generated_Source\PSoC5/I2C_1_MASTER.c ****                 /* Master lost arbitrage: reset FSM to IDLE */
 412:.\Generated_Source\PSoC5/I2C_1_MASTER.c ****                 I2C_1_state = I2C_1_SM_IDLE;
ARM GAS  C:\Users\Colin\AppData\Local\Temp\ccmu05xf.s 			page 19


 413:.\Generated_Source\PSoC5/I2C_1_MASTER.c ****                 errStatus = I2C_1_MSTR_ERR_ARB_LOST;
 414:.\Generated_Source\PSoC5/I2C_1_MASTER.c ****             }
 415:.\Generated_Source\PSoC5/I2C_1_MASTER.c ****             else
 416:.\Generated_Source\PSoC5/I2C_1_MASTER.c ****         #endif /* (I2C_1_MODE_MULTI_MASTER_ENABLED) */
 417:.\Generated_Source\PSoC5/I2C_1_MASTER.c **** 
 418:.\Generated_Source\PSoC5/I2C_1_MASTER.c ****             if(I2C_1_CHECK_ADDR_NAK(I2C_1_CSR_REG))
 615              		.loc 1 418 0 is_stmt 1
 616 00ae 46F26343 		movw	r3, #25699
 617 00b2 C4F20003 		movt	r3, 16384
 618 00b6 1B78     		ldrb	r3, [r3, #0]
 619 00b8 DBB2     		uxtb	r3, r3
 620 00ba 03F00A03 		and	r3, r3, #10
 621 00be DBB2     		uxtb	r3, r3
 622 00c0 0A2B     		cmp	r3, #10
 623 00c2 0AD1     		bne	.L31
 419:.\Generated_Source\PSoC5/I2C_1_MASTER.c ****             {
 420:.\Generated_Source\PSoC5/I2C_1_MASTER.c ****                 /* Address has been NACKed: reset FSM to IDLE */
 421:.\Generated_Source\PSoC5/I2C_1_MASTER.c ****                 I2C_1_state = I2C_1_SM_IDLE;
 624              		.loc 1 421 0
 625 00c4 40F20003 		movw	r3, #:lower16:I2C_1_state
 626 00c8 C0F20003 		movt	r3, #:upper16:I2C_1_state
 627 00cc 4FF01002 		mov	r2, #16
 628 00d0 1A70     		strb	r2, [r3, #0]
 422:.\Generated_Source\PSoC5/I2C_1_MASTER.c ****                 errStatus = I2C_1_MSTR_ERR_LB_NAK;
 629              		.loc 1 422 0
 630 00d2 4FF00303 		mov	r3, #3
 631 00d6 FB73     		strb	r3, [r7, #15]
 632 00d8 02E0     		b	.L26
 633              	.L31:
 423:.\Generated_Source\PSoC5/I2C_1_MASTER.c ****             }
 424:.\Generated_Source\PSoC5/I2C_1_MASTER.c ****             else
 425:.\Generated_Source\PSoC5/I2C_1_MASTER.c ****             {
 426:.\Generated_Source\PSoC5/I2C_1_MASTER.c ****                 /* ReStart was sent witout errors */
 427:.\Generated_Source\PSoC5/I2C_1_MASTER.c ****                 errStatus = I2C_1_MSTR_NO_ERROR;
 634              		.loc 1 427 0
 635 00da 4FF00003 		mov	r3, #0
 636 00de FB73     		strb	r3, [r7, #15]
 637              	.L26:
 428:.\Generated_Source\PSoC5/I2C_1_MASTER.c ****             }
 429:.\Generated_Source\PSoC5/I2C_1_MASTER.c ****     }
 430:.\Generated_Source\PSoC5/I2C_1_MASTER.c **** 
 431:.\Generated_Source\PSoC5/I2C_1_MASTER.c ****     return(errStatus);
 638              		.loc 1 431 0
 639 00e0 FB7B     		ldrb	r3, [r7, #15]	@ zero_extendqisi2
 432:.\Generated_Source\PSoC5/I2C_1_MASTER.c **** }
 640              		.loc 1 432 0
 641 00e2 1846     		mov	r0, r3
 642 00e4 07F11407 		add	r7, r7, #20
 643 00e8 BD46     		mov	sp, r7
 644 00ea 80BC     		pop	{r7}
 645 00ec 7047     		bx	lr
 646              		.cfi_endproc
 647              	.LFE3:
 648              		.size	I2C_1_MasterSendRestart, .-I2C_1_MasterSendRestart
 649 00ee 00BF     		.section	.text.I2C_1_MasterSendStop,"ax",%progbits
 650              		.align	2
 651              		.global	I2C_1_MasterSendStop
ARM GAS  C:\Users\Colin\AppData\Local\Temp\ccmu05xf.s 			page 20


 652              		.thumb
 653              		.thumb_func
 654              		.type	I2C_1_MasterSendStop, %function
 655              	I2C_1_MasterSendStop:
 656              	.LFB4:
 433:.\Generated_Source\PSoC5/I2C_1_MASTER.c **** 
 434:.\Generated_Source\PSoC5/I2C_1_MASTER.c **** 
 435:.\Generated_Source\PSoC5/I2C_1_MASTER.c **** /*******************************************************************************
 436:.\Generated_Source\PSoC5/I2C_1_MASTER.c **** * Function Name: I2C_1_MasterSendStop
 437:.\Generated_Source\PSoC5/I2C_1_MASTER.c **** ********************************************************************************
 438:.\Generated_Source\PSoC5/I2C_1_MASTER.c **** *
 439:.\Generated_Source\PSoC5/I2C_1_MASTER.c **** * Summary:
 440:.\Generated_Source\PSoC5/I2C_1_MASTER.c **** *  Generates I2C Stop condition on bus. Function do nothing if Start or Restart
 441:.\Generated_Source\PSoC5/I2C_1_MASTER.c **** *  condition was failed before call this function.
 442:.\Generated_Source\PSoC5/I2C_1_MASTER.c **** *
 443:.\Generated_Source\PSoC5/I2C_1_MASTER.c **** * Parameters:
 444:.\Generated_Source\PSoC5/I2C_1_MASTER.c **** *  None
 445:.\Generated_Source\PSoC5/I2C_1_MASTER.c **** *
 446:.\Generated_Source\PSoC5/I2C_1_MASTER.c **** * Return:
 447:.\Generated_Source\PSoC5/I2C_1_MASTER.c **** *  Status error - zero means no errors.
 448:.\Generated_Source\PSoC5/I2C_1_MASTER.c **** *
 449:.\Generated_Source\PSoC5/I2C_1_MASTER.c **** * Side Effects:
 450:.\Generated_Source\PSoC5/I2C_1_MASTER.c **** *  The Stop generation is required to complete transaction.
 451:.\Generated_Source\PSoC5/I2C_1_MASTER.c **** *  This function does not wait whileStop condition will be generated.
 452:.\Generated_Source\PSoC5/I2C_1_MASTER.c **** *
 453:.\Generated_Source\PSoC5/I2C_1_MASTER.c **** * Global variables:
 454:.\Generated_Source\PSoC5/I2C_1_MASTER.c **** *  I2C_1_state - used to store current state of software FSM.
 455:.\Generated_Source\PSoC5/I2C_1_MASTER.c **** *
 456:.\Generated_Source\PSoC5/I2C_1_MASTER.c **** * Reentrant:
 457:.\Generated_Source\PSoC5/I2C_1_MASTER.c **** *  No
 458:.\Generated_Source\PSoC5/I2C_1_MASTER.c **** *
 459:.\Generated_Source\PSoC5/I2C_1_MASTER.c **** *******************************************************************************/
 460:.\Generated_Source\PSoC5/I2C_1_MASTER.c **** uint8 I2C_1_MasterSendStop(void) 
 461:.\Generated_Source\PSoC5/I2C_1_MASTER.c **** {
 657              		.loc 1 461 0
 658              		.cfi_startproc
 659              		@ args = 0, pretend = 0, frame = 8
 660              		@ frame_needed = 1, uses_anonymous_args = 0
 661              		@ link register save eliminated.
 662 0000 80B4     		push	{r7}
 663              	.LCFI12:
 664              		.cfi_def_cfa_offset 4
 665              		.cfi_offset 7, -4
 666 0002 83B0     		sub	sp, sp, #12
 667              	.LCFI13:
 668              		.cfi_def_cfa_offset 16
 669 0004 00AF     		add	r7, sp, #0
 670              	.LCFI14:
 671              		.cfi_def_cfa_register 7
 462:.\Generated_Source\PSoC5/I2C_1_MASTER.c ****     uint8 errStatus;
 463:.\Generated_Source\PSoC5/I2C_1_MASTER.c **** 
 464:.\Generated_Source\PSoC5/I2C_1_MASTER.c ****     errStatus = I2C_1_MSTR_NOT_READY;
 672              		.loc 1 464 0
 673 0006 4FF00203 		mov	r3, #2
 674 000a FB71     		strb	r3, [r7, #7]
 465:.\Generated_Source\PSoC5/I2C_1_MASTER.c **** 
 466:.\Generated_Source\PSoC5/I2C_1_MASTER.c ****     /* Check if START condition was generated */
ARM GAS  C:\Users\Colin\AppData\Local\Temp\ccmu05xf.s 			page 21


 467:.\Generated_Source\PSoC5/I2C_1_MASTER.c ****     if(I2C_1_CHECK_MASTER_MODE(I2C_1_MCSR_REG))
 675              		.loc 1 467 0
 676 000c 46F26343 		movw	r3, #25699
 677 0010 C4F20003 		movt	r3, 16384
 678 0014 1B78     		ldrb	r3, [r3, #0]
 679 0016 DBB2     		uxtb	r3, r3
 680 0018 03F00403 		and	r3, r3, #4
 681 001c 002B     		cmp	r3, #0
 682 001e 2CD0     		beq	.L34
 468:.\Generated_Source\PSoC5/I2C_1_MASTER.c ****     {
 469:.\Generated_Source\PSoC5/I2C_1_MASTER.c ****         I2C_1_GENERATE_STOP_MANUAL;              /* Generate STOP */
 683              		.loc 1 469 0
 684 0020 46F27543 		movw	r3, #25717
 685 0024 C4F20003 		movt	r3, 16384
 686 0028 4FF05202 		mov	r2, #82
 687 002c 1A70     		strb	r2, [r3, #0]
 688 002e 46F25243 		movw	r3, #25682
 689 0032 C4F20003 		movt	r3, 16384
 690 0036 4FF00002 		mov	r2, #0
 691 003a 1A70     		strb	r2, [r3, #0]
 692              	.L35:
 693              		.loc 1 469 0 is_stmt 0 discriminator 1
 694 003c 46F26343 		movw	r3, #25699
 695 0040 C4F20003 		movt	r3, 16384
 696 0044 1B78     		ldrb	r3, [r3, #0]
 697 0046 DBB2     		uxtb	r3, r3
 698 0048 03F00103 		and	r3, r3, #1
 699 004c 002B     		cmp	r3, #0
 700 004e F5D1     		bne	.L35
 470:.\Generated_Source\PSoC5/I2C_1_MASTER.c ****         I2C_1_state = I2C_1_SM_IDLE;  /* Reset state to IDLE */
 701              		.loc 1 470 0 is_stmt 1
 702 0050 40F20003 		movw	r3, #:lower16:I2C_1_state
 703 0054 C0F20003 		movt	r3, #:upper16:I2C_1_state
 704 0058 4FF01002 		mov	r2, #16
 705 005c 1A70     		strb	r2, [r3, #0]
 471:.\Generated_Source\PSoC5/I2C_1_MASTER.c **** 
 472:.\Generated_Source\PSoC5/I2C_1_MASTER.c ****         while(I2C_1_WAIT_STOP_COMPLETE(I2C_1_CSR_REG))
 706              		.loc 1 472 0
 707 005e 00BF     		nop
 708              	.L36:
 709              		.loc 1 472 0 is_stmt 0 discriminator 1
 710 0060 46F26343 		movw	r3, #25699
 711 0064 C4F20003 		movt	r3, 16384
 712 0068 1B78     		ldrb	r3, [r3, #0]
 713 006a DBB2     		uxtb	r3, r3
 714 006c 03F02103 		and	r3, r3, #33
 715 0070 002B     		cmp	r3, #0
 716 0072 F5D0     		beq	.L36
 473:.\Generated_Source\PSoC5/I2C_1_MASTER.c ****         {
 474:.\Generated_Source\PSoC5/I2C_1_MASTER.c ****             ; /* Wait for Stop to be generated */
 475:.\Generated_Source\PSoC5/I2C_1_MASTER.c ****         }
 476:.\Generated_Source\PSoC5/I2C_1_MASTER.c **** 
 477:.\Generated_Source\PSoC5/I2C_1_MASTER.c ****         errStatus = I2C_1_MSTR_NO_ERROR;
 717              		.loc 1 477 0 is_stmt 1
 718 0074 4FF00003 		mov	r3, #0
 719 0078 FB71     		strb	r3, [r7, #7]
 720              	.L34:
ARM GAS  C:\Users\Colin\AppData\Local\Temp\ccmu05xf.s 			page 22


 478:.\Generated_Source\PSoC5/I2C_1_MASTER.c ****         #if(I2C_1_MODE_MULTI_MASTER_ENABLED)
 479:.\Generated_Source\PSoC5/I2C_1_MASTER.c ****             if(I2C_1_CHECK_LOST_ARB(I2C_1_CSR_REG))
 480:.\Generated_Source\PSoC5/I2C_1_MASTER.c ****             {
 481:.\Generated_Source\PSoC5/I2C_1_MASTER.c ****                 I2C_1_BUS_RELEASE;
 482:.\Generated_Source\PSoC5/I2C_1_MASTER.c **** 
 483:.\Generated_Source\PSoC5/I2C_1_MASTER.c ****                 /* NACK was generated by enother instead Stop */
 484:.\Generated_Source\PSoC5/I2C_1_MASTER.c ****                 errStatus = I2C_1_MSTR_ERR_ARB_LOST;
 485:.\Generated_Source\PSoC5/I2C_1_MASTER.c ****             }
 486:.\Generated_Source\PSoC5/I2C_1_MASTER.c ****         #endif /* (I2C_1_MODE_MULTI_MASTER_ENABLED) */
 487:.\Generated_Source\PSoC5/I2C_1_MASTER.c ****     }
 488:.\Generated_Source\PSoC5/I2C_1_MASTER.c **** 
 489:.\Generated_Source\PSoC5/I2C_1_MASTER.c ****     return(errStatus);
 721              		.loc 1 489 0
 722 007a FB79     		ldrb	r3, [r7, #7]	@ zero_extendqisi2
 490:.\Generated_Source\PSoC5/I2C_1_MASTER.c **** }
 723              		.loc 1 490 0
 724 007c 1846     		mov	r0, r3
 725 007e 07F10C07 		add	r7, r7, #12
 726 0082 BD46     		mov	sp, r7
 727 0084 80BC     		pop	{r7}
 728 0086 7047     		bx	lr
 729              		.cfi_endproc
 730              	.LFE4:
 731              		.size	I2C_1_MasterSendStop, .-I2C_1_MasterSendStop
 732              		.section	.text.I2C_1_MasterWriteByte,"ax",%progbits
 733              		.align	2
 734              		.global	I2C_1_MasterWriteByte
 735              		.thumb
 736              		.thumb_func
 737              		.type	I2C_1_MasterWriteByte, %function
 738              	I2C_1_MasterWriteByte:
 739              	.LFB5:
 491:.\Generated_Source\PSoC5/I2C_1_MASTER.c **** 
 492:.\Generated_Source\PSoC5/I2C_1_MASTER.c **** 
 493:.\Generated_Source\PSoC5/I2C_1_MASTER.c **** /*******************************************************************************
 494:.\Generated_Source\PSoC5/I2C_1_MASTER.c **** * Function Name: I2C_1_MasterWriteByte
 495:.\Generated_Source\PSoC5/I2C_1_MASTER.c **** ********************************************************************************
 496:.\Generated_Source\PSoC5/I2C_1_MASTER.c **** *
 497:.\Generated_Source\PSoC5/I2C_1_MASTER.c **** * Summary:
 498:.\Generated_Source\PSoC5/I2C_1_MASTER.c **** *  Sends one byte to a slave. A valid Start or ReStart condition must be
 499:.\Generated_Source\PSoC5/I2C_1_MASTER.c **** *  generated before this call this function. Function do nothing if Start or
 500:.\Generated_Source\PSoC5/I2C_1_MASTER.c **** *  Restart condition was failed before call this function.
 501:.\Generated_Source\PSoC5/I2C_1_MASTER.c **** *
 502:.\Generated_Source\PSoC5/I2C_1_MASTER.c **** * Parameters:
 503:.\Generated_Source\PSoC5/I2C_1_MASTER.c **** *  data:  The data byte to send to the slave.
 504:.\Generated_Source\PSoC5/I2C_1_MASTER.c **** *
 505:.\Generated_Source\PSoC5/I2C_1_MASTER.c **** * Return:
 506:.\Generated_Source\PSoC5/I2C_1_MASTER.c **** *  Status error - zero means no errors.
 507:.\Generated_Source\PSoC5/I2C_1_MASTER.c **** *
 508:.\Generated_Source\PSoC5/I2C_1_MASTER.c **** * Side Effects:
 509:.\Generated_Source\PSoC5/I2C_1_MASTER.c **** *  This function is entered without a 'byte complete' bit set in the I2C_CSR
 510:.\Generated_Source\PSoC5/I2C_1_MASTER.c **** *  register. It does not exit until it will be set.
 511:.\Generated_Source\PSoC5/I2C_1_MASTER.c **** *
 512:.\Generated_Source\PSoC5/I2C_1_MASTER.c **** * Global variables:
 513:.\Generated_Source\PSoC5/I2C_1_MASTER.c **** *  I2C_1_state - used to store current state of software FSM.
 514:.\Generated_Source\PSoC5/I2C_1_MASTER.c **** *
 515:.\Generated_Source\PSoC5/I2C_1_MASTER.c **** *******************************************************************************/
ARM GAS  C:\Users\Colin\AppData\Local\Temp\ccmu05xf.s 			page 23


 516:.\Generated_Source\PSoC5/I2C_1_MASTER.c **** uint8 I2C_1_MasterWriteByte(uint8 theByte) 
 517:.\Generated_Source\PSoC5/I2C_1_MASTER.c **** {
 740              		.loc 1 517 0
 741              		.cfi_startproc
 742              		@ args = 0, pretend = 0, frame = 16
 743              		@ frame_needed = 1, uses_anonymous_args = 0
 744              		@ link register save eliminated.
 745 0000 80B4     		push	{r7}
 746              	.LCFI15:
 747              		.cfi_def_cfa_offset 4
 748              		.cfi_offset 7, -4
 749 0002 85B0     		sub	sp, sp, #20
 750              	.LCFI16:
 751              		.cfi_def_cfa_offset 24
 752 0004 00AF     		add	r7, sp, #0
 753              	.LCFI17:
 754              		.cfi_def_cfa_register 7
 755 0006 0346     		mov	r3, r0
 756 0008 FB71     		strb	r3, [r7, #7]
 518:.\Generated_Source\PSoC5/I2C_1_MASTER.c ****     uint8 errStatus;
 519:.\Generated_Source\PSoC5/I2C_1_MASTER.c **** 
 520:.\Generated_Source\PSoC5/I2C_1_MASTER.c ****     errStatus = I2C_1_MSTR_NOT_READY;
 757              		.loc 1 520 0
 758 000a 4FF00203 		mov	r3, #2
 759 000e FB73     		strb	r3, [r7, #15]
 521:.\Generated_Source\PSoC5/I2C_1_MASTER.c **** 
 522:.\Generated_Source\PSoC5/I2C_1_MASTER.c ****     /* Check if START condition was generated */
 523:.\Generated_Source\PSoC5/I2C_1_MASTER.c ****     if(I2C_1_CHECK_MASTER_MODE(I2C_1_MCSR_REG))
 760              		.loc 1 523 0
 761 0010 46F26343 		movw	r3, #25699
 762 0014 C4F20003 		movt	r3, 16384
 763 0018 1B78     		ldrb	r3, [r3, #0]
 764 001a DBB2     		uxtb	r3, r3
 765 001c 03F00403 		and	r3, r3, #4
 766 0020 002B     		cmp	r3, #0
 767 0022 4ED0     		beq	.L39
 524:.\Generated_Source\PSoC5/I2C_1_MASTER.c ****     {
 525:.\Generated_Source\PSoC5/I2C_1_MASTER.c ****         I2C_1_DATA_REG = theByte;                        /* Write DATA register */
 768              		.loc 1 525 0
 769 0024 46F20243 		movw	r3, #25602
 770 0028 C4F20003 		movt	r3, 16384
 771 002c FA79     		ldrb	r2, [r7, #7]
 772 002e 1A70     		strb	r2, [r3, #0]
 526:.\Generated_Source\PSoC5/I2C_1_MASTER.c ****         I2C_1_TRANSMIT_DATA_MANUAL;                      /* Set transmit mode */
 773              		.loc 1 526 0
 774 0030 46F27543 		movw	r3, #25717
 775 0034 C4F20003 		movt	r3, 16384
 776 0038 4FF00602 		mov	r2, #6
 777 003c 1A70     		strb	r2, [r3, #0]
 778 003e 46F25243 		movw	r3, #25682
 779 0042 C4F20003 		movt	r3, 16384
 780 0046 4FF00002 		mov	r2, #0
 781 004a 1A70     		strb	r2, [r3, #0]
 782              	.L40:
 783              		.loc 1 526 0 is_stmt 0 discriminator 1
 784 004c 46F26343 		movw	r3, #25699
 785 0050 C4F20003 		movt	r3, 16384
ARM GAS  C:\Users\Colin\AppData\Local\Temp\ccmu05xf.s 			page 24


 786 0054 1B78     		ldrb	r3, [r3, #0]
 787 0056 DBB2     		uxtb	r3, r3
 788 0058 03F00103 		and	r3, r3, #1
 789 005c 002B     		cmp	r3, #0
 790 005e F5D1     		bne	.L40
 527:.\Generated_Source\PSoC5/I2C_1_MASTER.c ****         I2C_1_state = I2C_1_SM_MSTR_WR_DATA;  /* Set state WR_DATA */
 791              		.loc 1 527 0 is_stmt 1
 792 0060 40F20003 		movw	r3, #:lower16:I2C_1_state
 793 0064 C0F20003 		movt	r3, #:upper16:I2C_1_state
 794 0068 4FF04602 		mov	r2, #70
 795 006c 1A70     		strb	r2, [r3, #0]
 528:.\Generated_Source\PSoC5/I2C_1_MASTER.c **** 
 529:.\Generated_Source\PSoC5/I2C_1_MASTER.c ****         /* Make sure the last byte has been transfered first */
 530:.\Generated_Source\PSoC5/I2C_1_MASTER.c ****         while(I2C_1_WAIT_BYTE_COMPLETE(I2C_1_CSR_REG))
 796              		.loc 1 530 0
 797 006e 00BF     		nop
 798              	.L41:
 799              		.loc 1 530 0 is_stmt 0 discriminator 1
 800 0070 46F26343 		movw	r3, #25699
 801 0074 C4F20003 		movt	r3, 16384
 802 0078 1B78     		ldrb	r3, [r3, #0]
 803 007a DBB2     		uxtb	r3, r3
 804 007c 03F00103 		and	r3, r3, #1
 805 0080 002B     		cmp	r3, #0
 806 0082 F5D0     		beq	.L41
 531:.\Generated_Source\PSoC5/I2C_1_MASTER.c ****         {
 532:.\Generated_Source\PSoC5/I2C_1_MASTER.c ****             ; /* Wait for byte to be written */
 533:.\Generated_Source\PSoC5/I2C_1_MASTER.c ****         }
 534:.\Generated_Source\PSoC5/I2C_1_MASTER.c **** 
 535:.\Generated_Source\PSoC5/I2C_1_MASTER.c ****         #if(I2C_1_MODE_MULTI_MASTER_ENABLED)
 536:.\Generated_Source\PSoC5/I2C_1_MASTER.c ****             if(I2C_1_CHECK_LOST_ARB(I2C_1_CSR_REG))
 537:.\Generated_Source\PSoC5/I2C_1_MASTER.c ****             {
 538:.\Generated_Source\PSoC5/I2C_1_MASTER.c ****                 I2C_1_BUS_RELEASE;
 539:.\Generated_Source\PSoC5/I2C_1_MASTER.c **** 
 540:.\Generated_Source\PSoC5/I2C_1_MASTER.c ****                 /* Master lost arbitrage: reset FSM to IDLE */
 541:.\Generated_Source\PSoC5/I2C_1_MASTER.c ****                 I2C_1_state = I2C_1_SM_IDLE;
 542:.\Generated_Source\PSoC5/I2C_1_MASTER.c ****                 errStatus = I2C_1_MSTR_ERR_ARB_LOST;
 543:.\Generated_Source\PSoC5/I2C_1_MASTER.c ****             }
 544:.\Generated_Source\PSoC5/I2C_1_MASTER.c ****             /* Check LRB bit */
 545:.\Generated_Source\PSoC5/I2C_1_MASTER.c ****             else
 546:.\Generated_Source\PSoC5/I2C_1_MASTER.c ****         #endif /* (I2C_1_MODE_MULTI_MASTER_ENABLED) */
 547:.\Generated_Source\PSoC5/I2C_1_MASTER.c **** 
 548:.\Generated_Source\PSoC5/I2C_1_MASTER.c ****             if(I2C_1_CHECK_DATA_ACK(I2C_1_CSR_REG))
 807              		.loc 1 548 0 is_stmt 1
 808 0084 46F26343 		movw	r3, #25699
 809 0088 C4F20003 		movt	r3, 16384
 810 008c 1B78     		ldrb	r3, [r3, #0]
 811 008e DBB2     		uxtb	r3, r3
 812 0090 03F00203 		and	r3, r3, #2
 813 0094 002B     		cmp	r3, #0
 814 0096 0AD1     		bne	.L42
 549:.\Generated_Source\PSoC5/I2C_1_MASTER.c ****             {
 550:.\Generated_Source\PSoC5/I2C_1_MASTER.c ****                 I2C_1_state = I2C_1_SM_MSTR_HALT;     /* Set state to HALT */
 815              		.loc 1 550 0
 816 0098 40F20003 		movw	r3, #:lower16:I2C_1_state
 817 009c C0F20003 		movt	r3, #:upper16:I2C_1_state
 818 00a0 4FF06002 		mov	r2, #96
ARM GAS  C:\Users\Colin\AppData\Local\Temp\ccmu05xf.s 			page 25


 819 00a4 1A70     		strb	r2, [r3, #0]
 551:.\Generated_Source\PSoC5/I2C_1_MASTER.c ****                 errStatus = I2C_1_MSTR_NO_ERROR;                 /* The LRB was ACKed */
 820              		.loc 1 551 0
 821 00a6 4FF00003 		mov	r3, #0
 822 00aa FB73     		strb	r3, [r7, #15]
 823 00ac 09E0     		b	.L39
 824              	.L42:
 552:.\Generated_Source\PSoC5/I2C_1_MASTER.c ****             }
 553:.\Generated_Source\PSoC5/I2C_1_MASTER.c ****             else
 554:.\Generated_Source\PSoC5/I2C_1_MASTER.c ****             {
 555:.\Generated_Source\PSoC5/I2C_1_MASTER.c ****                 I2C_1_state = I2C_1_SM_MSTR_HALT;     /* Set state to HALT */
 825              		.loc 1 555 0
 826 00ae 40F20003 		movw	r3, #:lower16:I2C_1_state
 827 00b2 C0F20003 		movt	r3, #:upper16:I2C_1_state
 828 00b6 4FF06002 		mov	r2, #96
 829 00ba 1A70     		strb	r2, [r3, #0]
 556:.\Generated_Source\PSoC5/I2C_1_MASTER.c ****                 errStatus = I2C_1_MSTR_ERR_LB_NAK;               /* The LRB was NACKed */
 830              		.loc 1 556 0
 831 00bc 4FF00303 		mov	r3, #3
 832 00c0 FB73     		strb	r3, [r7, #15]
 833              	.L39:
 557:.\Generated_Source\PSoC5/I2C_1_MASTER.c ****             }
 558:.\Generated_Source\PSoC5/I2C_1_MASTER.c ****     }
 559:.\Generated_Source\PSoC5/I2C_1_MASTER.c **** 
 560:.\Generated_Source\PSoC5/I2C_1_MASTER.c ****     return(errStatus);
 834              		.loc 1 560 0
 835 00c2 FB7B     		ldrb	r3, [r7, #15]	@ zero_extendqisi2
 561:.\Generated_Source\PSoC5/I2C_1_MASTER.c **** }
 836              		.loc 1 561 0
 837 00c4 1846     		mov	r0, r3
 838 00c6 07F11407 		add	r7, r7, #20
 839 00ca BD46     		mov	sp, r7
 840 00cc 80BC     		pop	{r7}
 841 00ce 7047     		bx	lr
 842              		.cfi_endproc
 843              	.LFE5:
 844              		.size	I2C_1_MasterWriteByte, .-I2C_1_MasterWriteByte
 845              		.section	.text.I2C_1_MasterReadByte,"ax",%progbits
 846              		.align	2
 847              		.global	I2C_1_MasterReadByte
 848              		.thumb
 849              		.thumb_func
 850              		.type	I2C_1_MasterReadByte, %function
 851              	I2C_1_MasterReadByte:
 852              	.LFB6:
 562:.\Generated_Source\PSoC5/I2C_1_MASTER.c **** 
 563:.\Generated_Source\PSoC5/I2C_1_MASTER.c **** 
 564:.\Generated_Source\PSoC5/I2C_1_MASTER.c **** /*******************************************************************************
 565:.\Generated_Source\PSoC5/I2C_1_MASTER.c **** * Function Name: I2C_1_MasterReadByte
 566:.\Generated_Source\PSoC5/I2C_1_MASTER.c **** ********************************************************************************
 567:.\Generated_Source\PSoC5/I2C_1_MASTER.c **** *
 568:.\Generated_Source\PSoC5/I2C_1_MASTER.c **** * Summary:
 569:.\Generated_Source\PSoC5/I2C_1_MASTER.c **** *  Reads one byte from a slave and ACK or NACK the transfer. A valid Start or
 570:.\Generated_Source\PSoC5/I2C_1_MASTER.c **** *  ReStart condition must be generated before this call this function. Function
 571:.\Generated_Source\PSoC5/I2C_1_MASTER.c **** *  do nothing if Start or Restart condition was failed before call this
 572:.\Generated_Source\PSoC5/I2C_1_MASTER.c **** *  function.
 573:.\Generated_Source\PSoC5/I2C_1_MASTER.c **** *
ARM GAS  C:\Users\Colin\AppData\Local\Temp\ccmu05xf.s 			page 26


 574:.\Generated_Source\PSoC5/I2C_1_MASTER.c **** * Parameters:
 575:.\Generated_Source\PSoC5/I2C_1_MASTER.c **** *  acknNack:  Zero, response with NACK, if non-zero response with ACK.
 576:.\Generated_Source\PSoC5/I2C_1_MASTER.c **** *
 577:.\Generated_Source\PSoC5/I2C_1_MASTER.c **** * Return:
 578:.\Generated_Source\PSoC5/I2C_1_MASTER.c **** *  Byte read from slave.
 579:.\Generated_Source\PSoC5/I2C_1_MASTER.c **** *
 580:.\Generated_Source\PSoC5/I2C_1_MASTER.c **** * Side Effects:
 581:.\Generated_Source\PSoC5/I2C_1_MASTER.c **** *  This function is entered without a 'byte complete' bit set in the I2C_CSR
 582:.\Generated_Source\PSoC5/I2C_1_MASTER.c **** *  register. It does not exit until it will be set.
 583:.\Generated_Source\PSoC5/I2C_1_MASTER.c **** *
 584:.\Generated_Source\PSoC5/I2C_1_MASTER.c **** * Global variables:
 585:.\Generated_Source\PSoC5/I2C_1_MASTER.c **** *  I2C_1_state - used to store current state of software FSM.
 586:.\Generated_Source\PSoC5/I2C_1_MASTER.c **** *
 587:.\Generated_Source\PSoC5/I2C_1_MASTER.c **** * Reentrant:
 588:.\Generated_Source\PSoC5/I2C_1_MASTER.c **** *  No
 589:.\Generated_Source\PSoC5/I2C_1_MASTER.c **** *
 590:.\Generated_Source\PSoC5/I2C_1_MASTER.c **** *******************************************************************************/
 591:.\Generated_Source\PSoC5/I2C_1_MASTER.c **** uint8 I2C_1_MasterReadByte(uint8 acknNak) 
 592:.\Generated_Source\PSoC5/I2C_1_MASTER.c **** {
 853              		.loc 1 592 0
 854              		.cfi_startproc
 855              		@ args = 0, pretend = 0, frame = 16
 856              		@ frame_needed = 1, uses_anonymous_args = 0
 857              		@ link register save eliminated.
 858 0000 80B4     		push	{r7}
 859              	.LCFI18:
 860              		.cfi_def_cfa_offset 4
 861              		.cfi_offset 7, -4
 862 0002 85B0     		sub	sp, sp, #20
 863              	.LCFI19:
 864              		.cfi_def_cfa_offset 24
 865 0004 00AF     		add	r7, sp, #0
 866              	.LCFI20:
 867              		.cfi_def_cfa_register 7
 868 0006 0346     		mov	r3, r0
 869 0008 FB71     		strb	r3, [r7, #7]
 593:.\Generated_Source\PSoC5/I2C_1_MASTER.c ****     uint8 theByte;
 594:.\Generated_Source\PSoC5/I2C_1_MASTER.c **** 
 595:.\Generated_Source\PSoC5/I2C_1_MASTER.c ****     theByte = 0u;
 870              		.loc 1 595 0
 871 000a 4FF00003 		mov	r3, #0
 872 000e FB73     		strb	r3, [r7, #15]
 596:.\Generated_Source\PSoC5/I2C_1_MASTER.c **** 
 597:.\Generated_Source\PSoC5/I2C_1_MASTER.c ****     /* Check if START condition was generated */
 598:.\Generated_Source\PSoC5/I2C_1_MASTER.c ****     if(I2C_1_CHECK_MASTER_MODE(I2C_1_MCSR_REG))
 873              		.loc 1 598 0
 874 0010 46F26343 		movw	r3, #25699
 875 0014 C4F20003 		movt	r3, 16384
 876 0018 1B78     		ldrb	r3, [r3, #0]
 877 001a DBB2     		uxtb	r3, r3
 878 001c 03F00403 		and	r3, r3, #4
 879 0020 002B     		cmp	r3, #0
 880 0022 5AD0     		beq	.L45
 599:.\Generated_Source\PSoC5/I2C_1_MASTER.c ****     {
 600:.\Generated_Source\PSoC5/I2C_1_MASTER.c ****         /* When address phase need release the bus and receive the byte, then decide ACK or NACK */
 601:.\Generated_Source\PSoC5/I2C_1_MASTER.c ****         if(I2C_1_SM_MSTR_RD_ADDR == I2C_1_state)
 881              		.loc 1 601 0
ARM GAS  C:\Users\Colin\AppData\Local\Temp\ccmu05xf.s 			page 27


 882 0024 40F20003 		movw	r3, #:lower16:I2C_1_state
 883 0028 C0F20003 		movt	r3, #:upper16:I2C_1_state
 884 002c 1B78     		ldrb	r3, [r3, #0]
 885 002e DBB2     		uxtb	r3, r3
 886 0030 492B     		cmp	r3, #73
 887 0032 1ED1     		bne	.L52
 602:.\Generated_Source\PSoC5/I2C_1_MASTER.c ****         {
 603:.\Generated_Source\PSoC5/I2C_1_MASTER.c ****             I2C_1_state = I2C_1_SM_MSTR_RD_DATA;
 888              		.loc 1 603 0
 889 0034 40F20003 		movw	r3, #:lower16:I2C_1_state
 890 0038 C0F20003 		movt	r3, #:upper16:I2C_1_state
 891 003c 4FF04A02 		mov	r2, #74
 892 0040 1A70     		strb	r2, [r3, #0]
 604:.\Generated_Source\PSoC5/I2C_1_MASTER.c ****             I2C_1_READY_TO_READ_MANUAL;
 893              		.loc 1 604 0
 894 0042 46F27543 		movw	r3, #25717
 895 0046 C4F20003 		movt	r3, 16384
 896 004a 4FF00202 		mov	r2, #2
 897 004e 1A70     		strb	r2, [r3, #0]
 898 0050 46F25243 		movw	r3, #25682
 899 0054 C4F20003 		movt	r3, 16384
 900 0058 4FF00002 		mov	r2, #0
 901 005c 1A70     		strb	r2, [r3, #0]
 902              	.L47:
 903              		.loc 1 604 0 is_stmt 0 discriminator 1
 904 005e 46F26343 		movw	r3, #25699
 905 0062 C4F20003 		movt	r3, 16384
 906 0066 1B78     		ldrb	r3, [r3, #0]
 907 0068 DBB2     		uxtb	r3, r3
 908 006a 03F00103 		and	r3, r3, #1
 909 006e 002B     		cmp	r3, #0
 910 0070 F5D1     		bne	.L47
 911              	.L52:
 605:.\Generated_Source\PSoC5/I2C_1_MASTER.c ****         }
 606:.\Generated_Source\PSoC5/I2C_1_MASTER.c **** 
 607:.\Generated_Source\PSoC5/I2C_1_MASTER.c ****         while(I2C_1_WAIT_BYTE_COMPLETE(I2C_1_CSR_REG))
 912              		.loc 1 607 0 is_stmt 1
 913 0072 00BF     		nop
 914              	.L48:
 915              		.loc 1 607 0 is_stmt 0 discriminator 1
 916 0074 46F26343 		movw	r3, #25699
 917 0078 C4F20003 		movt	r3, 16384
 918 007c 1B78     		ldrb	r3, [r3, #0]
 919 007e DBB2     		uxtb	r3, r3
 920 0080 03F00103 		and	r3, r3, #1
 921 0084 002B     		cmp	r3, #0
 922 0086 F5D0     		beq	.L48
 608:.\Generated_Source\PSoC5/I2C_1_MASTER.c ****         {
 609:.\Generated_Source\PSoC5/I2C_1_MASTER.c ****             ; /* Wait for byte to be read */
 610:.\Generated_Source\PSoC5/I2C_1_MASTER.c ****         }
 611:.\Generated_Source\PSoC5/I2C_1_MASTER.c **** 
 612:.\Generated_Source\PSoC5/I2C_1_MASTER.c ****         theByte = I2C_1_DATA_REG;
 923              		.loc 1 612 0 is_stmt 1
 924 0088 46F20243 		movw	r3, #25602
 925 008c C4F20003 		movt	r3, 16384
 926 0090 1B78     		ldrb	r3, [r3, #0]
 927 0092 FB73     		strb	r3, [r7, #15]
ARM GAS  C:\Users\Colin\AppData\Local\Temp\ccmu05xf.s 			page 28


 613:.\Generated_Source\PSoC5/I2C_1_MASTER.c **** 
 614:.\Generated_Source\PSoC5/I2C_1_MASTER.c ****         /* Now if the ACK flag was set, ACK the data which will release the bus and
 615:.\Generated_Source\PSoC5/I2C_1_MASTER.c ****            start the next byte in otherwise do NOTHING to the CSR reg.
 616:.\Generated_Source\PSoC5/I2C_1_MASTER.c ****            This will allow the calling routine to generate a repeat start or
 617:.\Generated_Source\PSoC5/I2C_1_MASTER.c ****            stop depending on it's preference. */
 618:.\Generated_Source\PSoC5/I2C_1_MASTER.c ****         if(acknNak != 0u)   /* Do ACK */
 928              		.loc 1 618 0
 929 0094 FB79     		ldrb	r3, [r7, #7]	@ zero_extendqisi2
 930 0096 002B     		cmp	r3, #0
 931 0098 18D0     		beq	.L49
 619:.\Generated_Source\PSoC5/I2C_1_MASTER.c ****         {
 620:.\Generated_Source\PSoC5/I2C_1_MASTER.c ****             I2C_1_ACK_AND_RECEIVE_MANUAL;
 932              		.loc 1 620 0
 933 009a 46F27543 		movw	r3, #25717
 934 009e C4F20003 		movt	r3, 16384
 935 00a2 4FF00202 		mov	r2, #2
 936 00a6 1A70     		strb	r2, [r3, #0]
 937 00a8 46F25243 		movw	r3, #25682
 938 00ac C4F20003 		movt	r3, 16384
 939 00b0 4FF00002 		mov	r2, #0
 940 00b4 1A70     		strb	r2, [r3, #0]
 941              	.L50:
 942              		.loc 1 620 0 is_stmt 0 discriminator 1
 943 00b6 46F26343 		movw	r3, #25699
 944 00ba C4F20003 		movt	r3, 16384
 945 00be 1B78     		ldrb	r3, [r3, #0]
 946 00c0 DBB2     		uxtb	r3, r3
 947 00c2 03F00103 		and	r3, r3, #1
 948 00c6 002B     		cmp	r3, #0
 949 00c8 F5D1     		bne	.L50
 950              		.loc 1 620 0
 951 00ca 06E0     		b	.L45
 952              	.L49:
 621:.\Generated_Source\PSoC5/I2C_1_MASTER.c ****         }
 622:.\Generated_Source\PSoC5/I2C_1_MASTER.c ****         else                /* Do NACK */
 623:.\Generated_Source\PSoC5/I2C_1_MASTER.c ****         {
 624:.\Generated_Source\PSoC5/I2C_1_MASTER.c ****             /* Do nothing to be able work with ReStart */
 625:.\Generated_Source\PSoC5/I2C_1_MASTER.c ****             I2C_1_state = I2C_1_SM_MSTR_HALT;
 953              		.loc 1 625 0 is_stmt 1
 954 00cc 40F20003 		movw	r3, #:lower16:I2C_1_state
 955 00d0 C0F20003 		movt	r3, #:upper16:I2C_1_state
 956 00d4 4FF06002 		mov	r2, #96
 957 00d8 1A70     		strb	r2, [r3, #0]
 958              	.L45:
 626:.\Generated_Source\PSoC5/I2C_1_MASTER.c ****         }
 627:.\Generated_Source\PSoC5/I2C_1_MASTER.c ****     }
 628:.\Generated_Source\PSoC5/I2C_1_MASTER.c **** 
 629:.\Generated_Source\PSoC5/I2C_1_MASTER.c ****     return(theByte);
 959              		.loc 1 629 0
 960 00da FB7B     		ldrb	r3, [r7, #15]	@ zero_extendqisi2
 630:.\Generated_Source\PSoC5/I2C_1_MASTER.c **** }
 961              		.loc 1 630 0
 962 00dc 1846     		mov	r0, r3
 963 00de 07F11407 		add	r7, r7, #20
 964 00e2 BD46     		mov	sp, r7
 965 00e4 80BC     		pop	{r7}
 966 00e6 7047     		bx	lr
ARM GAS  C:\Users\Colin\AppData\Local\Temp\ccmu05xf.s 			page 29


 967              		.cfi_endproc
 968              	.LFE6:
 969              		.size	I2C_1_MasterReadByte, .-I2C_1_MasterReadByte
 970              		.section	.text.I2C_1_MasterStatus,"ax",%progbits
 971              		.align	2
 972              		.global	I2C_1_MasterStatus
 973              		.thumb
 974              		.thumb_func
 975              		.type	I2C_1_MasterStatus, %function
 976              	I2C_1_MasterStatus:
 977              	.LFB7:
 631:.\Generated_Source\PSoC5/I2C_1_MASTER.c **** 
 632:.\Generated_Source\PSoC5/I2C_1_MASTER.c **** 
 633:.\Generated_Source\PSoC5/I2C_1_MASTER.c **** /*******************************************************************************
 634:.\Generated_Source\PSoC5/I2C_1_MASTER.c **** * Function Name: I2C_1_MasterStatus
 635:.\Generated_Source\PSoC5/I2C_1_MASTER.c **** ********************************************************************************
 636:.\Generated_Source\PSoC5/I2C_1_MASTER.c **** *
 637:.\Generated_Source\PSoC5/I2C_1_MASTER.c **** * Summary:
 638:.\Generated_Source\PSoC5/I2C_1_MASTER.c **** *  Returns the master's communication status.
 639:.\Generated_Source\PSoC5/I2C_1_MASTER.c **** *
 640:.\Generated_Source\PSoC5/I2C_1_MASTER.c **** * Parameters:
 641:.\Generated_Source\PSoC5/I2C_1_MASTER.c **** *  None
 642:.\Generated_Source\PSoC5/I2C_1_MASTER.c **** *
 643:.\Generated_Source\PSoC5/I2C_1_MASTER.c **** * Return:
 644:.\Generated_Source\PSoC5/I2C_1_MASTER.c **** *  Current status of I2C master.
 645:.\Generated_Source\PSoC5/I2C_1_MASTER.c **** *
 646:.\Generated_Source\PSoC5/I2C_1_MASTER.c **** * Global variables:
 647:.\Generated_Source\PSoC5/I2C_1_MASTER.c **** *  I2C_1_mstrStatus - used to store current status of I2C Master.
 648:.\Generated_Source\PSoC5/I2C_1_MASTER.c **** *
 649:.\Generated_Source\PSoC5/I2C_1_MASTER.c **** *******************************************************************************/
 650:.\Generated_Source\PSoC5/I2C_1_MASTER.c **** uint8 I2C_1_MasterStatus(void) 
 651:.\Generated_Source\PSoC5/I2C_1_MASTER.c **** {
 978              		.loc 1 651 0
 979              		.cfi_startproc
 980              		@ args = 0, pretend = 0, frame = 8
 981              		@ frame_needed = 1, uses_anonymous_args = 0
 982              		@ link register save eliminated.
 983 0000 80B4     		push	{r7}
 984              	.LCFI21:
 985              		.cfi_def_cfa_offset 4
 986              		.cfi_offset 7, -4
 987 0002 83B0     		sub	sp, sp, #12
 988              	.LCFI22:
 989              		.cfi_def_cfa_offset 16
 990 0004 00AF     		add	r7, sp, #0
 991              	.LCFI23:
 992              		.cfi_def_cfa_register 7
 652:.\Generated_Source\PSoC5/I2C_1_MASTER.c ****     uint8 status;
 653:.\Generated_Source\PSoC5/I2C_1_MASTER.c **** 
 654:.\Generated_Source\PSoC5/I2C_1_MASTER.c ****     status = I2C_1_mstrStatus;
 993              		.loc 1 654 0
 994 0006 40F20003 		movw	r3, #:lower16:I2C_1_mstrStatus
 995 000a C0F20003 		movt	r3, #:upper16:I2C_1_mstrStatus
 996 000e 1B78     		ldrb	r3, [r3, #0]
 997 0010 FB71     		strb	r3, [r7, #7]
 655:.\Generated_Source\PSoC5/I2C_1_MASTER.c **** 
 656:.\Generated_Source\PSoC5/I2C_1_MASTER.c ****     /* When in Master state only transaction is in progress */
ARM GAS  C:\Users\Colin\AppData\Local\Temp\ccmu05xf.s 			page 30


 657:.\Generated_Source\PSoC5/I2C_1_MASTER.c ****     if(I2C_1_CHECK_SM_MASTER)
 998              		.loc 1 657 0
 999 0012 40F20003 		movw	r3, #:lower16:I2C_1_state
 1000 0016 C0F20003 		movt	r3, #:upper16:I2C_1_state
 1001 001a 1B78     		ldrb	r3, [r3, #0]
 1002 001c DBB2     		uxtb	r3, r3
 1003 001e 03F04003 		and	r3, r3, #64
 1004 0022 DBB2     		uxtb	r3, r3
 1005 0024 002B     		cmp	r3, #0
 1006 0026 03D0     		beq	.L54
 658:.\Generated_Source\PSoC5/I2C_1_MASTER.c ****     {
 659:.\Generated_Source\PSoC5/I2C_1_MASTER.c ****         /* Add transaction in progress activity to master status */
 660:.\Generated_Source\PSoC5/I2C_1_MASTER.c ****         status |= I2C_1_MSTAT_XFER_INP;
 1007              		.loc 1 660 0
 1008 0028 FB79     		ldrb	r3, [r7, #7]
 1009 002a 43F00403 		orr	r3, r3, #4
 1010 002e FB71     		strb	r3, [r7, #7]
 1011              	.L54:
 661:.\Generated_Source\PSoC5/I2C_1_MASTER.c ****     }
 662:.\Generated_Source\PSoC5/I2C_1_MASTER.c ****     else
 663:.\Generated_Source\PSoC5/I2C_1_MASTER.c ****     {
 664:.\Generated_Source\PSoC5/I2C_1_MASTER.c ****         /* Current master status is valid */
 665:.\Generated_Source\PSoC5/I2C_1_MASTER.c ****     }
 666:.\Generated_Source\PSoC5/I2C_1_MASTER.c **** 
 667:.\Generated_Source\PSoC5/I2C_1_MASTER.c ****     return(status);
 1012              		.loc 1 667 0
 1013 0030 FB79     		ldrb	r3, [r7, #7]	@ zero_extendqisi2
 668:.\Generated_Source\PSoC5/I2C_1_MASTER.c **** }
 1014              		.loc 1 668 0
 1015 0032 1846     		mov	r0, r3
 1016 0034 07F10C07 		add	r7, r7, #12
 1017 0038 BD46     		mov	sp, r7
 1018 003a 80BC     		pop	{r7}
 1019 003c 7047     		bx	lr
 1020              		.cfi_endproc
 1021              	.LFE7:
 1022              		.size	I2C_1_MasterStatus, .-I2C_1_MasterStatus
 1023 003e 00BF     		.section	.text.I2C_1_MasterClearStatus,"ax",%progbits
 1024              		.align	2
 1025              		.global	I2C_1_MasterClearStatus
 1026              		.thumb
 1027              		.thumb_func
 1028              		.type	I2C_1_MasterClearStatus, %function
 1029              	I2C_1_MasterClearStatus:
 1030              	.LFB8:
 669:.\Generated_Source\PSoC5/I2C_1_MASTER.c **** 
 670:.\Generated_Source\PSoC5/I2C_1_MASTER.c **** 
 671:.\Generated_Source\PSoC5/I2C_1_MASTER.c **** /*******************************************************************************
 672:.\Generated_Source\PSoC5/I2C_1_MASTER.c **** * Function Name: I2C_1_MasterClearStatus
 673:.\Generated_Source\PSoC5/I2C_1_MASTER.c **** ********************************************************************************
 674:.\Generated_Source\PSoC5/I2C_1_MASTER.c **** *
 675:.\Generated_Source\PSoC5/I2C_1_MASTER.c **** * Summary:
 676:.\Generated_Source\PSoC5/I2C_1_MASTER.c **** *  Clears all status flags and returns the master status.
 677:.\Generated_Source\PSoC5/I2C_1_MASTER.c **** *
 678:.\Generated_Source\PSoC5/I2C_1_MASTER.c **** * Parameters:
 679:.\Generated_Source\PSoC5/I2C_1_MASTER.c **** *  None
 680:.\Generated_Source\PSoC5/I2C_1_MASTER.c **** *
ARM GAS  C:\Users\Colin\AppData\Local\Temp\ccmu05xf.s 			page 31


 681:.\Generated_Source\PSoC5/I2C_1_MASTER.c **** * Return:
 682:.\Generated_Source\PSoC5/I2C_1_MASTER.c **** *  Current status of I2C master.
 683:.\Generated_Source\PSoC5/I2C_1_MASTER.c **** *
 684:.\Generated_Source\PSoC5/I2C_1_MASTER.c **** * Global variables:
 685:.\Generated_Source\PSoC5/I2C_1_MASTER.c **** *  I2C_1_mstrStatus - used to store current status of I2C Master.
 686:.\Generated_Source\PSoC5/I2C_1_MASTER.c **** *
 687:.\Generated_Source\PSoC5/I2C_1_MASTER.c **** * Reentrant:
 688:.\Generated_Source\PSoC5/I2C_1_MASTER.c **** *  No
 689:.\Generated_Source\PSoC5/I2C_1_MASTER.c **** *
 690:.\Generated_Source\PSoC5/I2C_1_MASTER.c **** *******************************************************************************/
 691:.\Generated_Source\PSoC5/I2C_1_MASTER.c **** uint8 I2C_1_MasterClearStatus(void) 
 692:.\Generated_Source\PSoC5/I2C_1_MASTER.c **** {
 1031              		.loc 1 692 0
 1032              		.cfi_startproc
 1033              		@ args = 0, pretend = 0, frame = 8
 1034              		@ frame_needed = 1, uses_anonymous_args = 0
 1035              		@ link register save eliminated.
 1036 0000 80B4     		push	{r7}
 1037              	.LCFI24:
 1038              		.cfi_def_cfa_offset 4
 1039              		.cfi_offset 7, -4
 1040 0002 83B0     		sub	sp, sp, #12
 1041              	.LCFI25:
 1042              		.cfi_def_cfa_offset 16
 1043 0004 00AF     		add	r7, sp, #0
 1044              	.LCFI26:
 1045              		.cfi_def_cfa_register 7
 693:.\Generated_Source\PSoC5/I2C_1_MASTER.c ****     /* Current master status */
 694:.\Generated_Source\PSoC5/I2C_1_MASTER.c ****     uint8 status;
 695:.\Generated_Source\PSoC5/I2C_1_MASTER.c **** 
 696:.\Generated_Source\PSoC5/I2C_1_MASTER.c ****     /* Read and clear master status */
 697:.\Generated_Source\PSoC5/I2C_1_MASTER.c ****     status = I2C_1_mstrStatus;
 1046              		.loc 1 697 0
 1047 0006 40F20003 		movw	r3, #:lower16:I2C_1_mstrStatus
 1048 000a C0F20003 		movt	r3, #:upper16:I2C_1_mstrStatus
 1049 000e 1B78     		ldrb	r3, [r3, #0]
 1050 0010 FB71     		strb	r3, [r7, #7]
 698:.\Generated_Source\PSoC5/I2C_1_MASTER.c ****     I2C_1_mstrStatus = I2C_1_MSTAT_CLEAR;
 1051              		.loc 1 698 0
 1052 0012 40F20003 		movw	r3, #:lower16:I2C_1_mstrStatus
 1053 0016 C0F20003 		movt	r3, #:upper16:I2C_1_mstrStatus
 1054 001a 4FF00002 		mov	r2, #0
 1055 001e 1A70     		strb	r2, [r3, #0]
 699:.\Generated_Source\PSoC5/I2C_1_MASTER.c **** 
 700:.\Generated_Source\PSoC5/I2C_1_MASTER.c ****     return(status);
 1056              		.loc 1 700 0
 1057 0020 FB79     		ldrb	r3, [r7, #7]	@ zero_extendqisi2
 701:.\Generated_Source\PSoC5/I2C_1_MASTER.c **** }
 1058              		.loc 1 701 0
 1059 0022 1846     		mov	r0, r3
 1060 0024 07F10C07 		add	r7, r7, #12
 1061 0028 BD46     		mov	sp, r7
 1062 002a 80BC     		pop	{r7}
 1063 002c 7047     		bx	lr
 1064              		.cfi_endproc
 1065              	.LFE8:
 1066              		.size	I2C_1_MasterClearStatus, .-I2C_1_MasterClearStatus
ARM GAS  C:\Users\Colin\AppData\Local\Temp\ccmu05xf.s 			page 32


 1067 002e 00BF     		.section	.text.I2C_1_MasterGetReadBufSize,"ax",%progbits
 1068              		.align	2
 1069              		.global	I2C_1_MasterGetReadBufSize
 1070              		.thumb
 1071              		.thumb_func
 1072              		.type	I2C_1_MasterGetReadBufSize, %function
 1073              	I2C_1_MasterGetReadBufSize:
 1074              	.LFB9:
 702:.\Generated_Source\PSoC5/I2C_1_MASTER.c **** 
 703:.\Generated_Source\PSoC5/I2C_1_MASTER.c **** 
 704:.\Generated_Source\PSoC5/I2C_1_MASTER.c **** /*******************************************************************************
 705:.\Generated_Source\PSoC5/I2C_1_MASTER.c **** * Function Name: I2C_1_MasterGetReadBufSize
 706:.\Generated_Source\PSoC5/I2C_1_MASTER.c **** ********************************************************************************
 707:.\Generated_Source\PSoC5/I2C_1_MASTER.c **** *
 708:.\Generated_Source\PSoC5/I2C_1_MASTER.c **** * Summary:
 709:.\Generated_Source\PSoC5/I2C_1_MASTER.c **** *  Returns the amount of bytes that has been transferred with an
 710:.\Generated_Source\PSoC5/I2C_1_MASTER.c **** *  I2C_MasterReadBuf command.
 711:.\Generated_Source\PSoC5/I2C_1_MASTER.c **** *
 712:.\Generated_Source\PSoC5/I2C_1_MASTER.c **** * Parameters:
 713:.\Generated_Source\PSoC5/I2C_1_MASTER.c **** *  None
 714:.\Generated_Source\PSoC5/I2C_1_MASTER.c **** *
 715:.\Generated_Source\PSoC5/I2C_1_MASTER.c **** * Return:
 716:.\Generated_Source\PSoC5/I2C_1_MASTER.c **** *  Byte count of transfer. If the transfer is not yet complete, it will return
 717:.\Generated_Source\PSoC5/I2C_1_MASTER.c **** *  the byte count transferred so far.
 718:.\Generated_Source\PSoC5/I2C_1_MASTER.c **** *
 719:.\Generated_Source\PSoC5/I2C_1_MASTER.c **** * Global variables:
 720:.\Generated_Source\PSoC5/I2C_1_MASTER.c **** *  I2C_1_mstrRdBufIndex - used to current index within master read
 721:.\Generated_Source\PSoC5/I2C_1_MASTER.c **** *  buffer.
 722:.\Generated_Source\PSoC5/I2C_1_MASTER.c **** *
 723:.\Generated_Source\PSoC5/I2C_1_MASTER.c **** *******************************************************************************/
 724:.\Generated_Source\PSoC5/I2C_1_MASTER.c **** uint8 I2C_1_MasterGetReadBufSize(void) 
 725:.\Generated_Source\PSoC5/I2C_1_MASTER.c **** {
 1075              		.loc 1 725 0
 1076              		.cfi_startproc
 1077              		@ args = 0, pretend = 0, frame = 0
 1078              		@ frame_needed = 1, uses_anonymous_args = 0
 1079              		@ link register save eliminated.
 1080 0000 80B4     		push	{r7}
 1081              	.LCFI27:
 1082              		.cfi_def_cfa_offset 4
 1083              		.cfi_offset 7, -4
 1084 0002 00AF     		add	r7, sp, #0
 1085              	.LCFI28:
 1086              		.cfi_def_cfa_register 7
 726:.\Generated_Source\PSoC5/I2C_1_MASTER.c ****     return(I2C_1_mstrRdBufIndex);
 1087              		.loc 1 726 0
 1088 0004 40F20003 		movw	r3, #:lower16:I2C_1_mstrRdBufIndex
 1089 0008 C0F20003 		movt	r3, #:upper16:I2C_1_mstrRdBufIndex
 1090 000c 1B78     		ldrb	r3, [r3, #0]
 1091 000e DBB2     		uxtb	r3, r3
 727:.\Generated_Source\PSoC5/I2C_1_MASTER.c **** }
 1092              		.loc 1 727 0
 1093 0010 1846     		mov	r0, r3
 1094 0012 BD46     		mov	sp, r7
 1095 0014 80BC     		pop	{r7}
 1096 0016 7047     		bx	lr
 1097              		.cfi_endproc
ARM GAS  C:\Users\Colin\AppData\Local\Temp\ccmu05xf.s 			page 33


 1098              	.LFE9:
 1099              		.size	I2C_1_MasterGetReadBufSize, .-I2C_1_MasterGetReadBufSize
 1100              		.section	.text.I2C_1_MasterGetWriteBufSize,"ax",%progbits
 1101              		.align	2
 1102              		.global	I2C_1_MasterGetWriteBufSize
 1103              		.thumb
 1104              		.thumb_func
 1105              		.type	I2C_1_MasterGetWriteBufSize, %function
 1106              	I2C_1_MasterGetWriteBufSize:
 1107              	.LFB10:
 728:.\Generated_Source\PSoC5/I2C_1_MASTER.c **** 
 729:.\Generated_Source\PSoC5/I2C_1_MASTER.c **** 
 730:.\Generated_Source\PSoC5/I2C_1_MASTER.c **** /*******************************************************************************
 731:.\Generated_Source\PSoC5/I2C_1_MASTER.c **** * Function Name: I2C_1_MasterGetWriteBufSize
 732:.\Generated_Source\PSoC5/I2C_1_MASTER.c **** ********************************************************************************
 733:.\Generated_Source\PSoC5/I2C_1_MASTER.c **** *
 734:.\Generated_Source\PSoC5/I2C_1_MASTER.c **** * Summary:
 735:.\Generated_Source\PSoC5/I2C_1_MASTER.c **** *  Returns the amount of bytes that has been transferred with an
 736:.\Generated_Source\PSoC5/I2C_1_MASTER.c **** *  I2C_MasterWriteBuf command.
 737:.\Generated_Source\PSoC5/I2C_1_MASTER.c **** *
 738:.\Generated_Source\PSoC5/I2C_1_MASTER.c **** * Parameters:
 739:.\Generated_Source\PSoC5/I2C_1_MASTER.c **** *  None
 740:.\Generated_Source\PSoC5/I2C_1_MASTER.c **** *
 741:.\Generated_Source\PSoC5/I2C_1_MASTER.c **** * Return:
 742:.\Generated_Source\PSoC5/I2C_1_MASTER.c **** *  Byte count of transfer. If the transfer is not yet complete, it will return
 743:.\Generated_Source\PSoC5/I2C_1_MASTER.c **** *  the byte count transferred so far.
 744:.\Generated_Source\PSoC5/I2C_1_MASTER.c **** *
 745:.\Generated_Source\PSoC5/I2C_1_MASTER.c **** * Global variables:
 746:.\Generated_Source\PSoC5/I2C_1_MASTER.c **** *  I2C_1_mstrWrBufIndex - used to current index within master write
 747:.\Generated_Source\PSoC5/I2C_1_MASTER.c **** *  buffer.
 748:.\Generated_Source\PSoC5/I2C_1_MASTER.c **** *
 749:.\Generated_Source\PSoC5/I2C_1_MASTER.c **** *******************************************************************************/
 750:.\Generated_Source\PSoC5/I2C_1_MASTER.c **** uint8 I2C_1_MasterGetWriteBufSize(void) 
 751:.\Generated_Source\PSoC5/I2C_1_MASTER.c **** {
 1108              		.loc 1 751 0
 1109              		.cfi_startproc
 1110              		@ args = 0, pretend = 0, frame = 0
 1111              		@ frame_needed = 1, uses_anonymous_args = 0
 1112              		@ link register save eliminated.
 1113 0000 80B4     		push	{r7}
 1114              	.LCFI29:
 1115              		.cfi_def_cfa_offset 4
 1116              		.cfi_offset 7, -4
 1117 0002 00AF     		add	r7, sp, #0
 1118              	.LCFI30:
 1119              		.cfi_def_cfa_register 7
 752:.\Generated_Source\PSoC5/I2C_1_MASTER.c ****     return(I2C_1_mstrWrBufIndex);
 1120              		.loc 1 752 0
 1121 0004 40F20003 		movw	r3, #:lower16:I2C_1_mstrWrBufIndex
 1122 0008 C0F20003 		movt	r3, #:upper16:I2C_1_mstrWrBufIndex
 1123 000c 1B78     		ldrb	r3, [r3, #0]
 1124 000e DBB2     		uxtb	r3, r3
 753:.\Generated_Source\PSoC5/I2C_1_MASTER.c **** }
 1125              		.loc 1 753 0
 1126 0010 1846     		mov	r0, r3
 1127 0012 BD46     		mov	sp, r7
 1128 0014 80BC     		pop	{r7}
ARM GAS  C:\Users\Colin\AppData\Local\Temp\ccmu05xf.s 			page 34


 1129 0016 7047     		bx	lr
 1130              		.cfi_endproc
 1131              	.LFE10:
 1132              		.size	I2C_1_MasterGetWriteBufSize, .-I2C_1_MasterGetWriteBufSize
 1133              		.section	.text.I2C_1_MasterClearReadBuf,"ax",%progbits
 1134              		.align	2
 1135              		.global	I2C_1_MasterClearReadBuf
 1136              		.thumb
 1137              		.thumb_func
 1138              		.type	I2C_1_MasterClearReadBuf, %function
 1139              	I2C_1_MasterClearReadBuf:
 1140              	.LFB11:
 754:.\Generated_Source\PSoC5/I2C_1_MASTER.c **** 
 755:.\Generated_Source\PSoC5/I2C_1_MASTER.c **** 
 756:.\Generated_Source\PSoC5/I2C_1_MASTER.c **** /*******************************************************************************
 757:.\Generated_Source\PSoC5/I2C_1_MASTER.c **** * Function Name: I2C_1_MasterClearReadBuf
 758:.\Generated_Source\PSoC5/I2C_1_MASTER.c **** ********************************************************************************
 759:.\Generated_Source\PSoC5/I2C_1_MASTER.c **** *
 760:.\Generated_Source\PSoC5/I2C_1_MASTER.c **** * Summary:
 761:.\Generated_Source\PSoC5/I2C_1_MASTER.c **** *  Resets the read buffer pointer back to the first byte in the buffer.
 762:.\Generated_Source\PSoC5/I2C_1_MASTER.c **** *
 763:.\Generated_Source\PSoC5/I2C_1_MASTER.c **** * Parameters:
 764:.\Generated_Source\PSoC5/I2C_1_MASTER.c **** *  None
 765:.\Generated_Source\PSoC5/I2C_1_MASTER.c **** *
 766:.\Generated_Source\PSoC5/I2C_1_MASTER.c **** * Return:
 767:.\Generated_Source\PSoC5/I2C_1_MASTER.c **** *  None
 768:.\Generated_Source\PSoC5/I2C_1_MASTER.c **** *
 769:.\Generated_Source\PSoC5/I2C_1_MASTER.c **** * Global variables:
 770:.\Generated_Source\PSoC5/I2C_1_MASTER.c **** *  I2C_1_mstrRdBufIndex - used to current index within master read
 771:.\Generated_Source\PSoC5/I2C_1_MASTER.c **** *   buffer.
 772:.\Generated_Source\PSoC5/I2C_1_MASTER.c **** *  I2C_1_mstrStatus - used to store current status of I2C Master.
 773:.\Generated_Source\PSoC5/I2C_1_MASTER.c **** *
 774:.\Generated_Source\PSoC5/I2C_1_MASTER.c **** * Reentrant:
 775:.\Generated_Source\PSoC5/I2C_1_MASTER.c **** *  No
 776:.\Generated_Source\PSoC5/I2C_1_MASTER.c **** *
 777:.\Generated_Source\PSoC5/I2C_1_MASTER.c **** *******************************************************************************/
 778:.\Generated_Source\PSoC5/I2C_1_MASTER.c **** void I2C_1_MasterClearReadBuf(void) 
 779:.\Generated_Source\PSoC5/I2C_1_MASTER.c **** {
 1141              		.loc 1 779 0
 1142              		.cfi_startproc
 1143              		@ args = 0, pretend = 0, frame = 0
 1144              		@ frame_needed = 1, uses_anonymous_args = 0
 1145              		@ link register save eliminated.
 1146 0000 80B4     		push	{r7}
 1147              	.LCFI31:
 1148              		.cfi_def_cfa_offset 4
 1149              		.cfi_offset 7, -4
 1150 0002 00AF     		add	r7, sp, #0
 1151              	.LCFI32:
 1152              		.cfi_def_cfa_register 7
 780:.\Generated_Source\PSoC5/I2C_1_MASTER.c ****     I2C_1_mstrRdBufIndex = 0u;
 1153              		.loc 1 780 0
 1154 0004 40F20003 		movw	r3, #:lower16:I2C_1_mstrRdBufIndex
 1155 0008 C0F20003 		movt	r3, #:upper16:I2C_1_mstrRdBufIndex
 1156 000c 4FF00002 		mov	r2, #0
 1157 0010 1A70     		strb	r2, [r3, #0]
 781:.\Generated_Source\PSoC5/I2C_1_MASTER.c ****     I2C_1_mstrStatus    &= ((uint8) ~I2C_1_MSTAT_RD_CMPLT);
ARM GAS  C:\Users\Colin\AppData\Local\Temp\ccmu05xf.s 			page 35


 1158              		.loc 1 781 0
 1159 0012 40F20003 		movw	r3, #:lower16:I2C_1_mstrStatus
 1160 0016 C0F20003 		movt	r3, #:upper16:I2C_1_mstrStatus
 1161 001a 1B78     		ldrb	r3, [r3, #0]
 1162 001c DBB2     		uxtb	r3, r3
 1163 001e 23F00103 		bic	r3, r3, #1
 1164 0022 DAB2     		uxtb	r2, r3
 1165 0024 40F20003 		movw	r3, #:lower16:I2C_1_mstrStatus
 1166 0028 C0F20003 		movt	r3, #:upper16:I2C_1_mstrStatus
 1167 002c 1A70     		strb	r2, [r3, #0]
 782:.\Generated_Source\PSoC5/I2C_1_MASTER.c **** }
 1168              		.loc 1 782 0
 1169 002e BD46     		mov	sp, r7
 1170 0030 80BC     		pop	{r7}
 1171 0032 7047     		bx	lr
 1172              		.cfi_endproc
 1173              	.LFE11:
 1174              		.size	I2C_1_MasterClearReadBuf, .-I2C_1_MasterClearReadBuf
 1175              		.section	.text.I2C_1_MasterClearWriteBuf,"ax",%progbits
 1176              		.align	2
 1177              		.global	I2C_1_MasterClearWriteBuf
 1178              		.thumb
 1179              		.thumb_func
 1180              		.type	I2C_1_MasterClearWriteBuf, %function
 1181              	I2C_1_MasterClearWriteBuf:
 1182              	.LFB12:
 783:.\Generated_Source\PSoC5/I2C_1_MASTER.c **** 
 784:.\Generated_Source\PSoC5/I2C_1_MASTER.c **** 
 785:.\Generated_Source\PSoC5/I2C_1_MASTER.c **** /*******************************************************************************
 786:.\Generated_Source\PSoC5/I2C_1_MASTER.c **** * Function Name: I2C_1_MasterClearWriteBuf
 787:.\Generated_Source\PSoC5/I2C_1_MASTER.c **** ********************************************************************************
 788:.\Generated_Source\PSoC5/I2C_1_MASTER.c **** *
 789:.\Generated_Source\PSoC5/I2C_1_MASTER.c **** * Summary:
 790:.\Generated_Source\PSoC5/I2C_1_MASTER.c **** *  Resets the write buffer pointer back to the first byte in the buffer.
 791:.\Generated_Source\PSoC5/I2C_1_MASTER.c **** *
 792:.\Generated_Source\PSoC5/I2C_1_MASTER.c **** * Parameters:
 793:.\Generated_Source\PSoC5/I2C_1_MASTER.c **** *  None
 794:.\Generated_Source\PSoC5/I2C_1_MASTER.c **** *
 795:.\Generated_Source\PSoC5/I2C_1_MASTER.c **** * Return:
 796:.\Generated_Source\PSoC5/I2C_1_MASTER.c **** *  None
 797:.\Generated_Source\PSoC5/I2C_1_MASTER.c **** *
 798:.\Generated_Source\PSoC5/I2C_1_MASTER.c **** * Global variables:
 799:.\Generated_Source\PSoC5/I2C_1_MASTER.c **** *  I2C_1_mstrRdBufIndex - used to current index within master read
 800:.\Generated_Source\PSoC5/I2C_1_MASTER.c **** *   buffer.
 801:.\Generated_Source\PSoC5/I2C_1_MASTER.c **** *  I2C_1_mstrStatus - used to store current status of I2C Master.
 802:.\Generated_Source\PSoC5/I2C_1_MASTER.c **** *
 803:.\Generated_Source\PSoC5/I2C_1_MASTER.c **** * Reentrant:
 804:.\Generated_Source\PSoC5/I2C_1_MASTER.c **** *  No
 805:.\Generated_Source\PSoC5/I2C_1_MASTER.c **** *
 806:.\Generated_Source\PSoC5/I2C_1_MASTER.c **** *******************************************************************************/
 807:.\Generated_Source\PSoC5/I2C_1_MASTER.c **** void I2C_1_MasterClearWriteBuf(void) 
 808:.\Generated_Source\PSoC5/I2C_1_MASTER.c **** {
 1183              		.loc 1 808 0
 1184              		.cfi_startproc
 1185              		@ args = 0, pretend = 0, frame = 0
 1186              		@ frame_needed = 1, uses_anonymous_args = 0
 1187              		@ link register save eliminated.
ARM GAS  C:\Users\Colin\AppData\Local\Temp\ccmu05xf.s 			page 36


 1188 0000 80B4     		push	{r7}
 1189              	.LCFI33:
 1190              		.cfi_def_cfa_offset 4
 1191              		.cfi_offset 7, -4
 1192 0002 00AF     		add	r7, sp, #0
 1193              	.LCFI34:
 1194              		.cfi_def_cfa_register 7
 809:.\Generated_Source\PSoC5/I2C_1_MASTER.c ****     I2C_1_mstrWrBufIndex = 0u;
 1195              		.loc 1 809 0
 1196 0004 40F20003 		movw	r3, #:lower16:I2C_1_mstrWrBufIndex
 1197 0008 C0F20003 		movt	r3, #:upper16:I2C_1_mstrWrBufIndex
 1198 000c 4FF00002 		mov	r2, #0
 1199 0010 1A70     		strb	r2, [r3, #0]
 810:.\Generated_Source\PSoC5/I2C_1_MASTER.c ****     I2C_1_mstrStatus    &= ((uint8) ~I2C_1_MSTAT_WR_CMPLT);
 1200              		.loc 1 810 0
 1201 0012 40F20003 		movw	r3, #:lower16:I2C_1_mstrStatus
 1202 0016 C0F20003 		movt	r3, #:upper16:I2C_1_mstrStatus
 1203 001a 1B78     		ldrb	r3, [r3, #0]
 1204 001c DBB2     		uxtb	r3, r3
 1205 001e 23F00203 		bic	r3, r3, #2
 1206 0022 DAB2     		uxtb	r2, r3
 1207 0024 40F20003 		movw	r3, #:lower16:I2C_1_mstrStatus
 1208 0028 C0F20003 		movt	r3, #:upper16:I2C_1_mstrStatus
 1209 002c 1A70     		strb	r2, [r3, #0]
 811:.\Generated_Source\PSoC5/I2C_1_MASTER.c **** }
 1210              		.loc 1 811 0
 1211 002e BD46     		mov	sp, r7
 1212 0030 80BC     		pop	{r7}
 1213 0032 7047     		bx	lr
 1214              		.cfi_endproc
 1215              	.LFE12:
 1216              		.size	I2C_1_MasterClearWriteBuf, .-I2C_1_MasterClearWriteBuf
 1217              		.section	.text.I2C_1_Workaround,"ax",%progbits
 1218              		.align	2
 1219              		.global	I2C_1_Workaround
 1220              		.thumb
 1221              		.thumb_func
 1222              		.type	I2C_1_Workaround, %function
 1223              	I2C_1_Workaround:
 1224              	.LFB13:
 812:.\Generated_Source\PSoC5/I2C_1_MASTER.c **** 
 813:.\Generated_Source\PSoC5/I2C_1_MASTER.c **** 
 814:.\Generated_Source\PSoC5/I2C_1_MASTER.c **** /*******************************************************************************
 815:.\Generated_Source\PSoC5/I2C_1_MASTER.c **** * Function Name: I2C_1_Workaround
 816:.\Generated_Source\PSoC5/I2C_1_MASTER.c **** ********************************************************************************
 817:.\Generated_Source\PSoC5/I2C_1_MASTER.c **** *
 818:.\Generated_Source\PSoC5/I2C_1_MASTER.c **** * Summary:
 819:.\Generated_Source\PSoC5/I2C_1_MASTER.c **** *  Do nothing. This fake fuction use as workaround for CDT 78083.
 820:.\Generated_Source\PSoC5/I2C_1_MASTER.c **** *
 821:.\Generated_Source\PSoC5/I2C_1_MASTER.c **** * Parameters:
 822:.\Generated_Source\PSoC5/I2C_1_MASTER.c **** *  None
 823:.\Generated_Source\PSoC5/I2C_1_MASTER.c **** *
 824:.\Generated_Source\PSoC5/I2C_1_MASTER.c **** * Return:
 825:.\Generated_Source\PSoC5/I2C_1_MASTER.c **** *  None
 826:.\Generated_Source\PSoC5/I2C_1_MASTER.c **** *
 827:.\Generated_Source\PSoC5/I2C_1_MASTER.c **** * Reentrant:
 828:.\Generated_Source\PSoC5/I2C_1_MASTER.c **** *  No
ARM GAS  C:\Users\Colin\AppData\Local\Temp\ccmu05xf.s 			page 37


 829:.\Generated_Source\PSoC5/I2C_1_MASTER.c **** *
 830:.\Generated_Source\PSoC5/I2C_1_MASTER.c **** *******************************************************************************/
 831:.\Generated_Source\PSoC5/I2C_1_MASTER.c **** void I2C_1_Workaround(void) 
 832:.\Generated_Source\PSoC5/I2C_1_MASTER.c **** {
 1225              		.loc 1 832 0
 1226              		.cfi_startproc
 1227              		@ args = 0, pretend = 0, frame = 0
 1228              		@ frame_needed = 1, uses_anonymous_args = 0
 1229              		@ link register save eliminated.
 1230 0000 80B4     		push	{r7}
 1231              	.LCFI35:
 1232              		.cfi_def_cfa_offset 4
 1233              		.cfi_offset 7, -4
 1234 0002 00AF     		add	r7, sp, #0
 1235              	.LCFI36:
 1236              		.cfi_def_cfa_register 7
 833:.\Generated_Source\PSoC5/I2C_1_MASTER.c ****     /* Does nothing */
 834:.\Generated_Source\PSoC5/I2C_1_MASTER.c **** }
 1237              		.loc 1 834 0
 1238 0004 BD46     		mov	sp, r7
 1239 0006 80BC     		pop	{r7}
 1240 0008 7047     		bx	lr
 1241              		.cfi_endproc
 1242              	.LFE13:
 1243              		.size	I2C_1_Workaround, .-I2C_1_Workaround
 1244 000a 00BF     		.text
 1245              	.Letext0:
 1246              		.file 2 ".\\Generated_Source\\PSoC5\\cytypes.h"
 1247              		.file 3 ".\\Generated_Source\\PSoC5\\I2C_1_PVT.h"