ARM GAS  C:\Users\Colin\AppData\Local\Temp\ccgJE83v.s 			page 1


   1              		.syntax unified
   2              		.cpu cortex-m3
   3              		.fpu softvfp
   4              		.eabi_attribute 20, 1
   5              		.eabi_attribute 21, 1
   6              		.eabi_attribute 23, 3
   7              		.eabi_attribute 24, 1
   8              		.eabi_attribute 25, 1
   9              		.eabi_attribute 26, 1
  10              		.eabi_attribute 30, 6
  11              		.eabi_attribute 34, 1
  12              		.eabi_attribute 18, 4
  13              		.thumb
  14              		.file	"LCD.c"
  15              		.text
  16              	.Ltext0:
  17              		.cfi_sections	.debug_frame
  18              		.global	LCD_enableState
  19              		.bss
  20              		.type	LCD_enableState, %object
  21              		.size	LCD_enableState, 1
  22              	LCD_enableState:
  23 0000 00       		.space	1
  24              		.global	LCD_initVar
  25              		.type	LCD_initVar, %object
  26              		.size	LCD_initVar, 1
  27              	LCD_initVar:
  28 0001 00       		.space	1
  29              		.section	.text.LCD_Init,"ax",%progbits
  30              		.align	2
  31              		.global	LCD_Init
  32              		.thumb
  33              		.thumb_func
  34              		.type	LCD_Init, %function
  35              	LCD_Init:
  36              	.LFB0:
  37              		.file 1 ".\\Generated_Source\\PSoC5\\LCD.c"
   1:.\Generated_Source\PSoC5/LCD.c **** /*******************************************************************************
   2:.\Generated_Source\PSoC5/LCD.c **** * File Name: LCD.c
   3:.\Generated_Source\PSoC5/LCD.c **** * Version 1.90
   4:.\Generated_Source\PSoC5/LCD.c **** *
   5:.\Generated_Source\PSoC5/LCD.c **** * Description:
   6:.\Generated_Source\PSoC5/LCD.c **** *  This file provides source code for the Character LCD component's API.
   7:.\Generated_Source\PSoC5/LCD.c **** *
   8:.\Generated_Source\PSoC5/LCD.c **** * Note:
   9:.\Generated_Source\PSoC5/LCD.c **** *
  10:.\Generated_Source\PSoC5/LCD.c **** ********************************************************************************
  11:.\Generated_Source\PSoC5/LCD.c **** * Copyright 2008-2012, Cypress Semiconductor Corporation.  All rights reserved.
  12:.\Generated_Source\PSoC5/LCD.c **** * You may use this file only in accordance with the license, terms, conditions,
  13:.\Generated_Source\PSoC5/LCD.c **** * disclaimers, and limitations in the end user license agreement accompanying
  14:.\Generated_Source\PSoC5/LCD.c **** * the software package with which this file was provided.
  15:.\Generated_Source\PSoC5/LCD.c **** *******************************************************************************/
  16:.\Generated_Source\PSoC5/LCD.c **** 
  17:.\Generated_Source\PSoC5/LCD.c **** #include "CyLib.h"
  18:.\Generated_Source\PSoC5/LCD.c **** #include "LCD.h"
  19:.\Generated_Source\PSoC5/LCD.c **** 
  20:.\Generated_Source\PSoC5/LCD.c **** 
ARM GAS  C:\Users\Colin\AppData\Local\Temp\ccgJE83v.s 			page 2


  21:.\Generated_Source\PSoC5/LCD.c **** static void LCD_WrDatNib(uint8 nibble) ;
  22:.\Generated_Source\PSoC5/LCD.c **** static void LCD_WrCntrlNib(uint8 nibble) ;
  23:.\Generated_Source\PSoC5/LCD.c **** 
  24:.\Generated_Source\PSoC5/LCD.c **** /* Stores the state of conponent. Indicates wherewer component is 
  25:.\Generated_Source\PSoC5/LCD.c **** * in enable state or not.
  26:.\Generated_Source\PSoC5/LCD.c **** */
  27:.\Generated_Source\PSoC5/LCD.c **** uint8 LCD_enableState = 0u;
  28:.\Generated_Source\PSoC5/LCD.c **** 
  29:.\Generated_Source\PSoC5/LCD.c **** uint8 LCD_initVar = 0u;
  30:.\Generated_Source\PSoC5/LCD.c **** 
  31:.\Generated_Source\PSoC5/LCD.c **** 
  32:.\Generated_Source\PSoC5/LCD.c **** /*******************************************************************************
  33:.\Generated_Source\PSoC5/LCD.c **** * Function Name: LCD_Init
  34:.\Generated_Source\PSoC5/LCD.c **** ********************************************************************************
  35:.\Generated_Source\PSoC5/LCD.c **** *
  36:.\Generated_Source\PSoC5/LCD.c **** * Summary:
  37:.\Generated_Source\PSoC5/LCD.c **** *  Perform initialization required for components normal work.
  38:.\Generated_Source\PSoC5/LCD.c **** *  This function initializes the LCD hardware module as follows:
  39:.\Generated_Source\PSoC5/LCD.c **** *        Enable 4-bit interface
  40:.\Generated_Source\PSoC5/LCD.c **** *        Clear the display
  41:.\Generated_Source\PSoC5/LCD.c **** *        Enable auto cursor increment
  42:.\Generated_Source\PSoC5/LCD.c **** *        Resets the cursor to start position
  43:.\Generated_Source\PSoC5/LCD.c **** *  Also loads custom character set to LCD if it was defined in the customizer.
  44:.\Generated_Source\PSoC5/LCD.c **** *
  45:.\Generated_Source\PSoC5/LCD.c **** * Parameters:
  46:.\Generated_Source\PSoC5/LCD.c **** *  None.
  47:.\Generated_Source\PSoC5/LCD.c **** *
  48:.\Generated_Source\PSoC5/LCD.c **** * Return:
  49:.\Generated_Source\PSoC5/LCD.c **** *  None.
  50:.\Generated_Source\PSoC5/LCD.c **** *
  51:.\Generated_Source\PSoC5/LCD.c **** * Reentrant:
  52:.\Generated_Source\PSoC5/LCD.c **** *  No.
  53:.\Generated_Source\PSoC5/LCD.c **** *
  54:.\Generated_Source\PSoC5/LCD.c **** *******************************************************************************/
  55:.\Generated_Source\PSoC5/LCD.c **** void LCD_Init(void) 
  56:.\Generated_Source\PSoC5/LCD.c **** {
  38              		.loc 1 56 0
  39              		.cfi_startproc
  40              		@ args = 0, pretend = 0, frame = 0
  41              		@ frame_needed = 1, uses_anonymous_args = 0
  42 0000 80B5     		push	{r7, lr}
  43              	.LCFI0:
  44              		.cfi_def_cfa_offset 8
  45              		.cfi_offset 7, -8
  46              		.cfi_offset 14, -4
  47 0002 00AF     		add	r7, sp, #0
  48              	.LCFI1:
  49              		.cfi_def_cfa_register 7
  57:.\Generated_Source\PSoC5/LCD.c ****     /* INIT CODE */
  58:.\Generated_Source\PSoC5/LCD.c ****     CyDelay(40u);                                                        /* Delay 40 ms */
  50              		.loc 1 58 0
  51 0004 4FF02800 		mov	r0, #40
  52 0008 FFF7FEFF 		bl	CyDelay
  59:.\Generated_Source\PSoC5/LCD.c ****     LCD_WrCntrlNib(LCD_DISPLAY_8_BIT_INIT);    /* Selects 8-bit mode */
  53              		.loc 1 59 0
  54 000c 4FF00300 		mov	r0, #3
  55 0010 FFF7FEFF 		bl	LCD_WrCntrlNib
ARM GAS  C:\Users\Colin\AppData\Local\Temp\ccgJE83v.s 			page 3


  60:.\Generated_Source\PSoC5/LCD.c ****     CyDelay(5u);                                                         /* Delay 5 ms */
  56              		.loc 1 60 0
  57 0014 4FF00500 		mov	r0, #5
  58 0018 FFF7FEFF 		bl	CyDelay
  61:.\Generated_Source\PSoC5/LCD.c ****     LCD_WrCntrlNib(LCD_DISPLAY_8_BIT_INIT);    /* Selects 8-bit mode */
  59              		.loc 1 61 0
  60 001c 4FF00300 		mov	r0, #3
  61 0020 FFF7FEFF 		bl	LCD_WrCntrlNib
  62:.\Generated_Source\PSoC5/LCD.c ****     CyDelay(15u);                                                        /* Delay 15 ms */
  62              		.loc 1 62 0
  63 0024 4FF00F00 		mov	r0, #15
  64 0028 FFF7FEFF 		bl	CyDelay
  63:.\Generated_Source\PSoC5/LCD.c ****     LCD_WrCntrlNib(LCD_DISPLAY_8_BIT_INIT);    /* Selects 8-bit mode */
  65              		.loc 1 63 0
  66 002c 4FF00300 		mov	r0, #3
  67 0030 FFF7FEFF 		bl	LCD_WrCntrlNib
  64:.\Generated_Source\PSoC5/LCD.c ****     CyDelay(1u);                                                         /* Delay 1 ms */
  68              		.loc 1 64 0
  69 0034 4FF00100 		mov	r0, #1
  70 0038 FFF7FEFF 		bl	CyDelay
  65:.\Generated_Source\PSoC5/LCD.c ****     LCD_WrCntrlNib(LCD_DISPLAY_4_BIT_INIT);    /* Selects 4-bit mode */
  71              		.loc 1 65 0
  72 003c 4FF00200 		mov	r0, #2
  73 0040 FFF7FEFF 		bl	LCD_WrCntrlNib
  66:.\Generated_Source\PSoC5/LCD.c ****     CyDelay(5u);                                                         /* Delay 5 ms */
  74              		.loc 1 66 0
  75 0044 4FF00500 		mov	r0, #5
  76 0048 FFF7FEFF 		bl	CyDelay
  67:.\Generated_Source\PSoC5/LCD.c **** 
  68:.\Generated_Source\PSoC5/LCD.c ****     LCD_WriteControl(LCD_CURSOR_AUTO_INCR_ON);    /* Incr Cursor After Writes */
  77              		.loc 1 68 0
  78 004c 4FF00600 		mov	r0, #6
  79 0050 FFF7FEFF 		bl	LCD_WriteControl
  69:.\Generated_Source\PSoC5/LCD.c ****     LCD_WriteControl(LCD_DISPLAY_CURSOR_ON);      /* Turn Display, Cursor ON */
  80              		.loc 1 69 0
  81 0054 4FF00E00 		mov	r0, #14
  82 0058 FFF7FEFF 		bl	LCD_WriteControl
  70:.\Generated_Source\PSoC5/LCD.c ****     LCD_WriteControl(LCD_DISPLAY_2_LINES_5x10);   /* 2 Lines by 5x10 Characters */
  83              		.loc 1 70 0
  84 005c 4FF02C00 		mov	r0, #44
  85 0060 FFF7FEFF 		bl	LCD_WriteControl
  71:.\Generated_Source\PSoC5/LCD.c ****     LCD_WriteControl(LCD_DISPLAY_CURSOR_OFF);     /* Turn Display, Cursor OFF */
  86              		.loc 1 71 0
  87 0064 4FF00800 		mov	r0, #8
  88 0068 FFF7FEFF 		bl	LCD_WriteControl
  72:.\Generated_Source\PSoC5/LCD.c ****     LCD_WriteControl(LCD_CLEAR_DISPLAY);          /* Clear LCD Screen */
  89              		.loc 1 72 0
  90 006c 4FF00100 		mov	r0, #1
  91 0070 FFF7FEFF 		bl	LCD_WriteControl
  73:.\Generated_Source\PSoC5/LCD.c ****     LCD_WriteControl(LCD_DISPLAY_ON_CURSOR_OFF);  /* Turn Display ON, Cursor OFF */
  92              		.loc 1 73 0
  93 0074 4FF00C00 		mov	r0, #12
  94 0078 FFF7FEFF 		bl	LCD_WriteControl
  74:.\Generated_Source\PSoC5/LCD.c ****     LCD_WriteControl(LCD_RESET_CURSOR_POSITION);  /* Set Cursor to 0,0 */
  95              		.loc 1 74 0
  96 007c 4FF00300 		mov	r0, #3
  97 0080 FFF7FEFF 		bl	LCD_WriteControl
ARM GAS  C:\Users\Colin\AppData\Local\Temp\ccgJE83v.s 			page 4


  75:.\Generated_Source\PSoC5/LCD.c ****     CyDelay(5u);
  98              		.loc 1 75 0
  99 0084 4FF00500 		mov	r0, #5
 100 0088 FFF7FEFF 		bl	CyDelay
  76:.\Generated_Source\PSoC5/LCD.c **** 
  77:.\Generated_Source\PSoC5/LCD.c ****     #if(LCD_CUSTOM_CHAR_SET != LCD_NONE)
  78:.\Generated_Source\PSoC5/LCD.c ****         LCD_LoadCustomFonts(LCD_customFonts);
  79:.\Generated_Source\PSoC5/LCD.c ****     #endif /* LCD_CUSTOM_CHAR_SET != LCD_NONE */
  80:.\Generated_Source\PSoC5/LCD.c **** }
 101              		.loc 1 80 0
 102 008c 80BD     		pop	{r7, pc}
 103              		.cfi_endproc
 104              	.LFE0:
 105              		.size	LCD_Init, .-LCD_Init
 106 008e 00BF     		.section	.text.LCD_Enable,"ax",%progbits
 107              		.align	2
 108              		.global	LCD_Enable
 109              		.thumb
 110              		.thumb_func
 111              		.type	LCD_Enable, %function
 112              	LCD_Enable:
 113              	.LFB1:
  81:.\Generated_Source\PSoC5/LCD.c **** 
  82:.\Generated_Source\PSoC5/LCD.c **** 
  83:.\Generated_Source\PSoC5/LCD.c **** /*******************************************************************************
  84:.\Generated_Source\PSoC5/LCD.c **** * Function Name: LCD_Enable
  85:.\Generated_Source\PSoC5/LCD.c **** ********************************************************************************
  86:.\Generated_Source\PSoC5/LCD.c **** *
  87:.\Generated_Source\PSoC5/LCD.c **** * Summary:
  88:.\Generated_Source\PSoC5/LCD.c **** *  Turns on the display.
  89:.\Generated_Source\PSoC5/LCD.c **** *
  90:.\Generated_Source\PSoC5/LCD.c **** * Parameters:
  91:.\Generated_Source\PSoC5/LCD.c **** *  None.
  92:.\Generated_Source\PSoC5/LCD.c **** *
  93:.\Generated_Source\PSoC5/LCD.c **** * Return:
  94:.\Generated_Source\PSoC5/LCD.c **** *  None.
  95:.\Generated_Source\PSoC5/LCD.c **** *
  96:.\Generated_Source\PSoC5/LCD.c **** * Reentrant:
  97:.\Generated_Source\PSoC5/LCD.c **** *  No.
  98:.\Generated_Source\PSoC5/LCD.c **** *
  99:.\Generated_Source\PSoC5/LCD.c **** * Theory:
 100:.\Generated_Source\PSoC5/LCD.c **** *  This finction has no effect when it called first time as
 101:.\Generated_Source\PSoC5/LCD.c **** *  LCD_Init() turns on the LCD.
 102:.\Generated_Source\PSoC5/LCD.c **** *
 103:.\Generated_Source\PSoC5/LCD.c **** *******************************************************************************/
 104:.\Generated_Source\PSoC5/LCD.c **** void LCD_Enable(void) 
 105:.\Generated_Source\PSoC5/LCD.c **** {
 114              		.loc 1 105 0
 115              		.cfi_startproc
 116              		@ args = 0, pretend = 0, frame = 0
 117              		@ frame_needed = 1, uses_anonymous_args = 0
 118 0000 80B5     		push	{r7, lr}
 119              	.LCFI2:
 120              		.cfi_def_cfa_offset 8
 121              		.cfi_offset 7, -8
 122              		.cfi_offset 14, -4
 123 0002 00AF     		add	r7, sp, #0
ARM GAS  C:\Users\Colin\AppData\Local\Temp\ccgJE83v.s 			page 5


 124              	.LCFI3:
 125              		.cfi_def_cfa_register 7
 106:.\Generated_Source\PSoC5/LCD.c ****     LCD_DisplayOn();
 126              		.loc 1 106 0
 127 0004 4FF00C00 		mov	r0, #12
 128 0008 FFF7FEFF 		bl	LCD_WriteControl
 107:.\Generated_Source\PSoC5/LCD.c ****     LCD_enableState = 1u;
 129              		.loc 1 107 0
 130 000c 40F20003 		movw	r3, #:lower16:LCD_enableState
 131 0010 C0F20003 		movt	r3, #:upper16:LCD_enableState
 132 0014 4FF00102 		mov	r2, #1
 133 0018 1A70     		strb	r2, [r3, #0]
 108:.\Generated_Source\PSoC5/LCD.c **** }
 134              		.loc 1 108 0
 135 001a 80BD     		pop	{r7, pc}
 136              		.cfi_endproc
 137              	.LFE1:
 138              		.size	LCD_Enable, .-LCD_Enable
 139              		.section	.text.LCD_Start,"ax",%progbits
 140              		.align	2
 141              		.global	LCD_Start
 142              		.thumb
 143              		.thumb_func
 144              		.type	LCD_Start, %function
 145              	LCD_Start:
 146              	.LFB2:
 109:.\Generated_Source\PSoC5/LCD.c **** 
 110:.\Generated_Source\PSoC5/LCD.c **** 
 111:.\Generated_Source\PSoC5/LCD.c **** /*******************************************************************************
 112:.\Generated_Source\PSoC5/LCD.c **** * Function Name: LCD_Start
 113:.\Generated_Source\PSoC5/LCD.c **** ********************************************************************************
 114:.\Generated_Source\PSoC5/LCD.c **** *
 115:.\Generated_Source\PSoC5/LCD.c **** * Summary:
 116:.\Generated_Source\PSoC5/LCD.c **** *  Perform initialization required for components normal work.
 117:.\Generated_Source\PSoC5/LCD.c **** *  This function initializes the LCD hardware module as follows:
 118:.\Generated_Source\PSoC5/LCD.c **** *        Enable 4-bit interface
 119:.\Generated_Source\PSoC5/LCD.c **** *        Clear the display
 120:.\Generated_Source\PSoC5/LCD.c **** *        Enable auto cursor increment
 121:.\Generated_Source\PSoC5/LCD.c **** *        Resets the cursor to start position
 122:.\Generated_Source\PSoC5/LCD.c **** *  Also loads custom character set to LCD if it was defined in the customizer.
 123:.\Generated_Source\PSoC5/LCD.c **** *  If it was not the first call in this project then it just turns on the
 124:.\Generated_Source\PSoC5/LCD.c **** *  display
 125:.\Generated_Source\PSoC5/LCD.c **** *
 126:.\Generated_Source\PSoC5/LCD.c **** *
 127:.\Generated_Source\PSoC5/LCD.c **** * Parameters:
 128:.\Generated_Source\PSoC5/LCD.c **** *  LCD_initVar - global variable.
 129:.\Generated_Source\PSoC5/LCD.c **** *
 130:.\Generated_Source\PSoC5/LCD.c **** * Return:
 131:.\Generated_Source\PSoC5/LCD.c **** *  LCD_initVar - global variable.
 132:.\Generated_Source\PSoC5/LCD.c **** *
 133:.\Generated_Source\PSoC5/LCD.c **** * Reentrant:
 134:.\Generated_Source\PSoC5/LCD.c **** *  No.
 135:.\Generated_Source\PSoC5/LCD.c **** *
 136:.\Generated_Source\PSoC5/LCD.c **** *******************************************************************************/
 137:.\Generated_Source\PSoC5/LCD.c **** void LCD_Start(void) 
 138:.\Generated_Source\PSoC5/LCD.c **** {
 147              		.loc 1 138 0
ARM GAS  C:\Users\Colin\AppData\Local\Temp\ccgJE83v.s 			page 6


 148              		.cfi_startproc
 149              		@ args = 0, pretend = 0, frame = 0
 150              		@ frame_needed = 1, uses_anonymous_args = 0
 151 0000 80B5     		push	{r7, lr}
 152              	.LCFI4:
 153              		.cfi_def_cfa_offset 8
 154              		.cfi_offset 7, -8
 155              		.cfi_offset 14, -4
 156 0002 00AF     		add	r7, sp, #0
 157              	.LCFI5:
 158              		.cfi_def_cfa_register 7
 139:.\Generated_Source\PSoC5/LCD.c ****     /* If not initialized then perform initialization */
 140:.\Generated_Source\PSoC5/LCD.c ****     if(LCD_initVar == 0u)
 159              		.loc 1 140 0
 160 0004 40F20003 		movw	r3, #:lower16:LCD_initVar
 161 0008 C0F20003 		movt	r3, #:upper16:LCD_initVar
 162 000c 1B78     		ldrb	r3, [r3, #0]	@ zero_extendqisi2
 163 000e 002B     		cmp	r3, #0
 164 0010 08D1     		bne	.L4
 141:.\Generated_Source\PSoC5/LCD.c ****     {
 142:.\Generated_Source\PSoC5/LCD.c ****         LCD_Init();
 165              		.loc 1 142 0
 166 0012 FFF7FEFF 		bl	LCD_Init
 143:.\Generated_Source\PSoC5/LCD.c ****         LCD_initVar = 1u;
 167              		.loc 1 143 0
 168 0016 40F20003 		movw	r3, #:lower16:LCD_initVar
 169 001a C0F20003 		movt	r3, #:upper16:LCD_initVar
 170 001e 4FF00102 		mov	r2, #1
 171 0022 1A70     		strb	r2, [r3, #0]
 172              	.L4:
 144:.\Generated_Source\PSoC5/LCD.c ****     }
 145:.\Generated_Source\PSoC5/LCD.c **** 
 146:.\Generated_Source\PSoC5/LCD.c ****     /* Turn on the LCD */
 147:.\Generated_Source\PSoC5/LCD.c ****     LCD_Enable();
 173              		.loc 1 147 0
 174 0024 FFF7FEFF 		bl	LCD_Enable
 148:.\Generated_Source\PSoC5/LCD.c **** }
 175              		.loc 1 148 0
 176 0028 80BD     		pop	{r7, pc}
 177              		.cfi_endproc
 178              	.LFE2:
 179              		.size	LCD_Start, .-LCD_Start
 180 002a 00BF     		.section	.text.LCD_Stop,"ax",%progbits
 181              		.align	2
 182              		.global	LCD_Stop
 183              		.thumb
 184              		.thumb_func
 185              		.type	LCD_Stop, %function
 186              	LCD_Stop:
 187              	.LFB3:
 149:.\Generated_Source\PSoC5/LCD.c **** 
 150:.\Generated_Source\PSoC5/LCD.c **** 
 151:.\Generated_Source\PSoC5/LCD.c **** /*******************************************************************************
 152:.\Generated_Source\PSoC5/LCD.c **** * Function Name: LCD_Stop
 153:.\Generated_Source\PSoC5/LCD.c **** ********************************************************************************
 154:.\Generated_Source\PSoC5/LCD.c **** *
 155:.\Generated_Source\PSoC5/LCD.c **** * Summary:
ARM GAS  C:\Users\Colin\AppData\Local\Temp\ccgJE83v.s 			page 7


 156:.\Generated_Source\PSoC5/LCD.c **** *  Turns off the display of the LCD screen.
 157:.\Generated_Source\PSoC5/LCD.c **** *
 158:.\Generated_Source\PSoC5/LCD.c **** * Parameters:
 159:.\Generated_Source\PSoC5/LCD.c **** *  None.
 160:.\Generated_Source\PSoC5/LCD.c **** *
 161:.\Generated_Source\PSoC5/LCD.c **** * Return:
 162:.\Generated_Source\PSoC5/LCD.c **** *  None.
 163:.\Generated_Source\PSoC5/LCD.c **** *
 164:.\Generated_Source\PSoC5/LCD.c **** * Reentrant:
 165:.\Generated_Source\PSoC5/LCD.c **** *  No.
 166:.\Generated_Source\PSoC5/LCD.c **** *
 167:.\Generated_Source\PSoC5/LCD.c **** *******************************************************************************/
 168:.\Generated_Source\PSoC5/LCD.c **** void LCD_Stop(void) 
 169:.\Generated_Source\PSoC5/LCD.c **** {
 188              		.loc 1 169 0
 189              		.cfi_startproc
 190              		@ args = 0, pretend = 0, frame = 0
 191              		@ frame_needed = 1, uses_anonymous_args = 0
 192 0000 80B5     		push	{r7, lr}
 193              	.LCFI6:
 194              		.cfi_def_cfa_offset 8
 195              		.cfi_offset 7, -8
 196              		.cfi_offset 14, -4
 197 0002 00AF     		add	r7, sp, #0
 198              	.LCFI7:
 199              		.cfi_def_cfa_register 7
 170:.\Generated_Source\PSoC5/LCD.c ****     /* Calls LCD Off Macro */
 171:.\Generated_Source\PSoC5/LCD.c ****     LCD_DisplayOff();
 200              		.loc 1 171 0
 201 0004 4FF00800 		mov	r0, #8
 202 0008 FFF7FEFF 		bl	LCD_WriteControl
 172:.\Generated_Source\PSoC5/LCD.c ****     LCD_enableState = 0u;
 203              		.loc 1 172 0
 204 000c 40F20003 		movw	r3, #:lower16:LCD_enableState
 205 0010 C0F20003 		movt	r3, #:upper16:LCD_enableState
 206 0014 4FF00002 		mov	r2, #0
 207 0018 1A70     		strb	r2, [r3, #0]
 173:.\Generated_Source\PSoC5/LCD.c **** }
 208              		.loc 1 173 0
 209 001a 80BD     		pop	{r7, pc}
 210              		.cfi_endproc
 211              	.LFE3:
 212              		.size	LCD_Stop, .-LCD_Stop
 213              		.section	.text.LCD_Position,"ax",%progbits
 214              		.align	2
 215              		.global	LCD_Position
 216              		.thumb
 217              		.thumb_func
 218              		.type	LCD_Position, %function
 219              	LCD_Position:
 220              	.LFB4:
 174:.\Generated_Source\PSoC5/LCD.c **** 
 175:.\Generated_Source\PSoC5/LCD.c **** 
 176:.\Generated_Source\PSoC5/LCD.c **** /*******************************************************************************
 177:.\Generated_Source\PSoC5/LCD.c **** *  Function Name: LCD_Position
 178:.\Generated_Source\PSoC5/LCD.c **** ********************************************************************************
 179:.\Generated_Source\PSoC5/LCD.c **** *
ARM GAS  C:\Users\Colin\AppData\Local\Temp\ccgJE83v.s 			page 8


 180:.\Generated_Source\PSoC5/LCD.c **** * Summary:
 181:.\Generated_Source\PSoC5/LCD.c **** *  Moves active cursor location to a point specified by the input arguments
 182:.\Generated_Source\PSoC5/LCD.c **** *
 183:.\Generated_Source\PSoC5/LCD.c **** * Parameters:
 184:.\Generated_Source\PSoC5/LCD.c **** *  row:     Specific row of LCD module to be written
 185:.\Generated_Source\PSoC5/LCD.c **** *  column:  Column of LCD module to be written
 186:.\Generated_Source\PSoC5/LCD.c **** *
 187:.\Generated_Source\PSoC5/LCD.c **** * Return:
 188:.\Generated_Source\PSoC5/LCD.c **** *  None.
 189:.\Generated_Source\PSoC5/LCD.c **** *
 190:.\Generated_Source\PSoC5/LCD.c **** * Note:
 191:.\Generated_Source\PSoC5/LCD.c **** *  This only applies for LCD displays which use the 2X40 address mode.
 192:.\Generated_Source\PSoC5/LCD.c **** *  This results in Row 2 offset from row one by 0x28.
 193:.\Generated_Source\PSoC5/LCD.c **** *  When there are more than 2 rows, each row must be fewer than 20 characters.
 194:.\Generated_Source\PSoC5/LCD.c **** *
 195:.\Generated_Source\PSoC5/LCD.c **** *******************************************************************************/
 196:.\Generated_Source\PSoC5/LCD.c **** void LCD_Position(uint8 row, uint8 column) 
 197:.\Generated_Source\PSoC5/LCD.c **** {
 221              		.loc 1 197 0
 222              		.cfi_startproc
 223              		@ args = 0, pretend = 0, frame = 8
 224              		@ frame_needed = 1, uses_anonymous_args = 0
 225 0000 80B5     		push	{r7, lr}
 226              	.LCFI8:
 227              		.cfi_def_cfa_offset 8
 228              		.cfi_offset 7, -8
 229              		.cfi_offset 14, -4
 230 0002 82B0     		sub	sp, sp, #8
 231              	.LCFI9:
 232              		.cfi_def_cfa_offset 16
 233 0004 00AF     		add	r7, sp, #0
 234              	.LCFI10:
 235              		.cfi_def_cfa_register 7
 236 0006 0246     		mov	r2, r0
 237 0008 0B46     		mov	r3, r1
 238 000a FA71     		strb	r2, [r7, #7]
 239 000c BB71     		strb	r3, [r7, #6]
 198:.\Generated_Source\PSoC5/LCD.c ****     switch (row)
 240              		.loc 1 198 0
 241 000e FB79     		ldrb	r3, [r7, #7]	@ zero_extendqisi2
 242 0010 032B     		cmp	r3, #3
 243 0012 2BD8     		bhi	.L14
 244 0014 01A2     		adr	r2, .L12
 245 0016 52F823F0 		ldr	pc, [r2, r3, lsl #2]
 246 001a 00BF     		.align	2
 247              	.L12:
 248 001c 2D000000 		.word	.L8+1
 249 0020 3D000000 		.word	.L9+1
 250 0024 4D000000 		.word	.L10+1
 251 0028 5D000000 		.word	.L11+1
 252              	.L8:
 199:.\Generated_Source\PSoC5/LCD.c ****     {
 200:.\Generated_Source\PSoC5/LCD.c ****         case (uint8)0:
 201:.\Generated_Source\PSoC5/LCD.c ****             LCD_WriteControl(LCD_ROW_0_START + column);
 253              		.loc 1 201 0
 254 002c BB79     		ldrb	r3, [r7, #6]
 255 002e A3F18003 		sub	r3, r3, #128
ARM GAS  C:\Users\Colin\AppData\Local\Temp\ccgJE83v.s 			page 9


 256 0032 DBB2     		uxtb	r3, r3
 257 0034 1846     		mov	r0, r3
 258 0036 FFF7FEFF 		bl	LCD_WriteControl
 202:.\Generated_Source\PSoC5/LCD.c ****             break;
 259              		.loc 1 202 0
 260 003a 18E0     		b	.L6
 261              	.L9:
 203:.\Generated_Source\PSoC5/LCD.c ****         case (uint8) 1:
 204:.\Generated_Source\PSoC5/LCD.c ****             LCD_WriteControl(LCD_ROW_1_START + column);
 262              		.loc 1 204 0
 263 003c BB79     		ldrb	r3, [r7, #6]
 264 003e A3F14003 		sub	r3, r3, #64
 265 0042 DBB2     		uxtb	r3, r3
 266 0044 1846     		mov	r0, r3
 267 0046 FFF7FEFF 		bl	LCD_WriteControl
 205:.\Generated_Source\PSoC5/LCD.c ****             break;
 268              		.loc 1 205 0
 269 004a 10E0     		b	.L6
 270              	.L10:
 206:.\Generated_Source\PSoC5/LCD.c ****         case (uint8) 2:
 207:.\Generated_Source\PSoC5/LCD.c ****             LCD_WriteControl(LCD_ROW_2_START + column);
 271              		.loc 1 207 0
 272 004c BB79     		ldrb	r3, [r7, #6]
 273 004e A3F16C03 		sub	r3, r3, #108
 274 0052 DBB2     		uxtb	r3, r3
 275 0054 1846     		mov	r0, r3
 276 0056 FFF7FEFF 		bl	LCD_WriteControl
 208:.\Generated_Source\PSoC5/LCD.c ****             break;
 277              		.loc 1 208 0
 278 005a 08E0     		b	.L6
 279              	.L11:
 209:.\Generated_Source\PSoC5/LCD.c ****         case (uint8) 3:
 210:.\Generated_Source\PSoC5/LCD.c ****             LCD_WriteControl(LCD_ROW_3_START + column);
 280              		.loc 1 210 0
 281 005c BB79     		ldrb	r3, [r7, #6]
 282 005e A3F12C03 		sub	r3, r3, #44
 283 0062 DBB2     		uxtb	r3, r3
 284 0064 1846     		mov	r0, r3
 285 0066 FFF7FEFF 		bl	LCD_WriteControl
 211:.\Generated_Source\PSoC5/LCD.c ****             break;
 286              		.loc 1 211 0
 287 006a 00E0     		b	.L6
 288              	.L14:
 212:.\Generated_Source\PSoC5/LCD.c ****         default:
 213:.\Generated_Source\PSoC5/LCD.c ****             /* if default case is hit, invalid row argument was passed.*/
 214:.\Generated_Source\PSoC5/LCD.c ****             break;
 289              		.loc 1 214 0
 290 006c 00BF     		nop
 291              	.L6:
 215:.\Generated_Source\PSoC5/LCD.c ****     }
 216:.\Generated_Source\PSoC5/LCD.c **** }
 292              		.loc 1 216 0
 293 006e 07F10807 		add	r7, r7, #8
 294 0072 BD46     		mov	sp, r7
 295 0074 80BD     		pop	{r7, pc}
 296              		.cfi_endproc
 297              	.LFE4:
ARM GAS  C:\Users\Colin\AppData\Local\Temp\ccgJE83v.s 			page 10


 298              		.size	LCD_Position, .-LCD_Position
 299 0076 00BF     		.section	.text.LCD_PrintString,"ax",%progbits
 300              		.align	2
 301              		.global	LCD_PrintString
 302              		.thumb
 303              		.thumb_func
 304              		.type	LCD_PrintString, %function
 305              	LCD_PrintString:
 306              	.LFB5:
 217:.\Generated_Source\PSoC5/LCD.c **** 
 218:.\Generated_Source\PSoC5/LCD.c **** 
 219:.\Generated_Source\PSoC5/LCD.c **** /*******************************************************************************
 220:.\Generated_Source\PSoC5/LCD.c **** * Function Name: LCD_PrintString
 221:.\Generated_Source\PSoC5/LCD.c **** ********************************************************************************
 222:.\Generated_Source\PSoC5/LCD.c **** *
 223:.\Generated_Source\PSoC5/LCD.c **** * Summary:
 224:.\Generated_Source\PSoC5/LCD.c **** *  Writes a zero terminated string to the LCD.
 225:.\Generated_Source\PSoC5/LCD.c **** *
 226:.\Generated_Source\PSoC5/LCD.c **** * Parameters:
 227:.\Generated_Source\PSoC5/LCD.c **** *  string:  pointer to head of char8 array to be written to the LCD module
 228:.\Generated_Source\PSoC5/LCD.c **** *
 229:.\Generated_Source\PSoC5/LCD.c **** * Return:
 230:.\Generated_Source\PSoC5/LCD.c **** *  None.
 231:.\Generated_Source\PSoC5/LCD.c **** *
 232:.\Generated_Source\PSoC5/LCD.c **** *******************************************************************************/
 233:.\Generated_Source\PSoC5/LCD.c **** void LCD_PrintString(char8 const string[]) 
 234:.\Generated_Source\PSoC5/LCD.c **** {
 307              		.loc 1 234 0
 308              		.cfi_startproc
 309              		@ args = 0, pretend = 0, frame = 16
 310              		@ frame_needed = 1, uses_anonymous_args = 0
 311 0000 80B5     		push	{r7, lr}
 312              	.LCFI11:
 313              		.cfi_def_cfa_offset 8
 314              		.cfi_offset 7, -8
 315              		.cfi_offset 14, -4
 316 0002 84B0     		sub	sp, sp, #16
 317              	.LCFI12:
 318              		.cfi_def_cfa_offset 24
 319 0004 00AF     		add	r7, sp, #0
 320              	.LCFI13:
 321              		.cfi_def_cfa_register 7
 322 0006 7860     		str	r0, [r7, #4]
 235:.\Generated_Source\PSoC5/LCD.c ****     uint8 indexU8 = 1u;
 323              		.loc 1 235 0
 324 0008 4FF00103 		mov	r3, #1
 325 000c FB73     		strb	r3, [r7, #15]
 236:.\Generated_Source\PSoC5/LCD.c ****     char8 current = *string;
 326              		.loc 1 236 0
 327 000e 7B68     		ldr	r3, [r7, #4]
 328 0010 1B78     		ldrb	r3, [r3, #0]
 329 0012 BB73     		strb	r3, [r7, #14]
 237:.\Generated_Source\PSoC5/LCD.c **** 
 238:.\Generated_Source\PSoC5/LCD.c ****     /* Until null is reached, print next character */
 239:.\Generated_Source\PSoC5/LCD.c ****     while((char8) '\0' != current)
 330              		.loc 1 239 0
 331 0014 0CE0     		b	.L16
ARM GAS  C:\Users\Colin\AppData\Local\Temp\ccgJE83v.s 			page 11


 332              	.L17:
 240:.\Generated_Source\PSoC5/LCD.c ****     {
 241:.\Generated_Source\PSoC5/LCD.c ****         LCD_WriteData((uint8)current);
 333              		.loc 1 241 0
 334 0016 BB7B     		ldrb	r3, [r7, #14]	@ zero_extendqisi2
 335 0018 1846     		mov	r0, r3
 336 001a FFF7FEFF 		bl	LCD_WriteData
 242:.\Generated_Source\PSoC5/LCD.c ****         current = string[indexU8];
 337              		.loc 1 242 0
 338 001e FB7B     		ldrb	r3, [r7, #15]	@ zero_extendqisi2
 339 0020 7A68     		ldr	r2, [r7, #4]
 340 0022 D318     		adds	r3, r2, r3
 341 0024 1B78     		ldrb	r3, [r3, #0]
 342 0026 BB73     		strb	r3, [r7, #14]
 243:.\Generated_Source\PSoC5/LCD.c ****         indexU8++;
 343              		.loc 1 243 0
 344 0028 FB7B     		ldrb	r3, [r7, #15]
 345 002a 03F10103 		add	r3, r3, #1
 346 002e FB73     		strb	r3, [r7, #15]
 347              	.L16:
 239:.\Generated_Source\PSoC5/LCD.c ****     while((char8) '\0' != current)
 348              		.loc 1 239 0 discriminator 1
 349 0030 BB7B     		ldrb	r3, [r7, #14]	@ zero_extendqisi2
 350 0032 002B     		cmp	r3, #0
 351 0034 EFD1     		bne	.L17
 244:.\Generated_Source\PSoC5/LCD.c ****     }
 245:.\Generated_Source\PSoC5/LCD.c **** }
 352              		.loc 1 245 0
 353 0036 07F11007 		add	r7, r7, #16
 354 003a BD46     		mov	sp, r7
 355 003c 80BD     		pop	{r7, pc}
 356              		.cfi_endproc
 357              	.LFE5:
 358              		.size	LCD_PrintString, .-LCD_PrintString
 359 003e 00BF     		.section	.text.LCD_PutChar,"ax",%progbits
 360              		.align	2
 361              		.global	LCD_PutChar
 362              		.thumb
 363              		.thumb_func
 364              		.type	LCD_PutChar, %function
 365              	LCD_PutChar:
 366              	.LFB6:
 246:.\Generated_Source\PSoC5/LCD.c **** 
 247:.\Generated_Source\PSoC5/LCD.c **** 
 248:.\Generated_Source\PSoC5/LCD.c **** /*******************************************************************************
 249:.\Generated_Source\PSoC5/LCD.c **** *  Function Name: LCD_PutChar
 250:.\Generated_Source\PSoC5/LCD.c **** ********************************************************************************
 251:.\Generated_Source\PSoC5/LCD.c **** *
 252:.\Generated_Source\PSoC5/LCD.c **** * Summary:
 253:.\Generated_Source\PSoC5/LCD.c **** *  Writes a single character to the current cursor position of the LCD module.
 254:.\Generated_Source\PSoC5/LCD.c **** *  Custom character names (_CUSTOM_0 through
 255:.\Generated_Source\PSoC5/LCD.c **** *  _CUSTOM_7) are acceptable as inputs.
 256:.\Generated_Source\PSoC5/LCD.c **** *
 257:.\Generated_Source\PSoC5/LCD.c **** * Parameters:
 258:.\Generated_Source\PSoC5/LCD.c **** *  character:  character to be written to the LCD
 259:.\Generated_Source\PSoC5/LCD.c **** *
 260:.\Generated_Source\PSoC5/LCD.c **** * Return:
ARM GAS  C:\Users\Colin\AppData\Local\Temp\ccgJE83v.s 			page 12


 261:.\Generated_Source\PSoC5/LCD.c **** *  None.
 262:.\Generated_Source\PSoC5/LCD.c **** *
 263:.\Generated_Source\PSoC5/LCD.c **** *******************************************************************************/
 264:.\Generated_Source\PSoC5/LCD.c **** void LCD_PutChar(char8 character) 
 265:.\Generated_Source\PSoC5/LCD.c **** {
 367              		.loc 1 265 0
 368              		.cfi_startproc
 369              		@ args = 0, pretend = 0, frame = 8
 370              		@ frame_needed = 1, uses_anonymous_args = 0
 371 0000 80B5     		push	{r7, lr}
 372              	.LCFI14:
 373              		.cfi_def_cfa_offset 8
 374              		.cfi_offset 7, -8
 375              		.cfi_offset 14, -4
 376 0002 82B0     		sub	sp, sp, #8
 377              	.LCFI15:
 378              		.cfi_def_cfa_offset 16
 379 0004 00AF     		add	r7, sp, #0
 380              	.LCFI16:
 381              		.cfi_def_cfa_register 7
 382 0006 0346     		mov	r3, r0
 383 0008 FB71     		strb	r3, [r7, #7]
 266:.\Generated_Source\PSoC5/LCD.c ****     LCD_WriteData((uint8)character);
 384              		.loc 1 266 0
 385 000a FB79     		ldrb	r3, [r7, #7]	@ zero_extendqisi2
 386 000c 1846     		mov	r0, r3
 387 000e FFF7FEFF 		bl	LCD_WriteData
 267:.\Generated_Source\PSoC5/LCD.c **** }
 388              		.loc 1 267 0
 389 0012 07F10807 		add	r7, r7, #8
 390 0016 BD46     		mov	sp, r7
 391 0018 80BD     		pop	{r7, pc}
 392              		.cfi_endproc
 393              	.LFE6:
 394              		.size	LCD_PutChar, .-LCD_PutChar
 395 001a 00BF     		.section	.text.LCD_WriteData,"ax",%progbits
 396              		.align	2
 397              		.global	LCD_WriteData
 398              		.thumb
 399              		.thumb_func
 400              		.type	LCD_WriteData, %function
 401              	LCD_WriteData:
 402              	.LFB7:
 268:.\Generated_Source\PSoC5/LCD.c **** 
 269:.\Generated_Source\PSoC5/LCD.c **** 
 270:.\Generated_Source\PSoC5/LCD.c **** /*******************************************************************************
 271:.\Generated_Source\PSoC5/LCD.c **** *  Function Name: LCD_WriteData
 272:.\Generated_Source\PSoC5/LCD.c **** ********************************************************************************
 273:.\Generated_Source\PSoC5/LCD.c **** *
 274:.\Generated_Source\PSoC5/LCD.c **** * Summary:
 275:.\Generated_Source\PSoC5/LCD.c **** *  Writes a data byte to the LCD module's Data Display RAM.
 276:.\Generated_Source\PSoC5/LCD.c **** *
 277:.\Generated_Source\PSoC5/LCD.c **** * Parameters:
 278:.\Generated_Source\PSoC5/LCD.c **** *  dByte:  byte to be written to LCD module.
 279:.\Generated_Source\PSoC5/LCD.c **** *
 280:.\Generated_Source\PSoC5/LCD.c **** * Return:
 281:.\Generated_Source\PSoC5/LCD.c **** *  None.
ARM GAS  C:\Users\Colin\AppData\Local\Temp\ccgJE83v.s 			page 13


 282:.\Generated_Source\PSoC5/LCD.c **** *
 283:.\Generated_Source\PSoC5/LCD.c **** *******************************************************************************/
 284:.\Generated_Source\PSoC5/LCD.c **** void LCD_WriteData(uint8 dByte) 
 285:.\Generated_Source\PSoC5/LCD.c **** {
 403              		.loc 1 285 0
 404              		.cfi_startproc
 405              		@ args = 0, pretend = 0, frame = 16
 406              		@ frame_needed = 1, uses_anonymous_args = 0
 407 0000 80B5     		push	{r7, lr}
 408              	.LCFI17:
 409              		.cfi_def_cfa_offset 8
 410              		.cfi_offset 7, -8
 411              		.cfi_offset 14, -4
 412 0002 84B0     		sub	sp, sp, #16
 413              	.LCFI18:
 414              		.cfi_def_cfa_offset 24
 415 0004 00AF     		add	r7, sp, #0
 416              	.LCFI19:
 417              		.cfi_def_cfa_register 7
 418 0006 0346     		mov	r3, r0
 419 0008 FB71     		strb	r3, [r7, #7]
 286:.\Generated_Source\PSoC5/LCD.c ****     uint8 nibble;
 287:.\Generated_Source\PSoC5/LCD.c **** 
 288:.\Generated_Source\PSoC5/LCD.c ****     LCD_IsReady();
 420              		.loc 1 288 0
 421 000a FFF7FEFF 		bl	LCD_IsReady
 289:.\Generated_Source\PSoC5/LCD.c ****     nibble = dByte >> LCD_NIBBLE_SHIFT;
 422              		.loc 1 289 0
 423 000e FB79     		ldrb	r3, [r7, #7]	@ zero_extendqisi2
 424 0010 4FEA1313 		lsr	r3, r3, #4
 425 0014 FB73     		strb	r3, [r7, #15]
 290:.\Generated_Source\PSoC5/LCD.c **** 
 291:.\Generated_Source\PSoC5/LCD.c ****     /* Write high nibble */
 292:.\Generated_Source\PSoC5/LCD.c ****     LCD_WrDatNib(nibble);
 426              		.loc 1 292 0
 427 0016 FB7B     		ldrb	r3, [r7, #15]	@ zero_extendqisi2
 428 0018 1846     		mov	r0, r3
 429 001a FFF7FEFF 		bl	LCD_WrDatNib
 293:.\Generated_Source\PSoC5/LCD.c **** 
 294:.\Generated_Source\PSoC5/LCD.c ****     nibble = dByte & LCD_NIBBLE_MASK;
 430              		.loc 1 294 0
 431 001e FB79     		ldrb	r3, [r7, #7]
 432 0020 03F00F03 		and	r3, r3, #15
 433 0024 FB73     		strb	r3, [r7, #15]
 295:.\Generated_Source\PSoC5/LCD.c ****     /* Write low nibble */
 296:.\Generated_Source\PSoC5/LCD.c ****     LCD_WrDatNib(nibble);
 434              		.loc 1 296 0
 435 0026 FB7B     		ldrb	r3, [r7, #15]	@ zero_extendqisi2
 436 0028 1846     		mov	r0, r3
 437 002a FFF7FEFF 		bl	LCD_WrDatNib
 297:.\Generated_Source\PSoC5/LCD.c **** }
 438              		.loc 1 297 0
 439 002e 07F11007 		add	r7, r7, #16
 440 0032 BD46     		mov	sp, r7
 441 0034 80BD     		pop	{r7, pc}
 442              		.cfi_endproc
 443              	.LFE7:
ARM GAS  C:\Users\Colin\AppData\Local\Temp\ccgJE83v.s 			page 14


 444              		.size	LCD_WriteData, .-LCD_WriteData
 445 0036 00BF     		.section	.text.LCD_WriteControl,"ax",%progbits
 446              		.align	2
 447              		.global	LCD_WriteControl
 448              		.thumb
 449              		.thumb_func
 450              		.type	LCD_WriteControl, %function
 451              	LCD_WriteControl:
 452              	.LFB8:
 298:.\Generated_Source\PSoC5/LCD.c **** 
 299:.\Generated_Source\PSoC5/LCD.c **** 
 300:.\Generated_Source\PSoC5/LCD.c **** /*******************************************************************************
 301:.\Generated_Source\PSoC5/LCD.c **** *  Function Name: LCD_WriteControl
 302:.\Generated_Source\PSoC5/LCD.c **** ********************************************************************************
 303:.\Generated_Source\PSoC5/LCD.c **** *
 304:.\Generated_Source\PSoC5/LCD.c **** * Summary:
 305:.\Generated_Source\PSoC5/LCD.c **** *  Writes a command byte to the LCD module.
 306:.\Generated_Source\PSoC5/LCD.c **** *
 307:.\Generated_Source\PSoC5/LCD.c **** * Parameters:
 308:.\Generated_Source\PSoC5/LCD.c **** *  cByte:   byte to be written to LCD module.
 309:.\Generated_Source\PSoC5/LCD.c **** *
 310:.\Generated_Source\PSoC5/LCD.c **** * Return:
 311:.\Generated_Source\PSoC5/LCD.c **** *  None.
 312:.\Generated_Source\PSoC5/LCD.c **** *
 313:.\Generated_Source\PSoC5/LCD.c **** *******************************************************************************/
 314:.\Generated_Source\PSoC5/LCD.c **** void LCD_WriteControl(uint8 cByte) 
 315:.\Generated_Source\PSoC5/LCD.c **** {
 453              		.loc 1 315 0
 454              		.cfi_startproc
 455              		@ args = 0, pretend = 0, frame = 16
 456              		@ frame_needed = 1, uses_anonymous_args = 0
 457 0000 80B5     		push	{r7, lr}
 458              	.LCFI20:
 459              		.cfi_def_cfa_offset 8
 460              		.cfi_offset 7, -8
 461              		.cfi_offset 14, -4
 462 0002 84B0     		sub	sp, sp, #16
 463              	.LCFI21:
 464              		.cfi_def_cfa_offset 24
 465 0004 00AF     		add	r7, sp, #0
 466              	.LCFI22:
 467              		.cfi_def_cfa_register 7
 468 0006 0346     		mov	r3, r0
 469 0008 FB71     		strb	r3, [r7, #7]
 316:.\Generated_Source\PSoC5/LCD.c ****     uint8 nibble;
 317:.\Generated_Source\PSoC5/LCD.c **** 
 318:.\Generated_Source\PSoC5/LCD.c ****     LCD_IsReady();
 470              		.loc 1 318 0
 471 000a FFF7FEFF 		bl	LCD_IsReady
 319:.\Generated_Source\PSoC5/LCD.c **** 
 320:.\Generated_Source\PSoC5/LCD.c ****     nibble = cByte >> LCD_NIBBLE_SHIFT;
 472              		.loc 1 320 0
 473 000e FB79     		ldrb	r3, [r7, #7]	@ zero_extendqisi2
 474 0010 4FEA1313 		lsr	r3, r3, #4
 475 0014 FB73     		strb	r3, [r7, #15]
 321:.\Generated_Source\PSoC5/LCD.c ****     
 322:.\Generated_Source\PSoC5/LCD.c ****     /* WrCntrlNib(High Nibble) */
ARM GAS  C:\Users\Colin\AppData\Local\Temp\ccgJE83v.s 			page 15


 323:.\Generated_Source\PSoC5/LCD.c ****     LCD_WrCntrlNib(nibble);
 476              		.loc 1 323 0
 477 0016 FB7B     		ldrb	r3, [r7, #15]	@ zero_extendqisi2
 478 0018 1846     		mov	r0, r3
 479 001a FFF7FEFF 		bl	LCD_WrCntrlNib
 324:.\Generated_Source\PSoC5/LCD.c ****     nibble = cByte & LCD_NIBBLE_MASK;
 480              		.loc 1 324 0
 481 001e FB79     		ldrb	r3, [r7, #7]
 482 0020 03F00F03 		and	r3, r3, #15
 483 0024 FB73     		strb	r3, [r7, #15]
 325:.\Generated_Source\PSoC5/LCD.c **** 
 326:.\Generated_Source\PSoC5/LCD.c ****     /* WrCntrlNib(Low Nibble) */
 327:.\Generated_Source\PSoC5/LCD.c ****     LCD_WrCntrlNib(nibble);
 484              		.loc 1 327 0
 485 0026 FB7B     		ldrb	r3, [r7, #15]	@ zero_extendqisi2
 486 0028 1846     		mov	r0, r3
 487 002a FFF7FEFF 		bl	LCD_WrCntrlNib
 328:.\Generated_Source\PSoC5/LCD.c **** }
 488              		.loc 1 328 0
 489 002e 07F11007 		add	r7, r7, #16
 490 0032 BD46     		mov	sp, r7
 491 0034 80BD     		pop	{r7, pc}
 492              		.cfi_endproc
 493              	.LFE8:
 494              		.size	LCD_WriteControl, .-LCD_WriteControl
 495 0036 00BF     		.section	.text.LCD_IsReady,"ax",%progbits
 496              		.align	2
 497              		.global	LCD_IsReady
 498              		.thumb
 499              		.thumb_func
 500              		.type	LCD_IsReady, %function
 501              	LCD_IsReady:
 502              	.LFB9:
 329:.\Generated_Source\PSoC5/LCD.c **** 
 330:.\Generated_Source\PSoC5/LCD.c **** 
 331:.\Generated_Source\PSoC5/LCD.c **** /*******************************************************************************
 332:.\Generated_Source\PSoC5/LCD.c **** * Function Name: LCD_IsReady
 333:.\Generated_Source\PSoC5/LCD.c **** ********************************************************************************
 334:.\Generated_Source\PSoC5/LCD.c **** *
 335:.\Generated_Source\PSoC5/LCD.c **** * Summary:
 336:.\Generated_Source\PSoC5/LCD.c **** *  Polls LCD until the ready bit is set.
 337:.\Generated_Source\PSoC5/LCD.c **** *
 338:.\Generated_Source\PSoC5/LCD.c **** * Parameters:
 339:.\Generated_Source\PSoC5/LCD.c **** *  None.
 340:.\Generated_Source\PSoC5/LCD.c **** *
 341:.\Generated_Source\PSoC5/LCD.c **** * Return:
 342:.\Generated_Source\PSoC5/LCD.c **** *  None.
 343:.\Generated_Source\PSoC5/LCD.c **** *
 344:.\Generated_Source\PSoC5/LCD.c **** * Note:
 345:.\Generated_Source\PSoC5/LCD.c **** *  Changes pins to High-Z.
 346:.\Generated_Source\PSoC5/LCD.c **** *
 347:.\Generated_Source\PSoC5/LCD.c **** *******************************************************************************/
 348:.\Generated_Source\PSoC5/LCD.c **** void LCD_IsReady(void) 
 349:.\Generated_Source\PSoC5/LCD.c **** {
 503              		.loc 1 349 0
 504              		.cfi_startproc
 505              		@ args = 0, pretend = 0, frame = 8
ARM GAS  C:\Users\Colin\AppData\Local\Temp\ccgJE83v.s 			page 16


 506              		@ frame_needed = 1, uses_anonymous_args = 0
 507 0000 80B5     		push	{r7, lr}
 508              	.LCFI23:
 509              		.cfi_def_cfa_offset 8
 510              		.cfi_offset 7, -8
 511              		.cfi_offset 14, -4
 512 0002 82B0     		sub	sp, sp, #8
 513              	.LCFI24:
 514              		.cfi_def_cfa_offset 16
 515 0004 00AF     		add	r7, sp, #0
 516              	.LCFI25:
 517              		.cfi_def_cfa_register 7
 350:.\Generated_Source\PSoC5/LCD.c ****     uint8 value;
 351:.\Generated_Source\PSoC5/LCD.c **** 
 352:.\Generated_Source\PSoC5/LCD.c ****     /* Clear the LCD port*/
 353:.\Generated_Source\PSoC5/LCD.c ****     LCD_PORT_DR_REG &= ((uint8)(~LCD_PORT_MASK));
 518              		.loc 1 353 0
 519 0006 45F22013 		movw	r3, #20768
 520 000a C4F20003 		movt	r3, 16384
 521 000e 45F22012 		movw	r2, #20768
 522 0012 C4F20002 		movt	r2, 16384
 523 0016 1278     		ldrb	r2, [r2, #0]
 524 0018 D2B2     		uxtb	r2, r2
 525 001a 22F07F02 		bic	r2, r2, #127
 526 001e D2B2     		uxtb	r2, r2
 527 0020 1A70     		strb	r2, [r3, #0]
 354:.\Generated_Source\PSoC5/LCD.c **** 
 355:.\Generated_Source\PSoC5/LCD.c ****     /* PSoC4 has a bit different port/pin organization for setting Drive Modes than
 356:.\Generated_Source\PSoC5/LCD.c ****     * PSoC3/5.
 357:.\Generated_Source\PSoC5/LCD.c ****     */
 358:.\Generated_Source\PSoC5/LCD.c ****     #if (CY_PSOC4)
 359:.\Generated_Source\PSoC5/LCD.c ****         
 360:.\Generated_Source\PSoC5/LCD.c ****         /* Mask off data pins to clear old values out */
 361:.\Generated_Source\PSoC5/LCD.c ****         value = LCD_PORT_PC_REG & ((uint32) (~ LCD_DM_DATA_MASK));
 362:.\Generated_Source\PSoC5/LCD.c ****         /* Load in high Z values for data pins, others unchanged */
 363:.\Generated_Source\PSoC5/LCD.c ****         LCD_PORT_PC_REG = value | LCD_HIGH_Z_DATA_DM;
 364:.\Generated_Source\PSoC5/LCD.c **** 
 365:.\Generated_Source\PSoC5/LCD.c ****     #else
 366:.\Generated_Source\PSoC5/LCD.c ****     
 367:.\Generated_Source\PSoC5/LCD.c ****         /* Change Port to High-Z Status on data pins */
 368:.\Generated_Source\PSoC5/LCD.c **** 
 369:.\Generated_Source\PSoC5/LCD.c ****         /* Mask off data pins to clear old values out */
 370:.\Generated_Source\PSoC5/LCD.c ****         value = LCD_PORT_DM0_REG & ((uint8)(~LCD_DATA_MASK));
 528              		.loc 1 370 0
 529 0022 45F22213 		movw	r3, #20770
 530 0026 C4F20003 		movt	r3, 16384
 531 002a 1B78     		ldrb	r3, [r3, #0]
 532 002c DBB2     		uxtb	r3, r3
 533 002e 23F00F03 		bic	r3, r3, #15
 534 0032 FB71     		strb	r3, [r7, #7]
 371:.\Generated_Source\PSoC5/LCD.c ****         /* Load in high Z values for data pins, others unchanged */
 372:.\Generated_Source\PSoC5/LCD.c ****         LCD_PORT_DM0_REG = value | (LCD_HIGH_Z_DM0 & LCD_DATA_MASK);
 535              		.loc 1 372 0
 536 0034 45F22213 		movw	r3, #20770
 537 0038 C4F20003 		movt	r3, 16384
 538 003c FA79     		ldrb	r2, [r7, #7]
 539 003e 42F00F02 		orr	r2, r2, #15
ARM GAS  C:\Users\Colin\AppData\Local\Temp\ccgJE83v.s 			page 17


 540 0042 D2B2     		uxtb	r2, r2
 541 0044 1A70     		strb	r2, [r3, #0]
 373:.\Generated_Source\PSoC5/LCD.c **** 
 374:.\Generated_Source\PSoC5/LCD.c ****         /* Mask off data pins to clear old values out */
 375:.\Generated_Source\PSoC5/LCD.c ****         value = LCD_PORT_DM1_REG & ((uint8)(~LCD_DATA_MASK));
 542              		.loc 1 375 0
 543 0046 45F22313 		movw	r3, #20771
 544 004a C4F20003 		movt	r3, 16384
 545 004e 1B78     		ldrb	r3, [r3, #0]
 546 0050 DBB2     		uxtb	r3, r3
 547 0052 23F00F03 		bic	r3, r3, #15
 548 0056 FB71     		strb	r3, [r7, #7]
 376:.\Generated_Source\PSoC5/LCD.c ****         /* Load in high Z values for data pins, others unchanged */
 377:.\Generated_Source\PSoC5/LCD.c ****         LCD_PORT_DM1_REG = value;
 549              		.loc 1 377 0
 550 0058 45F22313 		movw	r3, #20771
 551 005c C4F20003 		movt	r3, 16384
 552 0060 FA79     		ldrb	r2, [r7, #7]
 553 0062 1A70     		strb	r2, [r3, #0]
 378:.\Generated_Source\PSoC5/LCD.c **** 
 379:.\Generated_Source\PSoC5/LCD.c ****         /* Mask off data pins to clear old values out */
 380:.\Generated_Source\PSoC5/LCD.c ****         value = LCD_PORT_DM2_REG & ((uint8)(~LCD_DATA_MASK));
 554              		.loc 1 380 0
 555 0064 45F22413 		movw	r3, #20772
 556 0068 C4F20003 		movt	r3, 16384
 557 006c 1B78     		ldrb	r3, [r3, #0]
 558 006e DBB2     		uxtb	r3, r3
 559 0070 23F00F03 		bic	r3, r3, #15
 560 0074 FB71     		strb	r3, [r7, #7]
 381:.\Generated_Source\PSoC5/LCD.c ****         /* Load in high Z values for data pins, others unchanged */
 382:.\Generated_Source\PSoC5/LCD.c ****         LCD_PORT_DM2_REG = value;
 561              		.loc 1 382 0
 562 0076 45F22413 		movw	r3, #20772
 563 007a C4F20003 		movt	r3, 16384
 564 007e FA79     		ldrb	r2, [r7, #7]
 565 0080 1A70     		strb	r2, [r3, #0]
 383:.\Generated_Source\PSoC5/LCD.c ****     
 384:.\Generated_Source\PSoC5/LCD.c ****     #endif /* CY_PSOC4 */
 385:.\Generated_Source\PSoC5/LCD.c ****     
 386:.\Generated_Source\PSoC5/LCD.c ****     /* Make sure RS is low */
 387:.\Generated_Source\PSoC5/LCD.c ****     LCD_PORT_DR_REG &= ((uint8)(~LCD_RS));
 566              		.loc 1 387 0
 567 0082 45F22013 		movw	r3, #20768
 568 0086 C4F20003 		movt	r3, 16384
 569 008a 45F22012 		movw	r2, #20768
 570 008e C4F20002 		movt	r2, 16384
 571 0092 1278     		ldrb	r2, [r2, #0]
 572 0094 D2B2     		uxtb	r2, r2
 573 0096 22F02002 		bic	r2, r2, #32
 574 009a D2B2     		uxtb	r2, r2
 575 009c 1A70     		strb	r2, [r3, #0]
 388:.\Generated_Source\PSoC5/LCD.c **** 
 389:.\Generated_Source\PSoC5/LCD.c ****     /* Set R/W high to read */
 390:.\Generated_Source\PSoC5/LCD.c ****     LCD_PORT_DR_REG |= LCD_RW;
 576              		.loc 1 390 0
 577 009e 45F22013 		movw	r3, #20768
 578 00a2 C4F20003 		movt	r3, 16384
ARM GAS  C:\Users\Colin\AppData\Local\Temp\ccgJE83v.s 			page 18


 579 00a6 45F22012 		movw	r2, #20768
 580 00aa C4F20002 		movt	r2, 16384
 581 00ae 1278     		ldrb	r2, [r2, #0]
 582 00b0 D2B2     		uxtb	r2, r2
 583 00b2 42F04002 		orr	r2, r2, #64
 584 00b6 D2B2     		uxtb	r2, r2
 585 00b8 1A70     		strb	r2, [r3, #0]
 586              	.L22:
 391:.\Generated_Source\PSoC5/LCD.c **** 
 392:.\Generated_Source\PSoC5/LCD.c ****     do
 393:.\Generated_Source\PSoC5/LCD.c ****     {
 394:.\Generated_Source\PSoC5/LCD.c ****         /* 40 ns delay required before rising Enable and 500ns between neighbour Enables */
 395:.\Generated_Source\PSoC5/LCD.c ****         CyDelayUs(0u);
 587              		.loc 1 395 0 discriminator 1
 588 00ba 4FF00000 		mov	r0, #0
 589 00be FFF7FEFF 		bl	CyDelayUs
 396:.\Generated_Source\PSoC5/LCD.c **** 
 397:.\Generated_Source\PSoC5/LCD.c ****         /* Set E high */
 398:.\Generated_Source\PSoC5/LCD.c ****         LCD_PORT_DR_REG |= LCD_E;
 590              		.loc 1 398 0 discriminator 1
 591 00c2 45F22013 		movw	r3, #20768
 592 00c6 C4F20003 		movt	r3, 16384
 593 00ca 45F22012 		movw	r2, #20768
 594 00ce C4F20002 		movt	r2, 16384
 595 00d2 1278     		ldrb	r2, [r2, #0]
 596 00d4 D2B2     		uxtb	r2, r2
 597 00d6 42F01002 		orr	r2, r2, #16
 598 00da D2B2     		uxtb	r2, r2
 599 00dc 1A70     		strb	r2, [r3, #0]
 399:.\Generated_Source\PSoC5/LCD.c **** 
 400:.\Generated_Source\PSoC5/LCD.c ****         /* 360 ns delay the setup time for data pins */
 401:.\Generated_Source\PSoC5/LCD.c ****         CyDelayUs(1u);
 600              		.loc 1 401 0 discriminator 1
 601 00de 4FF00100 		mov	r0, #1
 602 00e2 FFF7FEFF 		bl	CyDelayUs
 402:.\Generated_Source\PSoC5/LCD.c **** 
 403:.\Generated_Source\PSoC5/LCD.c ****         /* Get port state */
 404:.\Generated_Source\PSoC5/LCD.c ****         value = LCD_PORT_PS_REG;
 603              		.loc 1 404 0 discriminator 1
 604 00e6 45F22113 		movw	r3, #20769
 605 00ea C4F20003 		movt	r3, 16384
 606 00ee 1B78     		ldrb	r3, [r3, #0]
 607 00f0 FB71     		strb	r3, [r7, #7]
 405:.\Generated_Source\PSoC5/LCD.c **** 
 406:.\Generated_Source\PSoC5/LCD.c ****         /* Set enable low */
 407:.\Generated_Source\PSoC5/LCD.c ****         LCD_PORT_DR_REG &= ((uint8)(~LCD_E));
 608              		.loc 1 407 0 discriminator 1
 609 00f2 45F22013 		movw	r3, #20768
 610 00f6 C4F20003 		movt	r3, 16384
 611 00fa 45F22012 		movw	r2, #20768
 612 00fe C4F20002 		movt	r2, 16384
 613 0102 1278     		ldrb	r2, [r2, #0]
 614 0104 D2B2     		uxtb	r2, r2
 615 0106 22F01002 		bic	r2, r2, #16
 616 010a D2B2     		uxtb	r2, r2
 617 010c 1A70     		strb	r2, [r3, #0]
 408:.\Generated_Source\PSoC5/LCD.c **** 
ARM GAS  C:\Users\Colin\AppData\Local\Temp\ccgJE83v.s 			page 19


 409:.\Generated_Source\PSoC5/LCD.c ****         /* This gives a true delay between disably Enable bit and poling Ready bit */
 410:.\Generated_Source\PSoC5/LCD.c ****         CyDelayUs(0u);
 618              		.loc 1 410 0 discriminator 1
 619 010e 4FF00000 		mov	r0, #0
 620 0112 FFF7FEFF 		bl	CyDelayUs
 411:.\Generated_Source\PSoC5/LCD.c **** 
 412:.\Generated_Source\PSoC5/LCD.c ****         /* Extract ready bit */
 413:.\Generated_Source\PSoC5/LCD.c ****         value &= LCD_READY_BIT;
 621              		.loc 1 413 0 discriminator 1
 622 0116 FB79     		ldrb	r3, [r7, #7]
 623 0118 03F00803 		and	r3, r3, #8
 624 011c FB71     		strb	r3, [r7, #7]
 414:.\Generated_Source\PSoC5/LCD.c **** 
 415:.\Generated_Source\PSoC5/LCD.c ****         /* Set E high as we in 4-bit interface we need extra oparation */
 416:.\Generated_Source\PSoC5/LCD.c ****         LCD_PORT_DR_REG |= LCD_E;
 625              		.loc 1 416 0 discriminator 1
 626 011e 45F22013 		movw	r3, #20768
 627 0122 C4F20003 		movt	r3, 16384
 628 0126 45F22012 		movw	r2, #20768
 629 012a C4F20002 		movt	r2, 16384
 630 012e 1278     		ldrb	r2, [r2, #0]
 631 0130 D2B2     		uxtb	r2, r2
 632 0132 42F01002 		orr	r2, r2, #16
 633 0136 D2B2     		uxtb	r2, r2
 634 0138 1A70     		strb	r2, [r3, #0]
 417:.\Generated_Source\PSoC5/LCD.c **** 
 418:.\Generated_Source\PSoC5/LCD.c ****         /* 360 ns delay the setup time for data pins */
 419:.\Generated_Source\PSoC5/LCD.c ****         CyDelayUs(1u);
 635              		.loc 1 419 0 discriminator 1
 636 013a 4FF00100 		mov	r0, #1
 637 013e FFF7FEFF 		bl	CyDelayUs
 420:.\Generated_Source\PSoC5/LCD.c **** 
 421:.\Generated_Source\PSoC5/LCD.c ****         /* Set enable low */
 422:.\Generated_Source\PSoC5/LCD.c ****         LCD_PORT_DR_REG &= ((uint8)(~LCD_E));
 638              		.loc 1 422 0 discriminator 1
 639 0142 45F22013 		movw	r3, #20768
 640 0146 C4F20003 		movt	r3, 16384
 641 014a 45F22012 		movw	r2, #20768
 642 014e C4F20002 		movt	r2, 16384
 643 0152 1278     		ldrb	r2, [r2, #0]
 644 0154 D2B2     		uxtb	r2, r2
 645 0156 22F01002 		bic	r2, r2, #16
 646 015a D2B2     		uxtb	r2, r2
 647 015c 1A70     		strb	r2, [r3, #0]
 423:.\Generated_Source\PSoC5/LCD.c **** 
 424:.\Generated_Source\PSoC5/LCD.c ****         /* Repeat until bit 4 is not zero. */
 425:.\Generated_Source\PSoC5/LCD.c **** 
 426:.\Generated_Source\PSoC5/LCD.c ****     } while (value != 0u);
 648              		.loc 1 426 0 discriminator 1
 649 015e FB79     		ldrb	r3, [r7, #7]	@ zero_extendqisi2
 650 0160 002B     		cmp	r3, #0
 651 0162 AAD1     		bne	.L22
 427:.\Generated_Source\PSoC5/LCD.c **** 
 428:.\Generated_Source\PSoC5/LCD.c ****     /* Set R/W low to write */
 429:.\Generated_Source\PSoC5/LCD.c ****     LCD_PORT_DR_REG &= ((uint8)(~LCD_RW));
 652              		.loc 1 429 0
 653 0164 45F22013 		movw	r3, #20768
ARM GAS  C:\Users\Colin\AppData\Local\Temp\ccgJE83v.s 			page 20


 654 0168 C4F20003 		movt	r3, 16384
 655 016c 45F22012 		movw	r2, #20768
 656 0170 C4F20002 		movt	r2, 16384
 657 0174 1278     		ldrb	r2, [r2, #0]
 658 0176 D2B2     		uxtb	r2, r2
 659 0178 22F04002 		bic	r2, r2, #64
 660 017c D2B2     		uxtb	r2, r2
 661 017e 1A70     		strb	r2, [r3, #0]
 430:.\Generated_Source\PSoC5/LCD.c **** 
 431:.\Generated_Source\PSoC5/LCD.c ****     /* Clear the LCD port*/
 432:.\Generated_Source\PSoC5/LCD.c ****     LCD_PORT_DR_REG &= ((uint8)(~LCD_PORT_MASK));
 662              		.loc 1 432 0
 663 0180 45F22013 		movw	r3, #20768
 664 0184 C4F20003 		movt	r3, 16384
 665 0188 45F22012 		movw	r2, #20768
 666 018c C4F20002 		movt	r2, 16384
 667 0190 1278     		ldrb	r2, [r2, #0]
 668 0192 D2B2     		uxtb	r2, r2
 669 0194 22F07F02 		bic	r2, r2, #127
 670 0198 D2B2     		uxtb	r2, r2
 671 019a 1A70     		strb	r2, [r3, #0]
 433:.\Generated_Source\PSoC5/LCD.c **** 
 434:.\Generated_Source\PSoC5/LCD.c ****     #if (CY_PSOC4)
 435:.\Generated_Source\PSoC5/LCD.c ****         
 436:.\Generated_Source\PSoC5/LCD.c ****         /* Mask off data pins to clear old values out */
 437:.\Generated_Source\PSoC5/LCD.c ****         value = LCD_PORT_PC_REG & ((uint32)(~ LCD_DM_DATA_MASK));
 438:.\Generated_Source\PSoC5/LCD.c ****         /* Load in high Z values for data pins, others unchanged */
 439:.\Generated_Source\PSoC5/LCD.c ****         LCD_PORT_PC_REG = value | LCD_STRONG_DATA_DM;
 440:.\Generated_Source\PSoC5/LCD.c **** 
 441:.\Generated_Source\PSoC5/LCD.c ****     #else
 442:.\Generated_Source\PSoC5/LCD.c **** 
 443:.\Generated_Source\PSoC5/LCD.c ****         /* Change Port to Output (Strong) on data pins */
 444:.\Generated_Source\PSoC5/LCD.c ****         /* Mask off data pins to clear high z values out. Configure data pins 
 445:.\Generated_Source\PSoC5/LCD.c ****         * to Strong Drive, others unchanged.
 446:.\Generated_Source\PSoC5/LCD.c ****         */
 447:.\Generated_Source\PSoC5/LCD.c ****         LCD_PORT_DM0_REG &= ((uint8)(~LCD_DATA_MASK));
 672              		.loc 1 447 0
 673 019c 45F22213 		movw	r3, #20770
 674 01a0 C4F20003 		movt	r3, 16384
 675 01a4 45F22212 		movw	r2, #20770
 676 01a8 C4F20002 		movt	r2, 16384
 677 01ac 1278     		ldrb	r2, [r2, #0]
 678 01ae D2B2     		uxtb	r2, r2
 679 01b0 22F00F02 		bic	r2, r2, #15
 680 01b4 D2B2     		uxtb	r2, r2
 681 01b6 1A70     		strb	r2, [r3, #0]
 448:.\Generated_Source\PSoC5/LCD.c ****         /* Mask off data pins to clear high z values out */
 449:.\Generated_Source\PSoC5/LCD.c ****         value = LCD_PORT_DM1_REG & ((uint8)(~LCD_DATA_MASK));
 682              		.loc 1 449 0
 683 01b8 45F22313 		movw	r3, #20771
 684 01bc C4F20003 		movt	r3, 16384
 685 01c0 1B78     		ldrb	r3, [r3, #0]
 686 01c2 DBB2     		uxtb	r3, r3
 687 01c4 23F00F03 		bic	r3, r3, #15
 688 01c8 FB71     		strb	r3, [r7, #7]
 450:.\Generated_Source\PSoC5/LCD.c ****         /* Configure data pins to Strong Drive, others unchanged */
 451:.\Generated_Source\PSoC5/LCD.c ****         LCD_PORT_DM1_REG = value | (LCD_STRONG_DM1 & LCD_DATA_MASK);
ARM GAS  C:\Users\Colin\AppData\Local\Temp\ccgJE83v.s 			page 21


 689              		.loc 1 451 0
 690 01ca 45F22313 		movw	r3, #20771
 691 01ce C4F20003 		movt	r3, 16384
 692 01d2 FA79     		ldrb	r2, [r7, #7]
 693 01d4 42F00F02 		orr	r2, r2, #15
 694 01d8 D2B2     		uxtb	r2, r2
 695 01da 1A70     		strb	r2, [r3, #0]
 452:.\Generated_Source\PSoC5/LCD.c **** 
 453:.\Generated_Source\PSoC5/LCD.c ****         /* Mask off data pins to clear high z values out */
 454:.\Generated_Source\PSoC5/LCD.c ****         value = LCD_PORT_DM2_REG & ((uint8)(~LCD_DATA_MASK));
 696              		.loc 1 454 0
 697 01dc 45F22413 		movw	r3, #20772
 698 01e0 C4F20003 		movt	r3, 16384
 699 01e4 1B78     		ldrb	r3, [r3, #0]
 700 01e6 DBB2     		uxtb	r3, r3
 701 01e8 23F00F03 		bic	r3, r3, #15
 702 01ec FB71     		strb	r3, [r7, #7]
 455:.\Generated_Source\PSoC5/LCD.c ****         /* Configure data pins to Strong Drive, others unchanged */
 456:.\Generated_Source\PSoC5/LCD.c ****         LCD_PORT_DM2_REG = value | (LCD_STRONG_DM2 & LCD_DATA_MASK);
 703              		.loc 1 456 0
 704 01ee 45F22413 		movw	r3, #20772
 705 01f2 C4F20003 		movt	r3, 16384
 706 01f6 FA79     		ldrb	r2, [r7, #7]
 707 01f8 42F00F02 		orr	r2, r2, #15
 708 01fc D2B2     		uxtb	r2, r2
 709 01fe 1A70     		strb	r2, [r3, #0]
 457:.\Generated_Source\PSoC5/LCD.c ****     
 458:.\Generated_Source\PSoC5/LCD.c ****     #endif /* CY_PSOC4 */
 459:.\Generated_Source\PSoC5/LCD.c **** }
 710              		.loc 1 459 0
 711 0200 07F10807 		add	r7, r7, #8
 712 0204 BD46     		mov	sp, r7
 713 0206 80BD     		pop	{r7, pc}
 714              		.cfi_endproc
 715              	.LFE9:
 716              		.size	LCD_IsReady, .-LCD_IsReady
 717              		.section	.text.LCD_WrDatNib,"ax",%progbits
 718              		.align	2
 719              		.thumb
 720              		.thumb_func
 721              		.type	LCD_WrDatNib, %function
 722              	LCD_WrDatNib:
 723              	.LFB10:
 460:.\Generated_Source\PSoC5/LCD.c **** 
 461:.\Generated_Source\PSoC5/LCD.c **** 
 462:.\Generated_Source\PSoC5/LCD.c **** /*******************************************************************************
 463:.\Generated_Source\PSoC5/LCD.c **** *  Function Name: LCD_WrDatNib
 464:.\Generated_Source\PSoC5/LCD.c **** ********************************************************************************
 465:.\Generated_Source\PSoC5/LCD.c **** *
 466:.\Generated_Source\PSoC5/LCD.c **** * Summary:
 467:.\Generated_Source\PSoC5/LCD.c **** *  Writes a data nibble to the LCD module.
 468:.\Generated_Source\PSoC5/LCD.c **** *
 469:.\Generated_Source\PSoC5/LCD.c **** * Parameters:
 470:.\Generated_Source\PSoC5/LCD.c **** *  nibble:  byte containing nibble in least significant nibble to be written
 471:.\Generated_Source\PSoC5/LCD.c **** *           to LCD module.
 472:.\Generated_Source\PSoC5/LCD.c **** *
 473:.\Generated_Source\PSoC5/LCD.c **** * Return:
ARM GAS  C:\Users\Colin\AppData\Local\Temp\ccgJE83v.s 			page 22


 474:.\Generated_Source\PSoC5/LCD.c **** *  None.
 475:.\Generated_Source\PSoC5/LCD.c **** *
 476:.\Generated_Source\PSoC5/LCD.c **** *******************************************************************************/
 477:.\Generated_Source\PSoC5/LCD.c **** static void LCD_WrDatNib(uint8 nibble) 
 478:.\Generated_Source\PSoC5/LCD.c **** {
 724              		.loc 1 478 0
 725              		.cfi_startproc
 726              		@ args = 0, pretend = 0, frame = 8
 727              		@ frame_needed = 1, uses_anonymous_args = 0
 728 0000 80B5     		push	{r7, lr}
 729              	.LCFI26:
 730              		.cfi_def_cfa_offset 8
 731              		.cfi_offset 7, -8
 732              		.cfi_offset 14, -4
 733 0002 82B0     		sub	sp, sp, #8
 734              	.LCFI27:
 735              		.cfi_def_cfa_offset 16
 736 0004 00AF     		add	r7, sp, #0
 737              	.LCFI28:
 738              		.cfi_def_cfa_register 7
 739 0006 0346     		mov	r3, r0
 740 0008 FB71     		strb	r3, [r7, #7]
 479:.\Generated_Source\PSoC5/LCD.c ****     LCD_IsReady();
 741              		.loc 1 479 0
 742 000a FFF7FEFF 		bl	LCD_IsReady
 480:.\Generated_Source\PSoC5/LCD.c **** 
 481:.\Generated_Source\PSoC5/LCD.c ****     /* RS shoul be low to select data register */
 482:.\Generated_Source\PSoC5/LCD.c ****     LCD_PORT_DR_REG |= LCD_RS;
 743              		.loc 1 482 0
 744 000e 45F22013 		movw	r3, #20768
 745 0012 C4F20003 		movt	r3, 16384
 746 0016 45F22012 		movw	r2, #20768
 747 001a C4F20002 		movt	r2, 16384
 748 001e 1278     		ldrb	r2, [r2, #0]
 749 0020 D2B2     		uxtb	r2, r2
 750 0022 42F02002 		orr	r2, r2, #32
 751 0026 D2B2     		uxtb	r2, r2
 752 0028 1A70     		strb	r2, [r3, #0]
 483:.\Generated_Source\PSoC5/LCD.c ****     /* Reset RW for write operation */
 484:.\Generated_Source\PSoC5/LCD.c ****     LCD_PORT_DR_REG &= ((uint8)(~LCD_RW));
 753              		.loc 1 484 0
 754 002a 45F22013 		movw	r3, #20768
 755 002e C4F20003 		movt	r3, 16384
 756 0032 45F22012 		movw	r2, #20768
 757 0036 C4F20002 		movt	r2, 16384
 758 003a 1278     		ldrb	r2, [r2, #0]
 759 003c D2B2     		uxtb	r2, r2
 760 003e 22F04002 		bic	r2, r2, #64
 761 0042 D2B2     		uxtb	r2, r2
 762 0044 1A70     		strb	r2, [r3, #0]
 485:.\Generated_Source\PSoC5/LCD.c **** 
 486:.\Generated_Source\PSoC5/LCD.c ****     /* Two following lines of code will provide us with 40ns delay */
 487:.\Generated_Source\PSoC5/LCD.c ****     /* Clear data pins */
 488:.\Generated_Source\PSoC5/LCD.c ****     LCD_PORT_DR_REG &= ((uint8)(~LCD_DATA_MASK));
 763              		.loc 1 488 0
 764 0046 45F22013 		movw	r3, #20768
 765 004a C4F20003 		movt	r3, 16384
ARM GAS  C:\Users\Colin\AppData\Local\Temp\ccgJE83v.s 			page 23


 766 004e 45F22012 		movw	r2, #20768
 767 0052 C4F20002 		movt	r2, 16384
 768 0056 1278     		ldrb	r2, [r2, #0]
 769 0058 D2B2     		uxtb	r2, r2
 770 005a 22F00F02 		bic	r2, r2, #15
 771 005e D2B2     		uxtb	r2, r2
 772 0060 1A70     		strb	r2, [r3, #0]
 489:.\Generated_Source\PSoC5/LCD.c **** 
 490:.\Generated_Source\PSoC5/LCD.c ****     /* Write in data, bring E high*/
 491:.\Generated_Source\PSoC5/LCD.c ****     #if(0u != LCD_PORT_SHIFT) /* MISRA forbids shift by 0 so need to handle that */
 492:.\Generated_Source\PSoC5/LCD.c ****         LCD_PORT_DR_REG |= 
 493:.\Generated_Source\PSoC5/LCD.c ****             (LCD_E | ((uint8)(((uint8) nibble) << LCD_PORT_SHIFT)));
 494:.\Generated_Source\PSoC5/LCD.c ****     #else
 495:.\Generated_Source\PSoC5/LCD.c ****         LCD_PORT_DR_REG |= (LCD_E | nibble);
 773              		.loc 1 495 0
 774 0062 45F22013 		movw	r3, #20768
 775 0066 C4F20003 		movt	r3, 16384
 776 006a 45F22012 		movw	r2, #20768
 777 006e C4F20002 		movt	r2, 16384
 778 0072 1278     		ldrb	r2, [r2, #0]
 779 0074 D1B2     		uxtb	r1, r2
 780 0076 FA79     		ldrb	r2, [r7, #7]
 781 0078 0A43     		orrs	r2, r2, r1
 782 007a D2B2     		uxtb	r2, r2
 783 007c 42F01002 		orr	r2, r2, #16
 784 0080 D2B2     		uxtb	r2, r2
 785 0082 1A70     		strb	r2, [r3, #0]
 496:.\Generated_Source\PSoC5/LCD.c ****     #endif /* (0u != LCD_PORT_SHIFT) */
 497:.\Generated_Source\PSoC5/LCD.c **** 
 498:.\Generated_Source\PSoC5/LCD.c ****     /* Minimum of 230 ns delay */
 499:.\Generated_Source\PSoC5/LCD.c ****     CyDelayUs(1u);
 786              		.loc 1 499 0
 787 0084 4FF00100 		mov	r0, #1
 788 0088 FFF7FEFF 		bl	CyDelayUs
 500:.\Generated_Source\PSoC5/LCD.c **** 
 501:.\Generated_Source\PSoC5/LCD.c ****     LCD_PORT_DR_REG &= ((uint8)(~LCD_E));
 789              		.loc 1 501 0
 790 008c 45F22013 		movw	r3, #20768
 791 0090 C4F20003 		movt	r3, 16384
 792 0094 45F22012 		movw	r2, #20768
 793 0098 C4F20002 		movt	r2, 16384
 794 009c 1278     		ldrb	r2, [r2, #0]
 795 009e D2B2     		uxtb	r2, r2
 796 00a0 22F01002 		bic	r2, r2, #16
 797 00a4 D2B2     		uxtb	r2, r2
 798 00a6 1A70     		strb	r2, [r3, #0]
 502:.\Generated_Source\PSoC5/LCD.c **** }
 799              		.loc 1 502 0
 800 00a8 07F10807 		add	r7, r7, #8
 801 00ac BD46     		mov	sp, r7
 802 00ae 80BD     		pop	{r7, pc}
 803              		.cfi_endproc
 804              	.LFE10:
 805              		.size	LCD_WrDatNib, .-LCD_WrDatNib
 806              		.section	.text.LCD_WrCntrlNib,"ax",%progbits
 807              		.align	2
 808              		.thumb
ARM GAS  C:\Users\Colin\AppData\Local\Temp\ccgJE83v.s 			page 24


 809              		.thumb_func
 810              		.type	LCD_WrCntrlNib, %function
 811              	LCD_WrCntrlNib:
 812              	.LFB11:
 503:.\Generated_Source\PSoC5/LCD.c **** 
 504:.\Generated_Source\PSoC5/LCD.c **** 
 505:.\Generated_Source\PSoC5/LCD.c **** /*******************************************************************************
 506:.\Generated_Source\PSoC5/LCD.c **** *  Function Name: LCD_WrCntrlNib
 507:.\Generated_Source\PSoC5/LCD.c **** ********************************************************************************
 508:.\Generated_Source\PSoC5/LCD.c **** *
 509:.\Generated_Source\PSoC5/LCD.c **** * Summary:
 510:.\Generated_Source\PSoC5/LCD.c **** *  Writes a control nibble to the LCD module.
 511:.\Generated_Source\PSoC5/LCD.c **** *
 512:.\Generated_Source\PSoC5/LCD.c **** * Parameters:
 513:.\Generated_Source\PSoC5/LCD.c **** *  nibble:  byte containing nibble in least significant nibble to be written
 514:.\Generated_Source\PSoC5/LCD.c **** *           to LCD module.
 515:.\Generated_Source\PSoC5/LCD.c **** *
 516:.\Generated_Source\PSoC5/LCD.c **** * Return:
 517:.\Generated_Source\PSoC5/LCD.c **** *  None.
 518:.\Generated_Source\PSoC5/LCD.c **** *
 519:.\Generated_Source\PSoC5/LCD.c **** *******************************************************************************/
 520:.\Generated_Source\PSoC5/LCD.c **** static void LCD_WrCntrlNib(uint8 nibble) 
 521:.\Generated_Source\PSoC5/LCD.c **** {
 813              		.loc 1 521 0
 814              		.cfi_startproc
 815              		@ args = 0, pretend = 0, frame = 8
 816              		@ frame_needed = 1, uses_anonymous_args = 0
 817 0000 80B5     		push	{r7, lr}
 818              	.LCFI29:
 819              		.cfi_def_cfa_offset 8
 820              		.cfi_offset 7, -8
 821              		.cfi_offset 14, -4
 822 0002 82B0     		sub	sp, sp, #8
 823              	.LCFI30:
 824              		.cfi_def_cfa_offset 16
 825 0004 00AF     		add	r7, sp, #0
 826              	.LCFI31:
 827              		.cfi_def_cfa_register 7
 828 0006 0346     		mov	r3, r0
 829 0008 FB71     		strb	r3, [r7, #7]
 522:.\Generated_Source\PSoC5/LCD.c ****     /* RS and RW shoul be low to select instruction register and  write operation respectively */
 523:.\Generated_Source\PSoC5/LCD.c ****     LCD_PORT_DR_REG &= ((uint8)(~(LCD_RS | LCD_RW)));
 830              		.loc 1 523 0
 831 000a 45F22013 		movw	r3, #20768
 832 000e C4F20003 		movt	r3, 16384
 833 0012 45F22012 		movw	r2, #20768
 834 0016 C4F20002 		movt	r2, 16384
 835 001a 1278     		ldrb	r2, [r2, #0]
 836 001c D2B2     		uxtb	r2, r2
 837 001e 22F06002 		bic	r2, r2, #96
 838 0022 D2B2     		uxtb	r2, r2
 839 0024 1A70     		strb	r2, [r3, #0]
 524:.\Generated_Source\PSoC5/LCD.c **** 
 525:.\Generated_Source\PSoC5/LCD.c ****     /* Two following lines of code will give provide ua with 40ns delay */
 526:.\Generated_Source\PSoC5/LCD.c ****     /* Clear data pins */
 527:.\Generated_Source\PSoC5/LCD.c ****     LCD_PORT_DR_REG &= ((uint8)(~LCD_DATA_MASK));
 840              		.loc 1 527 0
ARM GAS  C:\Users\Colin\AppData\Local\Temp\ccgJE83v.s 			page 25


 841 0026 45F22013 		movw	r3, #20768
 842 002a C4F20003 		movt	r3, 16384
 843 002e 45F22012 		movw	r2, #20768
 844 0032 C4F20002 		movt	r2, 16384
 845 0036 1278     		ldrb	r2, [r2, #0]
 846 0038 D2B2     		uxtb	r2, r2
 847 003a 22F00F02 		bic	r2, r2, #15
 848 003e D2B2     		uxtb	r2, r2
 849 0040 1A70     		strb	r2, [r3, #0]
 528:.\Generated_Source\PSoC5/LCD.c **** 
 529:.\Generated_Source\PSoC5/LCD.c ****     /* Write control data and set enable signal */
 530:.\Generated_Source\PSoC5/LCD.c ****     #if(0u != LCD_PORT_SHIFT) /* MISRA forbids shift by 0 so need to handle that */
 531:.\Generated_Source\PSoC5/LCD.c ****         LCD_PORT_DR_REG |= 
 532:.\Generated_Source\PSoC5/LCD.c ****             (LCD_E | ((uint8)(((uint8) nibble) << LCD_PORT_SHIFT)));
 533:.\Generated_Source\PSoC5/LCD.c ****     #else
 534:.\Generated_Source\PSoC5/LCD.c ****         LCD_PORT_DR_REG |= (LCD_E | nibble);
 850              		.loc 1 534 0
 851 0042 45F22013 		movw	r3, #20768
 852 0046 C4F20003 		movt	r3, 16384
 853 004a 45F22012 		movw	r2, #20768
 854 004e C4F20002 		movt	r2, 16384
 855 0052 1278     		ldrb	r2, [r2, #0]
 856 0054 D1B2     		uxtb	r1, r2
 857 0056 FA79     		ldrb	r2, [r7, #7]
 858 0058 0A43     		orrs	r2, r2, r1
 859 005a D2B2     		uxtb	r2, r2
 860 005c 42F01002 		orr	r2, r2, #16
 861 0060 D2B2     		uxtb	r2, r2
 862 0062 1A70     		strb	r2, [r3, #0]
 535:.\Generated_Source\PSoC5/LCD.c ****     #endif /* (0u != LCD_PORT_SHIFT) */
 536:.\Generated_Source\PSoC5/LCD.c **** 
 537:.\Generated_Source\PSoC5/LCD.c ****     /* Minimum of 230 ns delay */
 538:.\Generated_Source\PSoC5/LCD.c ****     CyDelayUs(1u);
 863              		.loc 1 538 0
 864 0064 4FF00100 		mov	r0, #1
 865 0068 FFF7FEFF 		bl	CyDelayUs
 539:.\Generated_Source\PSoC5/LCD.c **** 
 540:.\Generated_Source\PSoC5/LCD.c ****     LCD_PORT_DR_REG &= ((uint8)(~LCD_E));
 866              		.loc 1 540 0
 867 006c 45F22013 		movw	r3, #20768
 868 0070 C4F20003 		movt	r3, 16384
 869 0074 45F22012 		movw	r2, #20768
 870 0078 C4F20002 		movt	r2, 16384
 871 007c 1278     		ldrb	r2, [r2, #0]
 872 007e D2B2     		uxtb	r2, r2
 873 0080 22F01002 		bic	r2, r2, #16
 874 0084 D2B2     		uxtb	r2, r2
 875 0086 1A70     		strb	r2, [r3, #0]
 541:.\Generated_Source\PSoC5/LCD.c **** }
 876              		.loc 1 541 0
 877 0088 07F10807 		add	r7, r7, #8
 878 008c BD46     		mov	sp, r7
 879 008e 80BD     		pop	{r7, pc}
 880              		.cfi_endproc
 881              	.LFE11:
 882              		.size	LCD_WrCntrlNib, .-LCD_WrCntrlNib
 883              		.section	.text.LCD_PrintInt8,"ax",%progbits
ARM GAS  C:\Users\Colin\AppData\Local\Temp\ccgJE83v.s 			page 26


 884              		.align	2
 885              		.global	LCD_PrintInt8
 886              		.thumb
 887              		.thumb_func
 888              		.type	LCD_PrintInt8, %function
 889              	LCD_PrintInt8:
 890              	.LFB12:
 542:.\Generated_Source\PSoC5/LCD.c **** 
 543:.\Generated_Source\PSoC5/LCD.c **** 
 544:.\Generated_Source\PSoC5/LCD.c **** #if(LCD_CONVERSION_ROUTINES == 1u)
 545:.\Generated_Source\PSoC5/LCD.c **** 
 546:.\Generated_Source\PSoC5/LCD.c ****     /*******************************************************************************
 547:.\Generated_Source\PSoC5/LCD.c ****     *  Function Name: LCD_PrintInt8
 548:.\Generated_Source\PSoC5/LCD.c ****     ********************************************************************************
 549:.\Generated_Source\PSoC5/LCD.c ****     *
 550:.\Generated_Source\PSoC5/LCD.c ****     * Summary:
 551:.\Generated_Source\PSoC5/LCD.c ****     *  Print a byte as two ASCII characters.
 552:.\Generated_Source\PSoC5/LCD.c ****     *
 553:.\Generated_Source\PSoC5/LCD.c ****     * Parameters:
 554:.\Generated_Source\PSoC5/LCD.c ****     *  value:  The byte to be printed out as ASCII characters.
 555:.\Generated_Source\PSoC5/LCD.c ****     *
 556:.\Generated_Source\PSoC5/LCD.c ****     * Return:
 557:.\Generated_Source\PSoC5/LCD.c ****     *  None.
 558:.\Generated_Source\PSoC5/LCD.c ****     *
 559:.\Generated_Source\PSoC5/LCD.c ****     *******************************************************************************/
 560:.\Generated_Source\PSoC5/LCD.c ****     void LCD_PrintInt8(uint8 value) 
 561:.\Generated_Source\PSoC5/LCD.c ****     {
 891              		.loc 1 561 0
 892              		.cfi_startproc
 893              		@ args = 0, pretend = 0, frame = 8
 894              		@ frame_needed = 1, uses_anonymous_args = 0
 895 0000 80B5     		push	{r7, lr}
 896              	.LCFI32:
 897              		.cfi_def_cfa_offset 8
 898              		.cfi_offset 7, -8
 899              		.cfi_offset 14, -4
 900 0002 82B0     		sub	sp, sp, #8
 901              	.LCFI33:
 902              		.cfi_def_cfa_offset 16
 903 0004 00AF     		add	r7, sp, #0
 904              	.LCFI34:
 905              		.cfi_def_cfa_register 7
 906 0006 0346     		mov	r3, r0
 907 0008 FB71     		strb	r3, [r7, #7]
 562:.\Generated_Source\PSoC5/LCD.c ****         static char8 const CYCODE LCD_hex[16u] = "0123456789ABCDEF";
 563:.\Generated_Source\PSoC5/LCD.c ****         
 564:.\Generated_Source\PSoC5/LCD.c ****         LCD_PutChar((char8) LCD_hex[value >> LCD_BYTE_UPPER_NIBBLE_SHIFT]);
 908              		.loc 1 564 0
 909 000a FB79     		ldrb	r3, [r7, #7]	@ zero_extendqisi2
 910 000c 4FEA1313 		lsr	r3, r3, #4
 911 0010 DBB2     		uxtb	r3, r3
 912 0012 1A46     		mov	r2, r3
 913 0014 40F20003 		movw	r3, #:lower16:LCD_hex.4832
 914 0018 C0F20003 		movt	r3, #:upper16:LCD_hex.4832
 915 001c 9B5C     		ldrb	r3, [r3, r2]	@ zero_extendqisi2
 916 001e 1846     		mov	r0, r3
 917 0020 FFF7FEFF 		bl	LCD_PutChar
ARM GAS  C:\Users\Colin\AppData\Local\Temp\ccgJE83v.s 			page 27


 565:.\Generated_Source\PSoC5/LCD.c ****         LCD_PutChar((char8) LCD_hex[value & LCD_BYTE_LOWER_NIBBLE_MASK]);
 918              		.loc 1 565 0
 919 0024 FB79     		ldrb	r3, [r7, #7]	@ zero_extendqisi2
 920 0026 03F00F02 		and	r2, r3, #15
 921 002a 40F20003 		movw	r3, #:lower16:LCD_hex.4832
 922 002e C0F20003 		movt	r3, #:upper16:LCD_hex.4832
 923 0032 9B5C     		ldrb	r3, [r3, r2]	@ zero_extendqisi2
 924 0034 1846     		mov	r0, r3
 925 0036 FFF7FEFF 		bl	LCD_PutChar
 566:.\Generated_Source\PSoC5/LCD.c ****     }
 926              		.loc 1 566 0
 927 003a 07F10807 		add	r7, r7, #8
 928 003e BD46     		mov	sp, r7
 929 0040 80BD     		pop	{r7, pc}
 930              		.cfi_endproc
 931              	.LFE12:
 932              		.size	LCD_PrintInt8, .-LCD_PrintInt8
 933 0042 00BF     		.section	.text.LCD_PrintInt16,"ax",%progbits
 934              		.align	2
 935              		.global	LCD_PrintInt16
 936              		.thumb
 937              		.thumb_func
 938              		.type	LCD_PrintInt16, %function
 939              	LCD_PrintInt16:
 940              	.LFB13:
 567:.\Generated_Source\PSoC5/LCD.c **** 
 568:.\Generated_Source\PSoC5/LCD.c **** 
 569:.\Generated_Source\PSoC5/LCD.c ****     /*******************************************************************************
 570:.\Generated_Source\PSoC5/LCD.c ****     *  Function Name: LCD_PrintInt16
 571:.\Generated_Source\PSoC5/LCD.c ****     ********************************************************************************
 572:.\Generated_Source\PSoC5/LCD.c ****     *
 573:.\Generated_Source\PSoC5/LCD.c ****     * Summary:
 574:.\Generated_Source\PSoC5/LCD.c ****     *  Print a uint16 as four ASCII characters.
 575:.\Generated_Source\PSoC5/LCD.c ****     *
 576:.\Generated_Source\PSoC5/LCD.c ****     * Parameters:
 577:.\Generated_Source\PSoC5/LCD.c ****     *  value:   The uint16 to be printed out as ASCII characters.
 578:.\Generated_Source\PSoC5/LCD.c ****     *
 579:.\Generated_Source\PSoC5/LCD.c ****     * Return:
 580:.\Generated_Source\PSoC5/LCD.c ****     *  None.
 581:.\Generated_Source\PSoC5/LCD.c ****     *
 582:.\Generated_Source\PSoC5/LCD.c ****     *******************************************************************************/
 583:.\Generated_Source\PSoC5/LCD.c ****     void LCD_PrintInt16(uint16 value) 
 584:.\Generated_Source\PSoC5/LCD.c ****     {
 941              		.loc 1 584 0
 942              		.cfi_startproc
 943              		@ args = 0, pretend = 0, frame = 8
 944              		@ frame_needed = 1, uses_anonymous_args = 0
 945 0000 80B5     		push	{r7, lr}
 946              	.LCFI35:
 947              		.cfi_def_cfa_offset 8
 948              		.cfi_offset 7, -8
 949              		.cfi_offset 14, -4
 950 0002 82B0     		sub	sp, sp, #8
 951              	.LCFI36:
 952              		.cfi_def_cfa_offset 16
 953 0004 00AF     		add	r7, sp, #0
 954              	.LCFI37:
ARM GAS  C:\Users\Colin\AppData\Local\Temp\ccgJE83v.s 			page 28


 955              		.cfi_def_cfa_register 7
 956 0006 0346     		mov	r3, r0
 957 0008 FB80     		strh	r3, [r7, #6]	@ movhi
 585:.\Generated_Source\PSoC5/LCD.c ****         LCD_PrintInt8((uint8)(value >> LCD_U16_UPPER_BYTE_SHIFT));
 958              		.loc 1 585 0
 959 000a FB88     		ldrh	r3, [r7, #6]
 960 000c 4FEA1323 		lsr	r3, r3, #8
 961 0010 9BB2     		uxth	r3, r3
 962 0012 DBB2     		uxtb	r3, r3
 963 0014 1846     		mov	r0, r3
 964 0016 FFF7FEFF 		bl	LCD_PrintInt8
 586:.\Generated_Source\PSoC5/LCD.c ****         LCD_PrintInt8((uint8)(value & LCD_U16_LOWER_BYTE_MASK));
 965              		.loc 1 586 0
 966 001a FB88     		ldrh	r3, [r7, #6]	@ movhi
 967 001c DBB2     		uxtb	r3, r3
 968 001e 1846     		mov	r0, r3
 969 0020 FFF7FEFF 		bl	LCD_PrintInt8
 587:.\Generated_Source\PSoC5/LCD.c ****     }
 970              		.loc 1 587 0
 971 0024 07F10807 		add	r7, r7, #8
 972 0028 BD46     		mov	sp, r7
 973 002a 80BD     		pop	{r7, pc}
 974              		.cfi_endproc
 975              	.LFE13:
 976              		.size	LCD_PrintInt16, .-LCD_PrintInt16
 977              		.section	.text.LCD_PrintNumber,"ax",%progbits
 978              		.align	2
 979              		.global	LCD_PrintNumber
 980              		.thumb
 981              		.thumb_func
 982              		.type	LCD_PrintNumber, %function
 983              	LCD_PrintNumber:
 984              	.LFB14:
 588:.\Generated_Source\PSoC5/LCD.c **** 
 589:.\Generated_Source\PSoC5/LCD.c **** 
 590:.\Generated_Source\PSoC5/LCD.c ****     /*******************************************************************************
 591:.\Generated_Source\PSoC5/LCD.c ****     *  Function Name: LCD_PrintNumber
 592:.\Generated_Source\PSoC5/LCD.c ****     ********************************************************************************
 593:.\Generated_Source\PSoC5/LCD.c ****     *
 594:.\Generated_Source\PSoC5/LCD.c ****     * Summary:
 595:.\Generated_Source\PSoC5/LCD.c ****     *  Print an uint32 value as a left-justified decimal value.
 596:.\Generated_Source\PSoC5/LCD.c ****     *
 597:.\Generated_Source\PSoC5/LCD.c ****     * Parameters:
 598:.\Generated_Source\PSoC5/LCD.c ****     *  value:  The byte to be printed out as ASCII characters.
 599:.\Generated_Source\PSoC5/LCD.c ****     *
 600:.\Generated_Source\PSoC5/LCD.c ****     * Return:
 601:.\Generated_Source\PSoC5/LCD.c ****     *  None.
 602:.\Generated_Source\PSoC5/LCD.c ****     *
 603:.\Generated_Source\PSoC5/LCD.c ****     *******************************************************************************/
 604:.\Generated_Source\PSoC5/LCD.c ****     void LCD_PrintNumber(uint16 value) 
 605:.\Generated_Source\PSoC5/LCD.c ****     {
 985              		.loc 1 605 0
 986              		.cfi_startproc
 987              		@ args = 0, pretend = 0, frame = 24
 988              		@ frame_needed = 1, uses_anonymous_args = 0
 989 0000 80B5     		push	{r7, lr}
 990              	.LCFI38:
ARM GAS  C:\Users\Colin\AppData\Local\Temp\ccgJE83v.s 			page 29


 991              		.cfi_def_cfa_offset 8
 992              		.cfi_offset 7, -8
 993              		.cfi_offset 14, -4
 994 0002 86B0     		sub	sp, sp, #24
 995              	.LCFI39:
 996              		.cfi_def_cfa_offset 32
 997 0004 00AF     		add	r7, sp, #0
 998              	.LCFI40:
 999              		.cfi_def_cfa_register 7
 1000 0006 0346     		mov	r3, r0
 1001 0008 FB80     		strh	r3, [r7, #6]	@ movhi
 606:.\Generated_Source\PSoC5/LCD.c **** 
 607:.\Generated_Source\PSoC5/LCD.c ****         char8 number[LCD_NUMBER_OF_REMAINDERS];
 608:.\Generated_Source\PSoC5/LCD.c ****         char8 temp[LCD_NUMBER_OF_REMAINDERS];
 609:.\Generated_Source\PSoC5/LCD.c **** 
 610:.\Generated_Source\PSoC5/LCD.c ****         uint8 digIndex = 0u;
 1002              		.loc 1 610 0
 1003 000a 4FF00003 		mov	r3, #0
 1004 000e FB75     		strb	r3, [r7, #23]
 611:.\Generated_Source\PSoC5/LCD.c ****         uint8 numDigits;
 612:.\Generated_Source\PSoC5/LCD.c **** 
 613:.\Generated_Source\PSoC5/LCD.c ****         /* Load these in reverse order */
 614:.\Generated_Source\PSoC5/LCD.c ****         while(value >= LCD_TEN)
 1005              		.loc 1 614 0
 1006 0010 28E0     		b	.L28
 1007              	.L29:
 615:.\Generated_Source\PSoC5/LCD.c ****         {
 616:.\Generated_Source\PSoC5/LCD.c ****             temp[digIndex] = (value % LCD_TEN) + '0';
 1008              		.loc 1 616 0
 1009 0012 F87D     		ldrb	r0, [r7, #23]	@ zero_extendqisi2
 1010 0014 FA88     		ldrh	r2, [r7, #6]
 1011 0016 4CF6CD43 		movw	r3, #52429
 1012 001a CCF6CC43 		movt	r3, 52428
 1013 001e A3FB0213 		umull	r1, r3, r3, r2
 1014 0022 4FEAD301 		lsr	r1, r3, #3
 1015 0026 0B46     		mov	r3, r1
 1016 0028 4FEA8303 		lsl	r3, r3, #2
 1017 002c 5B18     		adds	r3, r3, r1
 1018 002e 4FEA4303 		lsl	r3, r3, #1
 1019 0032 D31A     		subs	r3, r2, r3
 1020 0034 9BB2     		uxth	r3, r3
 1021 0036 DBB2     		uxtb	r3, r3
 1022 0038 03F13003 		add	r3, r3, #48
 1023 003c DAB2     		uxtb	r2, r3
 1024 003e 07F11801 		add	r1, r7, #24
 1025 0042 0B18     		adds	r3, r1, r0
 1026 0044 03F8102C 		strb	r2, [r3, #-16]
 617:.\Generated_Source\PSoC5/LCD.c ****             value /= LCD_TEN;
 1027              		.loc 1 617 0
 1028 0048 FA88     		ldrh	r2, [r7, #6]
 1029 004a 4CF6CD43 		movw	r3, #52429
 1030 004e CCF6CC43 		movt	r3, 52428
 1031 0052 A3FB0213 		umull	r1, r3, r3, r2
 1032 0056 4FEAD303 		lsr	r3, r3, #3
 1033 005a FB80     		strh	r3, [r7, #6]	@ movhi
 618:.\Generated_Source\PSoC5/LCD.c ****             digIndex++;
 1034              		.loc 1 618 0
ARM GAS  C:\Users\Colin\AppData\Local\Temp\ccgJE83v.s 			page 30


 1035 005c FB7D     		ldrb	r3, [r7, #23]
 1036 005e 03F10103 		add	r3, r3, #1
 1037 0062 FB75     		strb	r3, [r7, #23]
 1038              	.L28:
 614:.\Generated_Source\PSoC5/LCD.c ****         while(value >= LCD_TEN)
 1039              		.loc 1 614 0 discriminator 1
 1040 0064 FB88     		ldrh	r3, [r7, #6]
 1041 0066 092B     		cmp	r3, #9
 1042 0068 D3D8     		bhi	.L29
 619:.\Generated_Source\PSoC5/LCD.c ****         }
 620:.\Generated_Source\PSoC5/LCD.c **** 
 621:.\Generated_Source\PSoC5/LCD.c ****         temp[digIndex] = (value % LCD_TEN) + '0';
 1043              		.loc 1 621 0
 1044 006a F87D     		ldrb	r0, [r7, #23]	@ zero_extendqisi2
 1045 006c FA88     		ldrh	r2, [r7, #6]
 1046 006e 4CF6CD43 		movw	r3, #52429
 1047 0072 CCF6CC43 		movt	r3, 52428
 1048 0076 A3FB0213 		umull	r1, r3, r3, r2
 1049 007a 4FEAD301 		lsr	r1, r3, #3
 1050 007e 0B46     		mov	r3, r1
 1051 0080 4FEA8303 		lsl	r3, r3, #2
 1052 0084 5B18     		adds	r3, r3, r1
 1053 0086 4FEA4303 		lsl	r3, r3, #1
 1054 008a D31A     		subs	r3, r2, r3
 1055 008c 9BB2     		uxth	r3, r3
 1056 008e DBB2     		uxtb	r3, r3
 1057 0090 03F13003 		add	r3, r3, #48
 1058 0094 DAB2     		uxtb	r2, r3
 1059 0096 07F11801 		add	r1, r7, #24
 1060 009a 0B18     		adds	r3, r1, r0
 1061 009c 03F8102C 		strb	r2, [r3, #-16]
 622:.\Generated_Source\PSoC5/LCD.c ****         numDigits = digIndex;
 1062              		.loc 1 622 0
 1063 00a0 FB7D     		ldrb	r3, [r7, #23]
 1064 00a2 BB75     		strb	r3, [r7, #22]
 623:.\Generated_Source\PSoC5/LCD.c **** 
 624:.\Generated_Source\PSoC5/LCD.c ****         /* While index is greater than or equal to zero copy number
 625:.\Generated_Source\PSoC5/LCD.c ****         * from temporary array to number[].
 626:.\Generated_Source\PSoC5/LCD.c ****         */
 627:.\Generated_Source\PSoC5/LCD.c ****         while (digIndex != 0u)
 1065              		.loc 1 627 0
 1066 00a4 11E0     		b	.L30
 1067              	.L31:
 628:.\Generated_Source\PSoC5/LCD.c ****         {
 629:.\Generated_Source\PSoC5/LCD.c ****             number[numDigits - digIndex] = temp[digIndex];
 1068              		.loc 1 629 0
 1069 00a6 BA7D     		ldrb	r2, [r7, #22]	@ zero_extendqisi2
 1070 00a8 FB7D     		ldrb	r3, [r7, #23]	@ zero_extendqisi2
 1071 00aa D31A     		subs	r3, r2, r3
 1072 00ac FA7D     		ldrb	r2, [r7, #23]	@ zero_extendqisi2
 1073 00ae 07F11801 		add	r1, r7, #24
 1074 00b2 8A18     		adds	r2, r1, r2
 1075 00b4 12F8102C 		ldrb	r2, [r2, #-16]	@ zero_extendqisi2
 1076 00b8 07F11801 		add	r1, r7, #24
 1077 00bc CB18     		adds	r3, r1, r3
 1078 00be 03F8082C 		strb	r2, [r3, #-8]
 630:.\Generated_Source\PSoC5/LCD.c ****             digIndex--;
ARM GAS  C:\Users\Colin\AppData\Local\Temp\ccgJE83v.s 			page 31


 1079              		.loc 1 630 0
 1080 00c2 FB7D     		ldrb	r3, [r7, #23]
 1081 00c4 03F1FF33 		add	r3, r3, #-1
 1082 00c8 FB75     		strb	r3, [r7, #23]
 1083              	.L30:
 627:.\Generated_Source\PSoC5/LCD.c ****         while (digIndex != 0u)
 1084              		.loc 1 627 0 discriminator 1
 1085 00ca FB7D     		ldrb	r3, [r7, #23]	@ zero_extendqisi2
 1086 00cc 002B     		cmp	r3, #0
 1087 00ce EAD1     		bne	.L31
 631:.\Generated_Source\PSoC5/LCD.c ****         }
 632:.\Generated_Source\PSoC5/LCD.c ****         
 633:.\Generated_Source\PSoC5/LCD.c ****         /* Copy last digit */
 634:.\Generated_Source\PSoC5/LCD.c ****         number[numDigits] = temp[0u];
 1088              		.loc 1 634 0
 1089 00d0 BB7D     		ldrb	r3, [r7, #22]	@ zero_extendqisi2
 1090 00d2 3A7A     		ldrb	r2, [r7, #8]	@ zero_extendqisi2
 1091 00d4 07F11801 		add	r1, r7, #24
 1092 00d8 CB18     		adds	r3, r1, r3
 1093 00da 03F8082C 		strb	r2, [r3, #-8]
 635:.\Generated_Source\PSoC5/LCD.c **** 
 636:.\Generated_Source\PSoC5/LCD.c ****         /* Null Termination */
 637:.\Generated_Source\PSoC5/LCD.c ****         number[numDigits + 1u] = (char8) '\0';
 1094              		.loc 1 637 0
 1095 00de BB7D     		ldrb	r3, [r7, #22]	@ zero_extendqisi2
 1096 00e0 03F10103 		add	r3, r3, #1
 1097 00e4 07F11802 		add	r2, r7, #24
 1098 00e8 D318     		adds	r3, r2, r3
 1099 00ea 4FF00002 		mov	r2, #0
 1100 00ee 03F8082C 		strb	r2, [r3, #-8]
 638:.\Generated_Source\PSoC5/LCD.c **** 
 639:.\Generated_Source\PSoC5/LCD.c ****         /* Print out number */
 640:.\Generated_Source\PSoC5/LCD.c ****         LCD_PrintString(&number[0u]);
 1101              		.loc 1 640 0
 1102 00f2 07F11003 		add	r3, r7, #16
 1103 00f6 1846     		mov	r0, r3
 1104 00f8 FFF7FEFF 		bl	LCD_PrintString
 641:.\Generated_Source\PSoC5/LCD.c ****     }
 1105              		.loc 1 641 0
 1106 00fc 07F11807 		add	r7, r7, #24
 1107 0100 BD46     		mov	sp, r7
 1108 0102 80BD     		pop	{r7, pc}
 1109              		.cfi_endproc
 1110              	.LFE14:
 1111              		.size	LCD_PrintNumber, .-LCD_PrintNumber
 1112              		.section	.rodata
 1113              		.align	2
 1114              		.type	LCD_hex.4832, %object
 1115              		.size	LCD_hex.4832, 16
 1116              	LCD_hex.4832:
 1117 0000 30313233 		.ascii	"0123456789ABCDEF"
 1117      34353637 
 1117      38394142 
 1117      43444546 
 1118              		.text
 1119              	.Letext0:
 1120              		.file 2 ".\\Generated_Source\\PSoC5\\cytypes.h"
ARM GAS  C:\Users\Colin\AppData\Local\Temp\ccgJE83v.s 			page 32

