ARM GAS  C:\Users\Colin\AppData\Local\Temp\ccsdXNgY.s 			page 1


   1              		.syntax unified
   2              		.cpu cortex-m3
   3              		.fpu softvfp
   4              		.eabi_attribute 20, 1
   5              		.eabi_attribute 21, 1
   6              		.eabi_attribute 23, 3
   7              		.eabi_attribute 24, 1
   8              		.eabi_attribute 25, 1
   9              		.eabi_attribute 26, 1
  10              		.eabi_attribute 30, 6
  11              		.eabi_attribute 34, 1
  12              		.eabi_attribute 18, 4
  13              		.thumb
  14              		.file	"LCD_LCDPort.c"
  15              		.text
  16              	.Ltext0:
  17              		.cfi_sections	.debug_frame
  18              		.section	.text.LCD_LCDPort_Write,"ax",%progbits
  19              		.align	2
  20              		.global	LCD_LCDPort_Write
  21              		.thumb
  22              		.thumb_func
  23              		.type	LCD_LCDPort_Write, %function
  24              	LCD_LCDPort_Write:
  25              	.LFB0:
  26              		.file 1 ".\\Generated_Source\\PSoC5\\LCD_LCDPort.c"
   1:.\Generated_Source\PSoC5/LCD_LCDPort.c **** /*******************************************************************************
   2:.\Generated_Source\PSoC5/LCD_LCDPort.c **** * File Name: LCD_LCDPort.c  
   3:.\Generated_Source\PSoC5/LCD_LCDPort.c **** * Version 1.90
   4:.\Generated_Source\PSoC5/LCD_LCDPort.c **** *
   5:.\Generated_Source\PSoC5/LCD_LCDPort.c **** * Description:
   6:.\Generated_Source\PSoC5/LCD_LCDPort.c **** *  This file contains API to enable firmware control of a Pins component.
   7:.\Generated_Source\PSoC5/LCD_LCDPort.c **** *
   8:.\Generated_Source\PSoC5/LCD_LCDPort.c **** * Note:
   9:.\Generated_Source\PSoC5/LCD_LCDPort.c **** *
  10:.\Generated_Source\PSoC5/LCD_LCDPort.c **** ********************************************************************************
  11:.\Generated_Source\PSoC5/LCD_LCDPort.c **** * Copyright 2008-2012, Cypress Semiconductor Corporation.  All rights reserved.
  12:.\Generated_Source\PSoC5/LCD_LCDPort.c **** * You may use this file only in accordance with the license, terms, conditions, 
  13:.\Generated_Source\PSoC5/LCD_LCDPort.c **** * disclaimers, and limitations in the end user license agreement accompanying 
  14:.\Generated_Source\PSoC5/LCD_LCDPort.c **** * the software package with which this file was provided.
  15:.\Generated_Source\PSoC5/LCD_LCDPort.c **** *******************************************************************************/
  16:.\Generated_Source\PSoC5/LCD_LCDPort.c **** 
  17:.\Generated_Source\PSoC5/LCD_LCDPort.c **** #include "cytypes.h"
  18:.\Generated_Source\PSoC5/LCD_LCDPort.c **** #include "LCD_LCDPort.h"
  19:.\Generated_Source\PSoC5/LCD_LCDPort.c **** 
  20:.\Generated_Source\PSoC5/LCD_LCDPort.c **** /* APIs are not generated for P15[7:6] on PSoC 5 */
  21:.\Generated_Source\PSoC5/LCD_LCDPort.c **** #if !(CY_PSOC5A &&\
  22:.\Generated_Source\PSoC5/LCD_LCDPort.c **** 	 LCD_LCDPort__PORT == 15 && ((LCD_LCDPort__MASK & 0xC0) != 0))
  23:.\Generated_Source\PSoC5/LCD_LCDPort.c **** 
  24:.\Generated_Source\PSoC5/LCD_LCDPort.c **** 
  25:.\Generated_Source\PSoC5/LCD_LCDPort.c **** /*******************************************************************************
  26:.\Generated_Source\PSoC5/LCD_LCDPort.c **** * Function Name: LCD_LCDPort_Write
  27:.\Generated_Source\PSoC5/LCD_LCDPort.c **** ********************************************************************************
  28:.\Generated_Source\PSoC5/LCD_LCDPort.c **** *
  29:.\Generated_Source\PSoC5/LCD_LCDPort.c **** * Summary:
  30:.\Generated_Source\PSoC5/LCD_LCDPort.c **** *  Assign a new value to the digital port's data output register.  
  31:.\Generated_Source\PSoC5/LCD_LCDPort.c **** *
ARM GAS  C:\Users\Colin\AppData\Local\Temp\ccsdXNgY.s 			page 2


  32:.\Generated_Source\PSoC5/LCD_LCDPort.c **** * Parameters:  
  33:.\Generated_Source\PSoC5/LCD_LCDPort.c **** *  prtValue:  The value to be assigned to the Digital Port. 
  34:.\Generated_Source\PSoC5/LCD_LCDPort.c **** *
  35:.\Generated_Source\PSoC5/LCD_LCDPort.c **** * Return: 
  36:.\Generated_Source\PSoC5/LCD_LCDPort.c **** *  None
  37:.\Generated_Source\PSoC5/LCD_LCDPort.c **** *  
  38:.\Generated_Source\PSoC5/LCD_LCDPort.c **** *******************************************************************************/
  39:.\Generated_Source\PSoC5/LCD_LCDPort.c **** void LCD_LCDPort_Write(uint8 value) 
  40:.\Generated_Source\PSoC5/LCD_LCDPort.c **** {
  27              		.loc 1 40 0
  28              		.cfi_startproc
  29              		@ args = 0, pretend = 0, frame = 16
  30              		@ frame_needed = 1, uses_anonymous_args = 0
  31              		@ link register save eliminated.
  32 0000 80B4     		push	{r7}
  33              	.LCFI0:
  34              		.cfi_def_cfa_offset 4
  35              		.cfi_offset 7, -4
  36 0002 85B0     		sub	sp, sp, #20
  37              	.LCFI1:
  38              		.cfi_def_cfa_offset 24
  39 0004 00AF     		add	r7, sp, #0
  40              	.LCFI2:
  41              		.cfi_def_cfa_register 7
  42 0006 0346     		mov	r3, r0
  43 0008 FB71     		strb	r3, [r7, #7]
  41:.\Generated_Source\PSoC5/LCD_LCDPort.c ****     uint8 staticBits = (LCD_LCDPort_DR & (uint8)(~LCD_LCDPort_MASK));
  44              		.loc 1 41 0
  45 000a 45F22013 		movw	r3, #20768
  46 000e C4F20003 		movt	r3, 16384
  47 0012 1B78     		ldrb	r3, [r3, #0]
  48 0014 DBB2     		uxtb	r3, r3
  49 0016 23F07F03 		bic	r3, r3, #127
  50 001a FB73     		strb	r3, [r7, #15]
  42:.\Generated_Source\PSoC5/LCD_LCDPort.c ****     LCD_LCDPort_DR = staticBits | ((uint8)(value << LCD_LCDPort_SHIFT) & LCD_LCDPort_MASK);
  51              		.loc 1 42 0
  52 001c 45F22013 		movw	r3, #20768
  53 0020 C4F20003 		movt	r3, 16384
  54 0024 FA79     		ldrb	r2, [r7, #7]
  55 0026 02F07F02 		and	r2, r2, #127
  56 002a D1B2     		uxtb	r1, r2
  57 002c FA7B     		ldrb	r2, [r7, #15]
  58 002e 0A43     		orrs	r2, r2, r1
  59 0030 D2B2     		uxtb	r2, r2
  60 0032 1A70     		strb	r2, [r3, #0]
  43:.\Generated_Source\PSoC5/LCD_LCDPort.c **** }
  61              		.loc 1 43 0
  62 0034 07F11407 		add	r7, r7, #20
  63 0038 BD46     		mov	sp, r7
  64 003a 80BC     		pop	{r7}
  65 003c 7047     		bx	lr
  66              		.cfi_endproc
  67              	.LFE0:
  68              		.size	LCD_LCDPort_Write, .-LCD_LCDPort_Write
  69 003e 00BF     		.section	.text.LCD_LCDPort_SetDriveMode,"ax",%progbits
  70              		.align	2
  71              		.global	LCD_LCDPort_SetDriveMode
ARM GAS  C:\Users\Colin\AppData\Local\Temp\ccsdXNgY.s 			page 3


  72              		.thumb
  73              		.thumb_func
  74              		.type	LCD_LCDPort_SetDriveMode, %function
  75              	LCD_LCDPort_SetDriveMode:
  76              	.LFB1:
  44:.\Generated_Source\PSoC5/LCD_LCDPort.c **** 
  45:.\Generated_Source\PSoC5/LCD_LCDPort.c **** 
  46:.\Generated_Source\PSoC5/LCD_LCDPort.c **** /*******************************************************************************
  47:.\Generated_Source\PSoC5/LCD_LCDPort.c **** * Function Name: LCD_LCDPort_SetDriveMode
  48:.\Generated_Source\PSoC5/LCD_LCDPort.c **** ********************************************************************************
  49:.\Generated_Source\PSoC5/LCD_LCDPort.c **** *
  50:.\Generated_Source\PSoC5/LCD_LCDPort.c **** * Summary:
  51:.\Generated_Source\PSoC5/LCD_LCDPort.c **** *  Change the drive mode on the pins of the port.
  52:.\Generated_Source\PSoC5/LCD_LCDPort.c **** * 
  53:.\Generated_Source\PSoC5/LCD_LCDPort.c **** * Parameters:  
  54:.\Generated_Source\PSoC5/LCD_LCDPort.c **** *  mode:  Change the pins to this drive mode.
  55:.\Generated_Source\PSoC5/LCD_LCDPort.c **** *
  56:.\Generated_Source\PSoC5/LCD_LCDPort.c **** * Return: 
  57:.\Generated_Source\PSoC5/LCD_LCDPort.c **** *  None
  58:.\Generated_Source\PSoC5/LCD_LCDPort.c **** *
  59:.\Generated_Source\PSoC5/LCD_LCDPort.c **** *******************************************************************************/
  60:.\Generated_Source\PSoC5/LCD_LCDPort.c **** void LCD_LCDPort_SetDriveMode(uint8 mode) 
  61:.\Generated_Source\PSoC5/LCD_LCDPort.c **** {
  77              		.loc 1 61 0
  78              		.cfi_startproc
  79              		@ args = 0, pretend = 0, frame = 8
  80              		@ frame_needed = 1, uses_anonymous_args = 0
  81              		@ link register save eliminated.
  82 0000 80B4     		push	{r7}
  83              	.LCFI3:
  84              		.cfi_def_cfa_offset 4
  85              		.cfi_offset 7, -4
  86 0002 83B0     		sub	sp, sp, #12
  87              	.LCFI4:
  88              		.cfi_def_cfa_offset 16
  89 0004 00AF     		add	r7, sp, #0
  90              	.LCFI5:
  91              		.cfi_def_cfa_register 7
  92 0006 0346     		mov	r3, r0
  93 0008 FB71     		strb	r3, [r7, #7]
  62:.\Generated_Source\PSoC5/LCD_LCDPort.c **** 	CyPins_SetPinDriveMode(LCD_LCDPort_0, mode);
  94              		.loc 1 62 0
  95 000a 45F21003 		movw	r3, #20496
  96 000e C4F20003 		movt	r3, 16384
  97 0012 45F21002 		movw	r2, #20496
  98 0016 C4F20002 		movt	r2, 16384
  99 001a 1278     		ldrb	r2, [r2, #0]
 100 001c D2B2     		uxtb	r2, r2
 101 001e D2B2     		uxtb	r2, r2
 102 0020 22F00E02 		bic	r2, r2, #14
 103 0024 D1B2     		uxtb	r1, r2
 104 0026 FA79     		ldrb	r2, [r7, #7]	@ zero_extendqisi2
 105 0028 02F00E02 		and	r2, r2, #14
 106 002c D2B2     		uxtb	r2, r2
 107 002e 0A43     		orrs	r2, r2, r1
 108 0030 D2B2     		uxtb	r2, r2
 109 0032 D2B2     		uxtb	r2, r2
ARM GAS  C:\Users\Colin\AppData\Local\Temp\ccsdXNgY.s 			page 4


 110 0034 1A70     		strb	r2, [r3, #0]
  63:.\Generated_Source\PSoC5/LCD_LCDPort.c **** 	CyPins_SetPinDriveMode(LCD_LCDPort_1, mode);
 111              		.loc 1 63 0
 112 0036 45F21103 		movw	r3, #20497
 113 003a C4F20003 		movt	r3, 16384
 114 003e 45F21102 		movw	r2, #20497
 115 0042 C4F20002 		movt	r2, 16384
 116 0046 1278     		ldrb	r2, [r2, #0]
 117 0048 D2B2     		uxtb	r2, r2
 118 004a D2B2     		uxtb	r2, r2
 119 004c 22F00E02 		bic	r2, r2, #14
 120 0050 D1B2     		uxtb	r1, r2
 121 0052 FA79     		ldrb	r2, [r7, #7]	@ zero_extendqisi2
 122 0054 02F00E02 		and	r2, r2, #14
 123 0058 D2B2     		uxtb	r2, r2
 124 005a 0A43     		orrs	r2, r2, r1
 125 005c D2B2     		uxtb	r2, r2
 126 005e D2B2     		uxtb	r2, r2
 127 0060 1A70     		strb	r2, [r3, #0]
  64:.\Generated_Source\PSoC5/LCD_LCDPort.c **** 	CyPins_SetPinDriveMode(LCD_LCDPort_2, mode);
 128              		.loc 1 64 0
 129 0062 45F21203 		movw	r3, #20498
 130 0066 C4F20003 		movt	r3, 16384
 131 006a 45F21202 		movw	r2, #20498
 132 006e C4F20002 		movt	r2, 16384
 133 0072 1278     		ldrb	r2, [r2, #0]
 134 0074 D2B2     		uxtb	r2, r2
 135 0076 D2B2     		uxtb	r2, r2
 136 0078 22F00E02 		bic	r2, r2, #14
 137 007c D1B2     		uxtb	r1, r2
 138 007e FA79     		ldrb	r2, [r7, #7]	@ zero_extendqisi2
 139 0080 02F00E02 		and	r2, r2, #14
 140 0084 D2B2     		uxtb	r2, r2
 141 0086 0A43     		orrs	r2, r2, r1
 142 0088 D2B2     		uxtb	r2, r2
 143 008a D2B2     		uxtb	r2, r2
 144 008c 1A70     		strb	r2, [r3, #0]
  65:.\Generated_Source\PSoC5/LCD_LCDPort.c **** 	CyPins_SetPinDriveMode(LCD_LCDPort_3, mode);
 145              		.loc 1 65 0
 146 008e 45F21303 		movw	r3, #20499
 147 0092 C4F20003 		movt	r3, 16384
 148 0096 45F21302 		movw	r2, #20499
 149 009a C4F20002 		movt	r2, 16384
 150 009e 1278     		ldrb	r2, [r2, #0]
 151 00a0 D2B2     		uxtb	r2, r2
 152 00a2 D2B2     		uxtb	r2, r2
 153 00a4 22F00E02 		bic	r2, r2, #14
 154 00a8 D1B2     		uxtb	r1, r2
 155 00aa FA79     		ldrb	r2, [r7, #7]	@ zero_extendqisi2
 156 00ac 02F00E02 		and	r2, r2, #14
 157 00b0 D2B2     		uxtb	r2, r2
 158 00b2 0A43     		orrs	r2, r2, r1
 159 00b4 D2B2     		uxtb	r2, r2
 160 00b6 D2B2     		uxtb	r2, r2
 161 00b8 1A70     		strb	r2, [r3, #0]
  66:.\Generated_Source\PSoC5/LCD_LCDPort.c **** 	CyPins_SetPinDriveMode(LCD_LCDPort_4, mode);
 162              		.loc 1 66 0
ARM GAS  C:\Users\Colin\AppData\Local\Temp\ccsdXNgY.s 			page 5


 163 00ba 45F21403 		movw	r3, #20500
 164 00be C4F20003 		movt	r3, 16384
 165 00c2 45F21402 		movw	r2, #20500
 166 00c6 C4F20002 		movt	r2, 16384
 167 00ca 1278     		ldrb	r2, [r2, #0]
 168 00cc D2B2     		uxtb	r2, r2
 169 00ce D2B2     		uxtb	r2, r2
 170 00d0 22F00E02 		bic	r2, r2, #14
 171 00d4 D1B2     		uxtb	r1, r2
 172 00d6 FA79     		ldrb	r2, [r7, #7]	@ zero_extendqisi2
 173 00d8 02F00E02 		and	r2, r2, #14
 174 00dc D2B2     		uxtb	r2, r2
 175 00de 0A43     		orrs	r2, r2, r1
 176 00e0 D2B2     		uxtb	r2, r2
 177 00e2 D2B2     		uxtb	r2, r2
 178 00e4 1A70     		strb	r2, [r3, #0]
  67:.\Generated_Source\PSoC5/LCD_LCDPort.c **** 	CyPins_SetPinDriveMode(LCD_LCDPort_5, mode);
 179              		.loc 1 67 0
 180 00e6 45F21503 		movw	r3, #20501
 181 00ea C4F20003 		movt	r3, 16384
 182 00ee 45F21502 		movw	r2, #20501
 183 00f2 C4F20002 		movt	r2, 16384
 184 00f6 1278     		ldrb	r2, [r2, #0]
 185 00f8 D2B2     		uxtb	r2, r2
 186 00fa D2B2     		uxtb	r2, r2
 187 00fc 22F00E02 		bic	r2, r2, #14
 188 0100 D1B2     		uxtb	r1, r2
 189 0102 FA79     		ldrb	r2, [r7, #7]	@ zero_extendqisi2
 190 0104 02F00E02 		and	r2, r2, #14
 191 0108 D2B2     		uxtb	r2, r2
 192 010a 0A43     		orrs	r2, r2, r1
 193 010c D2B2     		uxtb	r2, r2
 194 010e D2B2     		uxtb	r2, r2
 195 0110 1A70     		strb	r2, [r3, #0]
  68:.\Generated_Source\PSoC5/LCD_LCDPort.c **** 	CyPins_SetPinDriveMode(LCD_LCDPort_6, mode);
 196              		.loc 1 68 0
 197 0112 45F21603 		movw	r3, #20502
 198 0116 C4F20003 		movt	r3, 16384
 199 011a 45F21602 		movw	r2, #20502
 200 011e C4F20002 		movt	r2, 16384
 201 0122 1278     		ldrb	r2, [r2, #0]
 202 0124 D2B2     		uxtb	r2, r2
 203 0126 D2B2     		uxtb	r2, r2
 204 0128 22F00E02 		bic	r2, r2, #14
 205 012c D1B2     		uxtb	r1, r2
 206 012e FA79     		ldrb	r2, [r7, #7]	@ zero_extendqisi2
 207 0130 02F00E02 		and	r2, r2, #14
 208 0134 D2B2     		uxtb	r2, r2
 209 0136 0A43     		orrs	r2, r2, r1
 210 0138 D2B2     		uxtb	r2, r2
 211 013a D2B2     		uxtb	r2, r2
 212 013c 1A70     		strb	r2, [r3, #0]
  69:.\Generated_Source\PSoC5/LCD_LCDPort.c **** }
 213              		.loc 1 69 0
 214 013e 07F10C07 		add	r7, r7, #12
 215 0142 BD46     		mov	sp, r7
 216 0144 80BC     		pop	{r7}
ARM GAS  C:\Users\Colin\AppData\Local\Temp\ccsdXNgY.s 			page 6


 217 0146 7047     		bx	lr
 218              		.cfi_endproc
 219              	.LFE1:
 220              		.size	LCD_LCDPort_SetDriveMode, .-LCD_LCDPort_SetDriveMode
 221              		.section	.text.LCD_LCDPort_Read,"ax",%progbits
 222              		.align	2
 223              		.global	LCD_LCDPort_Read
 224              		.thumb
 225              		.thumb_func
 226              		.type	LCD_LCDPort_Read, %function
 227              	LCD_LCDPort_Read:
 228              	.LFB2:
  70:.\Generated_Source\PSoC5/LCD_LCDPort.c **** 
  71:.\Generated_Source\PSoC5/LCD_LCDPort.c **** 
  72:.\Generated_Source\PSoC5/LCD_LCDPort.c **** /*******************************************************************************
  73:.\Generated_Source\PSoC5/LCD_LCDPort.c **** * Function Name: LCD_LCDPort_Read
  74:.\Generated_Source\PSoC5/LCD_LCDPort.c **** ********************************************************************************
  75:.\Generated_Source\PSoC5/LCD_LCDPort.c **** *
  76:.\Generated_Source\PSoC5/LCD_LCDPort.c **** * Summary:
  77:.\Generated_Source\PSoC5/LCD_LCDPort.c **** *  Read the current value on the pins of the Digital Port in right justified 
  78:.\Generated_Source\PSoC5/LCD_LCDPort.c **** *  form.
  79:.\Generated_Source\PSoC5/LCD_LCDPort.c **** *
  80:.\Generated_Source\PSoC5/LCD_LCDPort.c **** * Parameters:  
  81:.\Generated_Source\PSoC5/LCD_LCDPort.c **** *  None
  82:.\Generated_Source\PSoC5/LCD_LCDPort.c **** *
  83:.\Generated_Source\PSoC5/LCD_LCDPort.c **** * Return: 
  84:.\Generated_Source\PSoC5/LCD_LCDPort.c **** *  Returns the current value of the Digital Port as a right justified number
  85:.\Generated_Source\PSoC5/LCD_LCDPort.c **** *  
  86:.\Generated_Source\PSoC5/LCD_LCDPort.c **** * Note:
  87:.\Generated_Source\PSoC5/LCD_LCDPort.c **** *  Macro LCD_LCDPort_ReadPS calls this function. 
  88:.\Generated_Source\PSoC5/LCD_LCDPort.c **** *  
  89:.\Generated_Source\PSoC5/LCD_LCDPort.c **** *******************************************************************************/
  90:.\Generated_Source\PSoC5/LCD_LCDPort.c **** uint8 LCD_LCDPort_Read(void) 
  91:.\Generated_Source\PSoC5/LCD_LCDPort.c **** {
 229              		.loc 1 91 0
 230              		.cfi_startproc
 231              		@ args = 0, pretend = 0, frame = 0
 232              		@ frame_needed = 1, uses_anonymous_args = 0
 233              		@ link register save eliminated.
 234 0000 80B4     		push	{r7}
 235              	.LCFI6:
 236              		.cfi_def_cfa_offset 4
 237              		.cfi_offset 7, -4
 238 0002 00AF     		add	r7, sp, #0
 239              	.LCFI7:
 240              		.cfi_def_cfa_register 7
  92:.\Generated_Source\PSoC5/LCD_LCDPort.c ****     return (LCD_LCDPort_PS & LCD_LCDPort_MASK) >> LCD_LCDPort_SHIFT;
 241              		.loc 1 92 0
 242 0004 45F22113 		movw	r3, #20769
 243 0008 C4F20003 		movt	r3, 16384
 244 000c 1B78     		ldrb	r3, [r3, #0]
 245 000e DBB2     		uxtb	r3, r3
 246 0010 03F07F03 		and	r3, r3, #127
 247 0014 DBB2     		uxtb	r3, r3
  93:.\Generated_Source\PSoC5/LCD_LCDPort.c **** }
 248              		.loc 1 93 0
 249 0016 1846     		mov	r0, r3
ARM GAS  C:\Users\Colin\AppData\Local\Temp\ccsdXNgY.s 			page 7


 250 0018 BD46     		mov	sp, r7
 251 001a 80BC     		pop	{r7}
 252 001c 7047     		bx	lr
 253              		.cfi_endproc
 254              	.LFE2:
 255              		.size	LCD_LCDPort_Read, .-LCD_LCDPort_Read
 256 001e 00BF     		.section	.text.LCD_LCDPort_ReadDataReg,"ax",%progbits
 257              		.align	2
 258              		.global	LCD_LCDPort_ReadDataReg
 259              		.thumb
 260              		.thumb_func
 261              		.type	LCD_LCDPort_ReadDataReg, %function
 262              	LCD_LCDPort_ReadDataReg:
 263              	.LFB3:
  94:.\Generated_Source\PSoC5/LCD_LCDPort.c **** 
  95:.\Generated_Source\PSoC5/LCD_LCDPort.c **** 
  96:.\Generated_Source\PSoC5/LCD_LCDPort.c **** /*******************************************************************************
  97:.\Generated_Source\PSoC5/LCD_LCDPort.c **** * Function Name: LCD_LCDPort_ReadDataReg
  98:.\Generated_Source\PSoC5/LCD_LCDPort.c **** ********************************************************************************
  99:.\Generated_Source\PSoC5/LCD_LCDPort.c **** *
 100:.\Generated_Source\PSoC5/LCD_LCDPort.c **** * Summary:
 101:.\Generated_Source\PSoC5/LCD_LCDPort.c **** *  Read the current value assigned to a Digital Port's data output register
 102:.\Generated_Source\PSoC5/LCD_LCDPort.c **** *
 103:.\Generated_Source\PSoC5/LCD_LCDPort.c **** * Parameters:  
 104:.\Generated_Source\PSoC5/LCD_LCDPort.c **** *  None 
 105:.\Generated_Source\PSoC5/LCD_LCDPort.c **** *
 106:.\Generated_Source\PSoC5/LCD_LCDPort.c **** * Return: 
 107:.\Generated_Source\PSoC5/LCD_LCDPort.c **** *  Returns the current value assigned to the Digital Port's data output register
 108:.\Generated_Source\PSoC5/LCD_LCDPort.c **** *  
 109:.\Generated_Source\PSoC5/LCD_LCDPort.c **** *******************************************************************************/
 110:.\Generated_Source\PSoC5/LCD_LCDPort.c **** uint8 LCD_LCDPort_ReadDataReg(void) 
 111:.\Generated_Source\PSoC5/LCD_LCDPort.c **** {
 264              		.loc 1 111 0
 265              		.cfi_startproc
 266              		@ args = 0, pretend = 0, frame = 0
 267              		@ frame_needed = 1, uses_anonymous_args = 0
 268              		@ link register save eliminated.
 269 0000 80B4     		push	{r7}
 270              	.LCFI8:
 271              		.cfi_def_cfa_offset 4
 272              		.cfi_offset 7, -4
 273 0002 00AF     		add	r7, sp, #0
 274              	.LCFI9:
 275              		.cfi_def_cfa_register 7
 112:.\Generated_Source\PSoC5/LCD_LCDPort.c ****     return (LCD_LCDPort_DR & LCD_LCDPort_MASK) >> LCD_LCDPort_SHIFT;
 276              		.loc 1 112 0
 277 0004 45F22013 		movw	r3, #20768
 278 0008 C4F20003 		movt	r3, 16384
 279 000c 1B78     		ldrb	r3, [r3, #0]
 280 000e DBB2     		uxtb	r3, r3
 281 0010 03F07F03 		and	r3, r3, #127
 282 0014 DBB2     		uxtb	r3, r3
 113:.\Generated_Source\PSoC5/LCD_LCDPort.c **** }
 283              		.loc 1 113 0
 284 0016 1846     		mov	r0, r3
 285 0018 BD46     		mov	sp, r7
 286 001a 80BC     		pop	{r7}
ARM GAS  C:\Users\Colin\AppData\Local\Temp\ccsdXNgY.s 			page 8


 287 001c 7047     		bx	lr
 288              		.cfi_endproc
 289              	.LFE3:
 290              		.size	LCD_LCDPort_ReadDataReg, .-LCD_LCDPort_ReadDataReg
 291 001e 00BF     		.text
 292              	.Letext0:
 293              		.file 2 ".\\Generated_Source\\PSoC5\\cytypes.h"