ARM GAS  C:\Users\Colin\AppData\Local\Temp\ccfBmISG.s 			page 1


   1              		.syntax unified
   2              		.cpu cortex-m3
   3              		.fpu softvfp
   4              		.eabi_attribute 20, 1
   5              		.eabi_attribute 21, 1
   6              		.eabi_attribute 23, 3
   7              		.eabi_attribute 24, 1
   8              		.eabi_attribute 25, 1
   9              		.eabi_attribute 26, 1
  10              		.eabi_attribute 30, 6
  11              		.eabi_attribute 34, 1
  12              		.eabi_attribute 18, 4
  13              		.thumb
  14              		.file	"Poll_Timer.c"
  15              		.text
  16              	.Ltext0:
  17              		.cfi_sections	.debug_frame
  18              		.global	Poll_Timer_initVar
  19              		.bss
  20              		.type	Poll_Timer_initVar, %object
  21              		.size	Poll_Timer_initVar, 1
  22              	Poll_Timer_initVar:
  23 0000 00       		.space	1
  24              		.section	.text.Poll_Timer_Init,"ax",%progbits
  25              		.align	2
  26              		.global	Poll_Timer_Init
  27              		.thumb
  28              		.thumb_func
  29              		.type	Poll_Timer_Init, %function
  30              	Poll_Timer_Init:
  31              	.LFB0:
  32              		.file 1 ".\\Generated_Source\\PSoC5\\Poll_Timer.c"
   1:.\Generated_Source\PSoC5/Poll_Timer.c **** /*******************************************************************************
   2:.\Generated_Source\PSoC5/Poll_Timer.c **** * File Name: Poll_Timer.c
   3:.\Generated_Source\PSoC5/Poll_Timer.c **** * Version 2.50
   4:.\Generated_Source\PSoC5/Poll_Timer.c **** *
   5:.\Generated_Source\PSoC5/Poll_Timer.c **** * Description:
   6:.\Generated_Source\PSoC5/Poll_Timer.c **** *  The Timer component consists of a 8, 16, 24 or 32-bit timer with
   7:.\Generated_Source\PSoC5/Poll_Timer.c **** *  a selectable period between 2 and 2^Width - 1.  The timer may free run
   8:.\Generated_Source\PSoC5/Poll_Timer.c **** *  or be used as a capture timer as well.  The capture can be initiated
   9:.\Generated_Source\PSoC5/Poll_Timer.c **** *  by a positive or negative edge signal as well as via software.
  10:.\Generated_Source\PSoC5/Poll_Timer.c **** *  A trigger input can be programmed to enable the timer on rising edge
  11:.\Generated_Source\PSoC5/Poll_Timer.c **** *  falling edge, either edge or continous run.
  12:.\Generated_Source\PSoC5/Poll_Timer.c **** *  Interrupts may be generated due to a terminal count condition
  13:.\Generated_Source\PSoC5/Poll_Timer.c **** *  or a capture event.
  14:.\Generated_Source\PSoC5/Poll_Timer.c **** *
  15:.\Generated_Source\PSoC5/Poll_Timer.c **** * Note:
  16:.\Generated_Source\PSoC5/Poll_Timer.c **** *
  17:.\Generated_Source\PSoC5/Poll_Timer.c **** ********************************************************************************
  18:.\Generated_Source\PSoC5/Poll_Timer.c **** * Copyright 2008-2012, Cypress Semiconductor Corporation.  All rights reserved.
  19:.\Generated_Source\PSoC5/Poll_Timer.c **** * You may use this file only in accordance with the license, terms, conditions,
  20:.\Generated_Source\PSoC5/Poll_Timer.c **** * disclaimers, and limitations in the end user license agreement accompanying
  21:.\Generated_Source\PSoC5/Poll_Timer.c **** * the software package with which this file was provided.
  22:.\Generated_Source\PSoC5/Poll_Timer.c **** ********************************************************************************/
  23:.\Generated_Source\PSoC5/Poll_Timer.c **** 
  24:.\Generated_Source\PSoC5/Poll_Timer.c **** #include "Poll_Timer.h"
  25:.\Generated_Source\PSoC5/Poll_Timer.c **** 
ARM GAS  C:\Users\Colin\AppData\Local\Temp\ccfBmISG.s 			page 2


  26:.\Generated_Source\PSoC5/Poll_Timer.c **** uint8 Poll_Timer_initVar = 0u;
  27:.\Generated_Source\PSoC5/Poll_Timer.c **** 
  28:.\Generated_Source\PSoC5/Poll_Timer.c **** 
  29:.\Generated_Source\PSoC5/Poll_Timer.c **** /*******************************************************************************
  30:.\Generated_Source\PSoC5/Poll_Timer.c **** * Function Name: Poll_Timer_Init
  31:.\Generated_Source\PSoC5/Poll_Timer.c **** ********************************************************************************
  32:.\Generated_Source\PSoC5/Poll_Timer.c **** *
  33:.\Generated_Source\PSoC5/Poll_Timer.c **** * Summary:
  34:.\Generated_Source\PSoC5/Poll_Timer.c **** *  Initialize to the schematic state
  35:.\Generated_Source\PSoC5/Poll_Timer.c **** *
  36:.\Generated_Source\PSoC5/Poll_Timer.c **** * Parameters:
  37:.\Generated_Source\PSoC5/Poll_Timer.c **** *  void
  38:.\Generated_Source\PSoC5/Poll_Timer.c **** *
  39:.\Generated_Source\PSoC5/Poll_Timer.c **** * Return:
  40:.\Generated_Source\PSoC5/Poll_Timer.c **** *  void
  41:.\Generated_Source\PSoC5/Poll_Timer.c **** *
  42:.\Generated_Source\PSoC5/Poll_Timer.c **** *******************************************************************************/
  43:.\Generated_Source\PSoC5/Poll_Timer.c **** void Poll_Timer_Init(void) 
  44:.\Generated_Source\PSoC5/Poll_Timer.c **** {
  33              		.loc 1 44 0
  34              		.cfi_startproc
  35              		@ args = 0, pretend = 0, frame = 8
  36              		@ frame_needed = 1, uses_anonymous_args = 0
  37 0000 80B5     		push	{r7, lr}
  38              	.LCFI0:
  39              		.cfi_def_cfa_offset 8
  40              		.cfi_offset 7, -8
  41              		.cfi_offset 14, -4
  42 0002 82B0     		sub	sp, sp, #8
  43              	.LCFI1:
  44              		.cfi_def_cfa_offset 16
  45 0004 00AF     		add	r7, sp, #0
  46              	.LCFI2:
  47              		.cfi_def_cfa_register 7
  45:.\Generated_Source\PSoC5/Poll_Timer.c ****     #if(!Poll_Timer_UsingFixedFunction)
  46:.\Generated_Source\PSoC5/Poll_Timer.c ****             /* Interrupt State Backup for Critical Region*/
  47:.\Generated_Source\PSoC5/Poll_Timer.c ****             uint8 Poll_Timer_interruptState;
  48:.\Generated_Source\PSoC5/Poll_Timer.c ****     #endif /* Interrupt state back up for Fixed Function only */
  49:.\Generated_Source\PSoC5/Poll_Timer.c **** 
  50:.\Generated_Source\PSoC5/Poll_Timer.c ****     #if (Poll_Timer_UsingFixedFunction)
  51:.\Generated_Source\PSoC5/Poll_Timer.c ****         /* Clear all bits but the enable bit (if it's already set) for Timer operation */
  52:.\Generated_Source\PSoC5/Poll_Timer.c ****         Poll_Timer_CONTROL &= Poll_Timer_CTRL_ENABLE;
  53:.\Generated_Source\PSoC5/Poll_Timer.c **** 
  54:.\Generated_Source\PSoC5/Poll_Timer.c ****         /* Clear the mode bits for continuous run mode */
  55:.\Generated_Source\PSoC5/Poll_Timer.c ****         #if (CY_PSOC5A)
  56:.\Generated_Source\PSoC5/Poll_Timer.c ****             Poll_Timer_CONTROL2 &= ((uint8)(~Poll_Timer_CTRL_MODE_MASK));
  57:.\Generated_Source\PSoC5/Poll_Timer.c ****         #endif /* Clear bits in CONTROL2 only in PSOC5A */
  58:.\Generated_Source\PSoC5/Poll_Timer.c **** 
  59:.\Generated_Source\PSoC5/Poll_Timer.c ****         #if (CY_PSOC3 || CY_PSOC5LP)
  60:.\Generated_Source\PSoC5/Poll_Timer.c ****             Poll_Timer_CONTROL3 &= ((uint8)(~Poll_Timer_CTRL_MODE_MASK));
  61:.\Generated_Source\PSoC5/Poll_Timer.c ****         #endif /* CONTROL3 register exists only in PSoC3 OR PSoC5LP */
  62:.\Generated_Source\PSoC5/Poll_Timer.c **** 
  63:.\Generated_Source\PSoC5/Poll_Timer.c ****         /* Check if One Shot mode is enabled i.e. RunMode !=0*/
  64:.\Generated_Source\PSoC5/Poll_Timer.c ****         #if (Poll_Timer_RunModeUsed != 0x0u)
  65:.\Generated_Source\PSoC5/Poll_Timer.c ****             /* Set 3rd bit of Control register to enable one shot mode */
  66:.\Generated_Source\PSoC5/Poll_Timer.c ****             Poll_Timer_CONTROL |= 0x04u;
  67:.\Generated_Source\PSoC5/Poll_Timer.c ****         #endif /* One Shot enabled only when RunModeUsed is not Continuous*/
ARM GAS  C:\Users\Colin\AppData\Local\Temp\ccfBmISG.s 			page 3


  68:.\Generated_Source\PSoC5/Poll_Timer.c **** 
  69:.\Generated_Source\PSoC5/Poll_Timer.c ****         #if (Poll_Timer_RunModeUsed == 2)
  70:.\Generated_Source\PSoC5/Poll_Timer.c ****             #if (CY_PSOC5A)
  71:.\Generated_Source\PSoC5/Poll_Timer.c ****                 /* Set last 2 bits of control2 register if one shot(halt on
  72:.\Generated_Source\PSoC5/Poll_Timer.c ****                 interrupt) is enabled*/
  73:.\Generated_Source\PSoC5/Poll_Timer.c ****                 Poll_Timer_CONTROL2 |= 0x03u;
  74:.\Generated_Source\PSoC5/Poll_Timer.c ****             #endif /* Set One-Shot Halt on Interrupt bit in CONTROL2 for PSoC5A */
  75:.\Generated_Source\PSoC5/Poll_Timer.c **** 
  76:.\Generated_Source\PSoC5/Poll_Timer.c ****             #if (CY_PSOC3 || CY_PSOC5LP)
  77:.\Generated_Source\PSoC5/Poll_Timer.c ****                 /* Set last 2 bits of control3 register if one shot(halt on
  78:.\Generated_Source\PSoC5/Poll_Timer.c ****                 interrupt) is enabled*/
  79:.\Generated_Source\PSoC5/Poll_Timer.c ****                 Poll_Timer_CONTROL3 |= 0x03u;
  80:.\Generated_Source\PSoC5/Poll_Timer.c ****             #endif /* Set One-Shot Halt on Interrupt bit in CONTROL3 for PSoC3 or PSoC5LP */
  81:.\Generated_Source\PSoC5/Poll_Timer.c **** 
  82:.\Generated_Source\PSoC5/Poll_Timer.c ****         #endif /* Remove section if One Shot Halt on Interrupt is not enabled */
  83:.\Generated_Source\PSoC5/Poll_Timer.c **** 
  84:.\Generated_Source\PSoC5/Poll_Timer.c ****         #if (Poll_Timer_UsingHWEnable != 0)
  85:.\Generated_Source\PSoC5/Poll_Timer.c ****             #if (CY_PSOC5A)
  86:.\Generated_Source\PSoC5/Poll_Timer.c ****                 /* Set the default Run Mode of the Timer to Continuous */
  87:.\Generated_Source\PSoC5/Poll_Timer.c ****                 Poll_Timer_CONTROL2 |= Poll_Timer_CTRL_MODE_PULSEWIDTH;
  88:.\Generated_Source\PSoC5/Poll_Timer.c ****             #endif /* Set Continuous Run Mode in CONTROL2 for PSoC5A */
  89:.\Generated_Source\PSoC5/Poll_Timer.c **** 
  90:.\Generated_Source\PSoC5/Poll_Timer.c ****             #if (CY_PSOC3 || CY_PSOC5LP)
  91:.\Generated_Source\PSoC5/Poll_Timer.c ****                 /* Clear and Set ROD and COD bits of CFG2 register */
  92:.\Generated_Source\PSoC5/Poll_Timer.c ****                 Poll_Timer_CONTROL3 &= ((uint8)(~Poll_Timer_CTRL_RCOD_MASK));
  93:.\Generated_Source\PSoC5/Poll_Timer.c ****                 Poll_Timer_CONTROL3 |= Poll_Timer_CTRL_RCOD;
  94:.\Generated_Source\PSoC5/Poll_Timer.c **** 
  95:.\Generated_Source\PSoC5/Poll_Timer.c ****                 /* Clear and Enable the HW enable bit in CFG2 register */
  96:.\Generated_Source\PSoC5/Poll_Timer.c ****                 Poll_Timer_CONTROL3 &= ((uint8)(~Poll_Timer_CTRL_ENBL_MASK));
  97:.\Generated_Source\PSoC5/Poll_Timer.c ****                 Poll_Timer_CONTROL3 |= Poll_Timer_CTRL_ENBL;
  98:.\Generated_Source\PSoC5/Poll_Timer.c **** 
  99:.\Generated_Source\PSoC5/Poll_Timer.c ****                 /* Set the default Run Mode of the Timer to Continuous */
 100:.\Generated_Source\PSoC5/Poll_Timer.c ****                 Poll_Timer_CONTROL3 |= Poll_Timer_CTRL_MODE_CONTINUOUS;
 101:.\Generated_Source\PSoC5/Poll_Timer.c ****             #endif /* Set Continuous Run Mode in CONTROL3 for PSoC3ES3 or PSoC5A */
 102:.\Generated_Source\PSoC5/Poll_Timer.c **** 
 103:.\Generated_Source\PSoC5/Poll_Timer.c ****         #endif /* Configure Run Mode with hardware enable */
 104:.\Generated_Source\PSoC5/Poll_Timer.c **** 
 105:.\Generated_Source\PSoC5/Poll_Timer.c ****         /* Clear and Set SYNCTC and SYNCCMP bits of RT1 register */
 106:.\Generated_Source\PSoC5/Poll_Timer.c ****         Poll_Timer_RT1 &= ((uint8)(~Poll_Timer_RT1_MASK));
 107:.\Generated_Source\PSoC5/Poll_Timer.c ****         Poll_Timer_RT1 |= Poll_Timer_SYNC;
 108:.\Generated_Source\PSoC5/Poll_Timer.c **** 
 109:.\Generated_Source\PSoC5/Poll_Timer.c ****         /*Enable DSI Sync all all inputs of the Timer*/
 110:.\Generated_Source\PSoC5/Poll_Timer.c ****         Poll_Timer_RT1 &= ((uint8)(~Poll_Timer_SYNCDSI_MASK));
 111:.\Generated_Source\PSoC5/Poll_Timer.c ****         Poll_Timer_RT1 |= Poll_Timer_SYNCDSI_EN;
 112:.\Generated_Source\PSoC5/Poll_Timer.c **** 
 113:.\Generated_Source\PSoC5/Poll_Timer.c ****         /* Set the IRQ to use the status register interrupts */
 114:.\Generated_Source\PSoC5/Poll_Timer.c ****         Poll_Timer_CONTROL2 |= Poll_Timer_CTRL2_IRQ_SEL;
 115:.\Generated_Source\PSoC5/Poll_Timer.c ****     #endif /* Configuring registers of fixed function implementation */
 116:.\Generated_Source\PSoC5/Poll_Timer.c **** 
 117:.\Generated_Source\PSoC5/Poll_Timer.c ****     /* Set Initial values from Configuration */
 118:.\Generated_Source\PSoC5/Poll_Timer.c ****     Poll_Timer_WritePeriod(Poll_Timer_INIT_PERIOD);
  48              		.loc 1 118 0
  49 0006 43F2FF10 		movw	r0, #12799
  50 000a FFF7FEFF 		bl	Poll_Timer_WritePeriod
 119:.\Generated_Source\PSoC5/Poll_Timer.c ****     Poll_Timer_WriteCounter(Poll_Timer_INIT_PERIOD);
  51              		.loc 1 119 0
  52 000e 43F2FF10 		movw	r0, #12799
ARM GAS  C:\Users\Colin\AppData\Local\Temp\ccfBmISG.s 			page 4


  53 0012 FFF7FEFF 		bl	Poll_Timer_WriteCounter
 120:.\Generated_Source\PSoC5/Poll_Timer.c **** 
 121:.\Generated_Source\PSoC5/Poll_Timer.c ****     #if (Poll_Timer_UsingHWCaptureCounter)/* Capture counter is enabled */
 122:.\Generated_Source\PSoC5/Poll_Timer.c ****         Poll_Timer_CAPTURE_COUNT_CTRL |= Poll_Timer_CNTR_ENABLE;
 123:.\Generated_Source\PSoC5/Poll_Timer.c ****         Poll_Timer_SetCaptureCount(Poll_Timer_INIT_CAPTURE_COUNT);
 124:.\Generated_Source\PSoC5/Poll_Timer.c ****     #endif /* Configure capture counter value */
 125:.\Generated_Source\PSoC5/Poll_Timer.c **** 
 126:.\Generated_Source\PSoC5/Poll_Timer.c ****     #if (!Poll_Timer_UsingFixedFunction)
 127:.\Generated_Source\PSoC5/Poll_Timer.c ****         #if (Poll_Timer_SoftwareCaptureMode)
 128:.\Generated_Source\PSoC5/Poll_Timer.c ****             Poll_Timer_SetCaptureMode(Poll_Timer_INIT_CAPTURE_MODE);
 129:.\Generated_Source\PSoC5/Poll_Timer.c ****         #endif /* Set Capture Mode for UDB implementation if capture mode is software controlled */
 130:.\Generated_Source\PSoC5/Poll_Timer.c **** 
 131:.\Generated_Source\PSoC5/Poll_Timer.c ****         #if (Poll_Timer_SoftwareTriggerMode)
 132:.\Generated_Source\PSoC5/Poll_Timer.c ****             if (0u == (Poll_Timer_CONTROL & Poll_Timer__B_TIMER__TM_SOFTWARE))
 133:.\Generated_Source\PSoC5/Poll_Timer.c ****             {
 134:.\Generated_Source\PSoC5/Poll_Timer.c ****                 Poll_Timer_SetTriggerMode(Poll_Timer_INIT_TRIGGER_MODE);
 135:.\Generated_Source\PSoC5/Poll_Timer.c ****             }
 136:.\Generated_Source\PSoC5/Poll_Timer.c ****         #endif /* Set trigger mode for UDB Implementation if trigger mode is software controlled */
 137:.\Generated_Source\PSoC5/Poll_Timer.c **** 
 138:.\Generated_Source\PSoC5/Poll_Timer.c ****         /* CyEnterCriticalRegion and CyExitCriticalRegion are used to mark following region critica
 139:.\Generated_Source\PSoC5/Poll_Timer.c ****         /* Enter Critical Region*/
 140:.\Generated_Source\PSoC5/Poll_Timer.c ****         Poll_Timer_interruptState = CyEnterCriticalSection();
  54              		.loc 1 140 0
  55 0016 FFF7FEFF 		bl	CyEnterCriticalSection
  56 001a 0346     		mov	r3, r0
  57 001c FB71     		strb	r3, [r7, #7]
 141:.\Generated_Source\PSoC5/Poll_Timer.c **** 
 142:.\Generated_Source\PSoC5/Poll_Timer.c ****         /* Use the interrupt output of the status register for IRQ output */
 143:.\Generated_Source\PSoC5/Poll_Timer.c ****         Poll_Timer_STATUS_AUX_CTRL |= Poll_Timer_STATUS_ACTL_INT_EN_MASK;
  58              		.loc 1 143 0
  59 001e 46F29753 		movw	r3, #26007
  60 0022 C4F20003 		movt	r3, 16384
  61 0026 46F29752 		movw	r2, #26007
  62 002a C4F20002 		movt	r2, 16384
  63 002e 1278     		ldrb	r2, [r2, #0]
  64 0030 D2B2     		uxtb	r2, r2
  65 0032 42F01002 		orr	r2, r2, #16
  66 0036 D2B2     		uxtb	r2, r2
  67 0038 1A70     		strb	r2, [r3, #0]
 144:.\Generated_Source\PSoC5/Poll_Timer.c **** 
 145:.\Generated_Source\PSoC5/Poll_Timer.c ****         /* Exit Critical Region*/
 146:.\Generated_Source\PSoC5/Poll_Timer.c ****         CyExitCriticalSection(Poll_Timer_interruptState);
  68              		.loc 1 146 0
  69 003a FB79     		ldrb	r3, [r7, #7]	@ zero_extendqisi2
  70 003c 1846     		mov	r0, r3
  71 003e FFF7FEFF 		bl	CyExitCriticalSection
 147:.\Generated_Source\PSoC5/Poll_Timer.c **** 
 148:.\Generated_Source\PSoC5/Poll_Timer.c ****         #if (Poll_Timer_EnableTriggerMode)
 149:.\Generated_Source\PSoC5/Poll_Timer.c ****             Poll_Timer_EnableTrigger();
 150:.\Generated_Source\PSoC5/Poll_Timer.c ****         #endif /* Set Trigger enable bit for UDB implementation in the control register*/
 151:.\Generated_Source\PSoC5/Poll_Timer.c **** 
 152:.\Generated_Source\PSoC5/Poll_Timer.c ****         #if (Poll_Timer_InterruptOnCaptureCount)
 153:.\Generated_Source\PSoC5/Poll_Timer.c ****              #if (!Poll_Timer_ControlRegRemoved)
 154:.\Generated_Source\PSoC5/Poll_Timer.c ****                 Poll_Timer_SetInterruptCount(Poll_Timer_INIT_INT_CAPTURE_COUNT);
 155:.\Generated_Source\PSoC5/Poll_Timer.c ****             #endif /* Set interrupt count in control register if control register is not removed */
 156:.\Generated_Source\PSoC5/Poll_Timer.c ****         #endif /*Set interrupt count in UDB implementation if interrupt count feature is checked.*/
 157:.\Generated_Source\PSoC5/Poll_Timer.c **** 
ARM GAS  C:\Users\Colin\AppData\Local\Temp\ccfBmISG.s 			page 5


 158:.\Generated_Source\PSoC5/Poll_Timer.c ****         Poll_Timer_ClearFIFO();
  72              		.loc 1 158 0
  73 0042 FFF7FEFF 		bl	Poll_Timer_ClearFIFO
 159:.\Generated_Source\PSoC5/Poll_Timer.c ****     #endif /* Configure additional features of UDB implementation */
 160:.\Generated_Source\PSoC5/Poll_Timer.c **** 
 161:.\Generated_Source\PSoC5/Poll_Timer.c ****     Poll_Timer_SetInterruptMode(Poll_Timer_INIT_INTERRUPT_MODE);
  74              		.loc 1 161 0
  75 0046 4FF00100 		mov	r0, #1
  76 004a FFF7FEFF 		bl	Poll_Timer_SetInterruptMode
 162:.\Generated_Source\PSoC5/Poll_Timer.c **** }
  77              		.loc 1 162 0
  78 004e 07F10807 		add	r7, r7, #8
  79 0052 BD46     		mov	sp, r7
  80 0054 80BD     		pop	{r7, pc}
  81              		.cfi_endproc
  82              	.LFE0:
  83              		.size	Poll_Timer_Init, .-Poll_Timer_Init
  84 0056 00BF     		.section	.text.Poll_Timer_Enable,"ax",%progbits
  85              		.align	2
  86              		.global	Poll_Timer_Enable
  87              		.thumb
  88              		.thumb_func
  89              		.type	Poll_Timer_Enable, %function
  90              	Poll_Timer_Enable:
  91              	.LFB1:
 163:.\Generated_Source\PSoC5/Poll_Timer.c **** 
 164:.\Generated_Source\PSoC5/Poll_Timer.c **** 
 165:.\Generated_Source\PSoC5/Poll_Timer.c **** /*******************************************************************************
 166:.\Generated_Source\PSoC5/Poll_Timer.c **** * Function Name: Poll_Timer_Enable
 167:.\Generated_Source\PSoC5/Poll_Timer.c **** ********************************************************************************
 168:.\Generated_Source\PSoC5/Poll_Timer.c **** *
 169:.\Generated_Source\PSoC5/Poll_Timer.c **** * Summary:
 170:.\Generated_Source\PSoC5/Poll_Timer.c **** *  Enable the Timer
 171:.\Generated_Source\PSoC5/Poll_Timer.c **** *
 172:.\Generated_Source\PSoC5/Poll_Timer.c **** * Parameters:
 173:.\Generated_Source\PSoC5/Poll_Timer.c **** *  void
 174:.\Generated_Source\PSoC5/Poll_Timer.c **** *
 175:.\Generated_Source\PSoC5/Poll_Timer.c **** * Return:
 176:.\Generated_Source\PSoC5/Poll_Timer.c **** *  void
 177:.\Generated_Source\PSoC5/Poll_Timer.c **** *
 178:.\Generated_Source\PSoC5/Poll_Timer.c **** *******************************************************************************/
 179:.\Generated_Source\PSoC5/Poll_Timer.c **** void Poll_Timer_Enable(void) 
 180:.\Generated_Source\PSoC5/Poll_Timer.c **** {
  92              		.loc 1 180 0
  93              		.cfi_startproc
  94              		@ args = 0, pretend = 0, frame = 0
  95              		@ frame_needed = 1, uses_anonymous_args = 0
  96              		@ link register save eliminated.
  97 0000 80B4     		push	{r7}
  98              	.LCFI3:
  99              		.cfi_def_cfa_offset 4
 100              		.cfi_offset 7, -4
 101 0002 00AF     		add	r7, sp, #0
 102              	.LCFI4:
 103              		.cfi_def_cfa_register 7
 181:.\Generated_Source\PSoC5/Poll_Timer.c ****     /* Globally Enable the Fixed Function Block chosen */
 182:.\Generated_Source\PSoC5/Poll_Timer.c ****     #if (Poll_Timer_UsingFixedFunction)
ARM GAS  C:\Users\Colin\AppData\Local\Temp\ccfBmISG.s 			page 6


 183:.\Generated_Source\PSoC5/Poll_Timer.c ****         Poll_Timer_GLOBAL_ENABLE |= Poll_Timer_BLOCK_EN_MASK;
 184:.\Generated_Source\PSoC5/Poll_Timer.c ****         Poll_Timer_GLOBAL_STBY_ENABLE |= Poll_Timer_BLOCK_STBY_EN_MASK;
 185:.\Generated_Source\PSoC5/Poll_Timer.c ****     #endif /* Set Enable bit for enabling Fixed function timer*/
 186:.\Generated_Source\PSoC5/Poll_Timer.c **** 
 187:.\Generated_Source\PSoC5/Poll_Timer.c ****     /* Remove assignment if control register is removed */
 188:.\Generated_Source\PSoC5/Poll_Timer.c ****     #if (!Poll_Timer_ControlRegRemoved || Poll_Timer_UsingFixedFunction)
 189:.\Generated_Source\PSoC5/Poll_Timer.c ****         Poll_Timer_CONTROL |= Poll_Timer_CTRL_ENABLE;
 104              		.loc 1 189 0
 105 0004 46F27553 		movw	r3, #25973
 106 0008 C4F20003 		movt	r3, 16384
 107 000c 46F27552 		movw	r2, #25973
 108 0010 C4F20002 		movt	r2, 16384
 109 0014 1278     		ldrb	r2, [r2, #0]
 110 0016 D2B2     		uxtb	r2, r2
 111 0018 62F07F02 		orn	r2, r2, #127
 112 001c D2B2     		uxtb	r2, r2
 113 001e 1A70     		strb	r2, [r3, #0]
 190:.\Generated_Source\PSoC5/Poll_Timer.c ****     #endif /* Remove assignment if control register is removed */
 191:.\Generated_Source\PSoC5/Poll_Timer.c **** }
 114              		.loc 1 191 0
 115 0020 BD46     		mov	sp, r7
 116 0022 80BC     		pop	{r7}
 117 0024 7047     		bx	lr
 118              		.cfi_endproc
 119              	.LFE1:
 120              		.size	Poll_Timer_Enable, .-Poll_Timer_Enable
 121 0026 00BF     		.section	.text.Poll_Timer_Start,"ax",%progbits
 122              		.align	2
 123              		.global	Poll_Timer_Start
 124              		.thumb
 125              		.thumb_func
 126              		.type	Poll_Timer_Start, %function
 127              	Poll_Timer_Start:
 128              	.LFB2:
 192:.\Generated_Source\PSoC5/Poll_Timer.c **** 
 193:.\Generated_Source\PSoC5/Poll_Timer.c **** 
 194:.\Generated_Source\PSoC5/Poll_Timer.c **** /*******************************************************************************
 195:.\Generated_Source\PSoC5/Poll_Timer.c **** * Function Name: Poll_Timer_Start
 196:.\Generated_Source\PSoC5/Poll_Timer.c **** ********************************************************************************
 197:.\Generated_Source\PSoC5/Poll_Timer.c **** *
 198:.\Generated_Source\PSoC5/Poll_Timer.c **** * Summary:
 199:.\Generated_Source\PSoC5/Poll_Timer.c **** *  The start function initializes the timer with the default values, the
 200:.\Generated_Source\PSoC5/Poll_Timer.c **** *  enables the timerto begin counting.  It does not enable interrupts,
 201:.\Generated_Source\PSoC5/Poll_Timer.c **** *  the EnableInt command should be called if interrupt generation is required.
 202:.\Generated_Source\PSoC5/Poll_Timer.c **** *
 203:.\Generated_Source\PSoC5/Poll_Timer.c **** * Parameters:
 204:.\Generated_Source\PSoC5/Poll_Timer.c **** *  void
 205:.\Generated_Source\PSoC5/Poll_Timer.c **** *
 206:.\Generated_Source\PSoC5/Poll_Timer.c **** * Return:
 207:.\Generated_Source\PSoC5/Poll_Timer.c **** *  void
 208:.\Generated_Source\PSoC5/Poll_Timer.c **** *
 209:.\Generated_Source\PSoC5/Poll_Timer.c **** * Global variables:
 210:.\Generated_Source\PSoC5/Poll_Timer.c **** *  Poll_Timer_initVar: Is modified when this function is called for the
 211:.\Generated_Source\PSoC5/Poll_Timer.c **** *   first time. Is used to ensure that initialization happens only once.
 212:.\Generated_Source\PSoC5/Poll_Timer.c **** *
 213:.\Generated_Source\PSoC5/Poll_Timer.c **** *******************************************************************************/
 214:.\Generated_Source\PSoC5/Poll_Timer.c **** void Poll_Timer_Start(void) 
ARM GAS  C:\Users\Colin\AppData\Local\Temp\ccfBmISG.s 			page 7


 215:.\Generated_Source\PSoC5/Poll_Timer.c **** {
 129              		.loc 1 215 0
 130              		.cfi_startproc
 131              		@ args = 0, pretend = 0, frame = 0
 132              		@ frame_needed = 1, uses_anonymous_args = 0
 133 0000 80B5     		push	{r7, lr}
 134              	.LCFI5:
 135              		.cfi_def_cfa_offset 8
 136              		.cfi_offset 7, -8
 137              		.cfi_offset 14, -4
 138 0002 00AF     		add	r7, sp, #0
 139              	.LCFI6:
 140              		.cfi_def_cfa_register 7
 216:.\Generated_Source\PSoC5/Poll_Timer.c ****     if(Poll_Timer_initVar == 0u)
 141              		.loc 1 216 0
 142 0004 40F20003 		movw	r3, #:lower16:Poll_Timer_initVar
 143 0008 C0F20003 		movt	r3, #:upper16:Poll_Timer_initVar
 144 000c 1B78     		ldrb	r3, [r3, #0]	@ zero_extendqisi2
 145 000e 002B     		cmp	r3, #0
 146 0010 08D1     		bne	.L4
 217:.\Generated_Source\PSoC5/Poll_Timer.c ****     {
 218:.\Generated_Source\PSoC5/Poll_Timer.c ****         Poll_Timer_Init();
 147              		.loc 1 218 0
 148 0012 FFF7FEFF 		bl	Poll_Timer_Init
 219:.\Generated_Source\PSoC5/Poll_Timer.c **** 
 220:.\Generated_Source\PSoC5/Poll_Timer.c ****         Poll_Timer_initVar = 1u;   /* Clear this bit for Initialization */
 149              		.loc 1 220 0
 150 0016 40F20003 		movw	r3, #:lower16:Poll_Timer_initVar
 151 001a C0F20003 		movt	r3, #:upper16:Poll_Timer_initVar
 152 001e 4FF00102 		mov	r2, #1
 153 0022 1A70     		strb	r2, [r3, #0]
 154              	.L4:
 221:.\Generated_Source\PSoC5/Poll_Timer.c ****     }
 222:.\Generated_Source\PSoC5/Poll_Timer.c **** 
 223:.\Generated_Source\PSoC5/Poll_Timer.c ****     /* Enable the Timer */
 224:.\Generated_Source\PSoC5/Poll_Timer.c ****     Poll_Timer_Enable();
 155              		.loc 1 224 0
 156 0024 FFF7FEFF 		bl	Poll_Timer_Enable
 225:.\Generated_Source\PSoC5/Poll_Timer.c **** }
 157              		.loc 1 225 0
 158 0028 80BD     		pop	{r7, pc}
 159              		.cfi_endproc
 160              	.LFE2:
 161              		.size	Poll_Timer_Start, .-Poll_Timer_Start
 162 002a 00BF     		.section	.text.Poll_Timer_Stop,"ax",%progbits
 163              		.align	2
 164              		.global	Poll_Timer_Stop
 165              		.thumb
 166              		.thumb_func
 167              		.type	Poll_Timer_Stop, %function
 168              	Poll_Timer_Stop:
 169              	.LFB3:
 226:.\Generated_Source\PSoC5/Poll_Timer.c **** 
 227:.\Generated_Source\PSoC5/Poll_Timer.c **** 
 228:.\Generated_Source\PSoC5/Poll_Timer.c **** /*******************************************************************************
 229:.\Generated_Source\PSoC5/Poll_Timer.c **** * Function Name: Poll_Timer_Stop
 230:.\Generated_Source\PSoC5/Poll_Timer.c **** ********************************************************************************
ARM GAS  C:\Users\Colin\AppData\Local\Temp\ccfBmISG.s 			page 8


 231:.\Generated_Source\PSoC5/Poll_Timer.c **** *
 232:.\Generated_Source\PSoC5/Poll_Timer.c **** * Summary:
 233:.\Generated_Source\PSoC5/Poll_Timer.c **** *  The stop function halts the timer, but does not change any modes or disable
 234:.\Generated_Source\PSoC5/Poll_Timer.c **** *  interrupts.
 235:.\Generated_Source\PSoC5/Poll_Timer.c **** *
 236:.\Generated_Source\PSoC5/Poll_Timer.c **** * Parameters:
 237:.\Generated_Source\PSoC5/Poll_Timer.c **** *  void
 238:.\Generated_Source\PSoC5/Poll_Timer.c **** *
 239:.\Generated_Source\PSoC5/Poll_Timer.c **** * Return:
 240:.\Generated_Source\PSoC5/Poll_Timer.c **** *  void
 241:.\Generated_Source\PSoC5/Poll_Timer.c **** *
 242:.\Generated_Source\PSoC5/Poll_Timer.c **** * Side Effects: If the Enable mode is set to Hardware only then this function
 243:.\Generated_Source\PSoC5/Poll_Timer.c **** *               has no effect on the operation of the timer.
 244:.\Generated_Source\PSoC5/Poll_Timer.c **** *
 245:.\Generated_Source\PSoC5/Poll_Timer.c **** *******************************************************************************/
 246:.\Generated_Source\PSoC5/Poll_Timer.c **** void Poll_Timer_Stop(void) 
 247:.\Generated_Source\PSoC5/Poll_Timer.c **** {
 170              		.loc 1 247 0
 171              		.cfi_startproc
 172              		@ args = 0, pretend = 0, frame = 0
 173              		@ frame_needed = 1, uses_anonymous_args = 0
 174              		@ link register save eliminated.
 175 0000 80B4     		push	{r7}
 176              	.LCFI7:
 177              		.cfi_def_cfa_offset 4
 178              		.cfi_offset 7, -4
 179 0002 00AF     		add	r7, sp, #0
 180              	.LCFI8:
 181              		.cfi_def_cfa_register 7
 248:.\Generated_Source\PSoC5/Poll_Timer.c ****     /* Disable Timer */
 249:.\Generated_Source\PSoC5/Poll_Timer.c ****     #if(!Poll_Timer_ControlRegRemoved || Poll_Timer_UsingFixedFunction)
 250:.\Generated_Source\PSoC5/Poll_Timer.c ****         Poll_Timer_CONTROL &= ((uint8)(~Poll_Timer_CTRL_ENABLE));
 182              		.loc 1 250 0
 183 0004 46F27553 		movw	r3, #25973
 184 0008 C4F20003 		movt	r3, 16384
 185 000c 46F27552 		movw	r2, #25973
 186 0010 C4F20002 		movt	r2, 16384
 187 0014 1278     		ldrb	r2, [r2, #0]
 188 0016 D2B2     		uxtb	r2, r2
 189 0018 02F07F02 		and	r2, r2, #127
 190 001c D2B2     		uxtb	r2, r2
 191 001e 1A70     		strb	r2, [r3, #0]
 251:.\Generated_Source\PSoC5/Poll_Timer.c ****     #endif /* Remove assignment if control register is removed */
 252:.\Generated_Source\PSoC5/Poll_Timer.c **** 
 253:.\Generated_Source\PSoC5/Poll_Timer.c ****     /* Globally disable the Fixed Function Block chosen */
 254:.\Generated_Source\PSoC5/Poll_Timer.c ****     #if (Poll_Timer_UsingFixedFunction)
 255:.\Generated_Source\PSoC5/Poll_Timer.c ****         Poll_Timer_GLOBAL_ENABLE &= ((uint8)(~Poll_Timer_BLOCK_EN_MASK));
 256:.\Generated_Source\PSoC5/Poll_Timer.c ****         Poll_Timer_GLOBAL_STBY_ENABLE &= ((uint8)(~Poll_Timer_BLOCK_STBY_EN_MASK));
 257:.\Generated_Source\PSoC5/Poll_Timer.c ****     #endif /* Disable global enable for the Timer Fixed function block to stop the Timer*/
 258:.\Generated_Source\PSoC5/Poll_Timer.c **** }
 192              		.loc 1 258 0
 193 0020 BD46     		mov	sp, r7
 194 0022 80BC     		pop	{r7}
 195 0024 7047     		bx	lr
 196              		.cfi_endproc
 197              	.LFE3:
 198              		.size	Poll_Timer_Stop, .-Poll_Timer_Stop
ARM GAS  C:\Users\Colin\AppData\Local\Temp\ccfBmISG.s 			page 9


 199 0026 00BF     		.section	.text.Poll_Timer_SetInterruptMode,"ax",%progbits
 200              		.align	2
 201              		.global	Poll_Timer_SetInterruptMode
 202              		.thumb
 203              		.thumb_func
 204              		.type	Poll_Timer_SetInterruptMode, %function
 205              	Poll_Timer_SetInterruptMode:
 206              	.LFB4:
 259:.\Generated_Source\PSoC5/Poll_Timer.c **** 
 260:.\Generated_Source\PSoC5/Poll_Timer.c **** 
 261:.\Generated_Source\PSoC5/Poll_Timer.c **** /*******************************************************************************
 262:.\Generated_Source\PSoC5/Poll_Timer.c **** * Function Name: Poll_Timer_SetInterruptMode
 263:.\Generated_Source\PSoC5/Poll_Timer.c **** ********************************************************************************
 264:.\Generated_Source\PSoC5/Poll_Timer.c **** *
 265:.\Generated_Source\PSoC5/Poll_Timer.c **** * Summary:
 266:.\Generated_Source\PSoC5/Poll_Timer.c **** *  This function selects which of the interrupt inputs may cause an interrupt.
 267:.\Generated_Source\PSoC5/Poll_Timer.c **** *  The twosources are caputure and terminal.  One, both or neither may
 268:.\Generated_Source\PSoC5/Poll_Timer.c **** *  be selected.
 269:.\Generated_Source\PSoC5/Poll_Timer.c **** *
 270:.\Generated_Source\PSoC5/Poll_Timer.c **** * Parameters:
 271:.\Generated_Source\PSoC5/Poll_Timer.c **** *  interruptMode:   This parameter is used to enable interrups on either/or
 272:.\Generated_Source\PSoC5/Poll_Timer.c **** *                   terminal count or capture.
 273:.\Generated_Source\PSoC5/Poll_Timer.c **** *
 274:.\Generated_Source\PSoC5/Poll_Timer.c **** * Return:
 275:.\Generated_Source\PSoC5/Poll_Timer.c **** *  void
 276:.\Generated_Source\PSoC5/Poll_Timer.c **** *
 277:.\Generated_Source\PSoC5/Poll_Timer.c **** *******************************************************************************/
 278:.\Generated_Source\PSoC5/Poll_Timer.c **** void Poll_Timer_SetInterruptMode(uint8 interruptMode) 
 279:.\Generated_Source\PSoC5/Poll_Timer.c **** {
 207              		.loc 1 279 0
 208              		.cfi_startproc
 209              		@ args = 0, pretend = 0, frame = 8
 210              		@ frame_needed = 1, uses_anonymous_args = 0
 211              		@ link register save eliminated.
 212 0000 80B4     		push	{r7}
 213              	.LCFI9:
 214              		.cfi_def_cfa_offset 4
 215              		.cfi_offset 7, -4
 216 0002 83B0     		sub	sp, sp, #12
 217              	.LCFI10:
 218              		.cfi_def_cfa_offset 16
 219 0004 00AF     		add	r7, sp, #0
 220              	.LCFI11:
 221              		.cfi_def_cfa_register 7
 222 0006 0346     		mov	r3, r0
 223 0008 FB71     		strb	r3, [r7, #7]
 280:.\Generated_Source\PSoC5/Poll_Timer.c ****     Poll_Timer_STATUS_MASK = interruptMode;
 224              		.loc 1 280 0
 225 000a 46F28753 		movw	r3, #25991
 226 000e C4F20003 		movt	r3, 16384
 227 0012 FA79     		ldrb	r2, [r7, #7]
 228 0014 1A70     		strb	r2, [r3, #0]
 281:.\Generated_Source\PSoC5/Poll_Timer.c **** }
 229              		.loc 1 281 0
 230 0016 07F10C07 		add	r7, r7, #12
 231 001a BD46     		mov	sp, r7
 232 001c 80BC     		pop	{r7}
ARM GAS  C:\Users\Colin\AppData\Local\Temp\ccfBmISG.s 			page 10


 233 001e 7047     		bx	lr
 234              		.cfi_endproc
 235              	.LFE4:
 236              		.size	Poll_Timer_SetInterruptMode, .-Poll_Timer_SetInterruptMode
 237              		.section	.text.Poll_Timer_SoftwareCapture,"ax",%progbits
 238              		.align	2
 239              		.global	Poll_Timer_SoftwareCapture
 240              		.thumb
 241              		.thumb_func
 242              		.type	Poll_Timer_SoftwareCapture, %function
 243              	Poll_Timer_SoftwareCapture:
 244              	.LFB5:
 282:.\Generated_Source\PSoC5/Poll_Timer.c **** 
 283:.\Generated_Source\PSoC5/Poll_Timer.c **** 
 284:.\Generated_Source\PSoC5/Poll_Timer.c **** /*******************************************************************************
 285:.\Generated_Source\PSoC5/Poll_Timer.c **** * Function Name: Poll_Timer_SoftwareCapture
 286:.\Generated_Source\PSoC5/Poll_Timer.c **** ********************************************************************************
 287:.\Generated_Source\PSoC5/Poll_Timer.c **** *
 288:.\Generated_Source\PSoC5/Poll_Timer.c **** * Summary:
 289:.\Generated_Source\PSoC5/Poll_Timer.c **** *  This function forces a capture independent of the capture signal.
 290:.\Generated_Source\PSoC5/Poll_Timer.c **** *
 291:.\Generated_Source\PSoC5/Poll_Timer.c **** * Parameters:
 292:.\Generated_Source\PSoC5/Poll_Timer.c **** *  void
 293:.\Generated_Source\PSoC5/Poll_Timer.c **** *
 294:.\Generated_Source\PSoC5/Poll_Timer.c **** * Return:
 295:.\Generated_Source\PSoC5/Poll_Timer.c **** *  void
 296:.\Generated_Source\PSoC5/Poll_Timer.c **** *
 297:.\Generated_Source\PSoC5/Poll_Timer.c **** * Side Effects:
 298:.\Generated_Source\PSoC5/Poll_Timer.c **** *  An existing hardware capture could be overwritten.
 299:.\Generated_Source\PSoC5/Poll_Timer.c **** *
 300:.\Generated_Source\PSoC5/Poll_Timer.c **** *******************************************************************************/
 301:.\Generated_Source\PSoC5/Poll_Timer.c **** void Poll_Timer_SoftwareCapture(void) 
 302:.\Generated_Source\PSoC5/Poll_Timer.c **** {
 245              		.loc 1 302 0
 246              		.cfi_startproc
 247              		@ args = 0, pretend = 0, frame = 0
 248              		@ frame_needed = 1, uses_anonymous_args = 0
 249              		@ link register save eliminated.
 250 0000 80B4     		push	{r7}
 251              	.LCFI12:
 252              		.cfi_def_cfa_offset 4
 253              		.cfi_offset 7, -4
 254 0002 00AF     		add	r7, sp, #0
 255              	.LCFI13:
 256              		.cfi_def_cfa_register 7
 303:.\Generated_Source\PSoC5/Poll_Timer.c ****     /* Generate a software capture by reading the counter register */
 304:.\Generated_Source\PSoC5/Poll_Timer.c ****     (void)Poll_Timer_COUNTER_LSB;
 257              		.loc 1 304 0
 258 0004 46F20453 		movw	r3, #25860
 259 0008 C4F20003 		movt	r3, 16384
 260 000c 1B68     		ldr	r3, [r3, #0]
 305:.\Generated_Source\PSoC5/Poll_Timer.c ****     /* Capture Data is now in the FIFO */
 306:.\Generated_Source\PSoC5/Poll_Timer.c **** }
 261              		.loc 1 306 0
 262 000e BD46     		mov	sp, r7
 263 0010 80BC     		pop	{r7}
 264 0012 7047     		bx	lr
ARM GAS  C:\Users\Colin\AppData\Local\Temp\ccfBmISG.s 			page 11


 265              		.cfi_endproc
 266              	.LFE5:
 267              		.size	Poll_Timer_SoftwareCapture, .-Poll_Timer_SoftwareCapture
 268              		.section	.text.Poll_Timer_ReadStatusRegister,"ax",%progbits
 269              		.align	2
 270              		.global	Poll_Timer_ReadStatusRegister
 271              		.thumb
 272              		.thumb_func
 273              		.type	Poll_Timer_ReadStatusRegister, %function
 274              	Poll_Timer_ReadStatusRegister:
 275              	.LFB6:
 307:.\Generated_Source\PSoC5/Poll_Timer.c **** 
 308:.\Generated_Source\PSoC5/Poll_Timer.c **** 
 309:.\Generated_Source\PSoC5/Poll_Timer.c **** /*******************************************************************************
 310:.\Generated_Source\PSoC5/Poll_Timer.c **** * Function Name: Poll_Timer_ReadStatusRegister
 311:.\Generated_Source\PSoC5/Poll_Timer.c **** ********************************************************************************
 312:.\Generated_Source\PSoC5/Poll_Timer.c **** *
 313:.\Generated_Source\PSoC5/Poll_Timer.c **** * Summary:
 314:.\Generated_Source\PSoC5/Poll_Timer.c **** *  Reads the status register and returns it's state. This function should use
 315:.\Generated_Source\PSoC5/Poll_Timer.c **** *  defined types for the bit-field information as the bits in this register may
 316:.\Generated_Source\PSoC5/Poll_Timer.c **** *  be permuteable.
 317:.\Generated_Source\PSoC5/Poll_Timer.c **** *
 318:.\Generated_Source\PSoC5/Poll_Timer.c **** * Parameters:
 319:.\Generated_Source\PSoC5/Poll_Timer.c **** *  void
 320:.\Generated_Source\PSoC5/Poll_Timer.c **** *
 321:.\Generated_Source\PSoC5/Poll_Timer.c **** * Return:
 322:.\Generated_Source\PSoC5/Poll_Timer.c **** *  The contents of the status register
 323:.\Generated_Source\PSoC5/Poll_Timer.c **** *
 324:.\Generated_Source\PSoC5/Poll_Timer.c **** * Side Effects:
 325:.\Generated_Source\PSoC5/Poll_Timer.c **** *  Status register bits may be clear on read.
 326:.\Generated_Source\PSoC5/Poll_Timer.c **** *
 327:.\Generated_Source\PSoC5/Poll_Timer.c **** *******************************************************************************/
 328:.\Generated_Source\PSoC5/Poll_Timer.c **** uint8   Poll_Timer_ReadStatusRegister(void) 
 329:.\Generated_Source\PSoC5/Poll_Timer.c **** {
 276              		.loc 1 329 0
 277              		.cfi_startproc
 278              		@ args = 0, pretend = 0, frame = 0
 279              		@ frame_needed = 1, uses_anonymous_args = 0
 280              		@ link register save eliminated.
 281 0000 80B4     		push	{r7}
 282              	.LCFI14:
 283              		.cfi_def_cfa_offset 4
 284              		.cfi_offset 7, -4
 285 0002 00AF     		add	r7, sp, #0
 286              	.LCFI15:
 287              		.cfi_def_cfa_register 7
 330:.\Generated_Source\PSoC5/Poll_Timer.c ****     return (Poll_Timer_STATUS);
 288              		.loc 1 330 0
 289 0004 46F26753 		movw	r3, #25959
 290 0008 C4F20003 		movt	r3, 16384
 291 000c 1B78     		ldrb	r3, [r3, #0]
 292 000e DBB2     		uxtb	r3, r3
 331:.\Generated_Source\PSoC5/Poll_Timer.c **** }
 293              		.loc 1 331 0
 294 0010 1846     		mov	r0, r3
 295 0012 BD46     		mov	sp, r7
 296 0014 80BC     		pop	{r7}
ARM GAS  C:\Users\Colin\AppData\Local\Temp\ccfBmISG.s 			page 12


 297 0016 7047     		bx	lr
 298              		.cfi_endproc
 299              	.LFE6:
 300              		.size	Poll_Timer_ReadStatusRegister, .-Poll_Timer_ReadStatusRegister
 301              		.section	.text.Poll_Timer_ReadControlRegister,"ax",%progbits
 302              		.align	2
 303              		.global	Poll_Timer_ReadControlRegister
 304              		.thumb
 305              		.thumb_func
 306              		.type	Poll_Timer_ReadControlRegister, %function
 307              	Poll_Timer_ReadControlRegister:
 308              	.LFB7:
 332:.\Generated_Source\PSoC5/Poll_Timer.c **** 
 333:.\Generated_Source\PSoC5/Poll_Timer.c **** 
 334:.\Generated_Source\PSoC5/Poll_Timer.c **** #if (!Poll_Timer_ControlRegRemoved) /* Remove API if control register is removed */
 335:.\Generated_Source\PSoC5/Poll_Timer.c **** 
 336:.\Generated_Source\PSoC5/Poll_Timer.c **** 
 337:.\Generated_Source\PSoC5/Poll_Timer.c **** /*******************************************************************************
 338:.\Generated_Source\PSoC5/Poll_Timer.c **** * Function Name: Poll_Timer_ReadControlRegister
 339:.\Generated_Source\PSoC5/Poll_Timer.c **** ********************************************************************************
 340:.\Generated_Source\PSoC5/Poll_Timer.c **** *
 341:.\Generated_Source\PSoC5/Poll_Timer.c **** * Summary:
 342:.\Generated_Source\PSoC5/Poll_Timer.c **** *  Reads the control register and returns it's value.
 343:.\Generated_Source\PSoC5/Poll_Timer.c **** *
 344:.\Generated_Source\PSoC5/Poll_Timer.c **** * Parameters:
 345:.\Generated_Source\PSoC5/Poll_Timer.c **** *  void
 346:.\Generated_Source\PSoC5/Poll_Timer.c **** *
 347:.\Generated_Source\PSoC5/Poll_Timer.c **** * Return:
 348:.\Generated_Source\PSoC5/Poll_Timer.c **** *  The contents of the control register
 349:.\Generated_Source\PSoC5/Poll_Timer.c **** *
 350:.\Generated_Source\PSoC5/Poll_Timer.c **** *******************************************************************************/
 351:.\Generated_Source\PSoC5/Poll_Timer.c **** uint8 Poll_Timer_ReadControlRegister(void) 
 352:.\Generated_Source\PSoC5/Poll_Timer.c **** {
 309              		.loc 1 352 0
 310              		.cfi_startproc
 311              		@ args = 0, pretend = 0, frame = 0
 312              		@ frame_needed = 1, uses_anonymous_args = 0
 313              		@ link register save eliminated.
 314 0000 80B4     		push	{r7}
 315              	.LCFI16:
 316              		.cfi_def_cfa_offset 4
 317              		.cfi_offset 7, -4
 318 0002 00AF     		add	r7, sp, #0
 319              	.LCFI17:
 320              		.cfi_def_cfa_register 7
 353:.\Generated_Source\PSoC5/Poll_Timer.c ****     return ((uint8)Poll_Timer_CONTROL);
 321              		.loc 1 353 0
 322 0004 46F27553 		movw	r3, #25973
 323 0008 C4F20003 		movt	r3, 16384
 324 000c 1B78     		ldrb	r3, [r3, #0]
 325 000e DBB2     		uxtb	r3, r3
 354:.\Generated_Source\PSoC5/Poll_Timer.c **** }
 326              		.loc 1 354 0
 327 0010 1846     		mov	r0, r3
 328 0012 BD46     		mov	sp, r7
 329 0014 80BC     		pop	{r7}
 330 0016 7047     		bx	lr
ARM GAS  C:\Users\Colin\AppData\Local\Temp\ccfBmISG.s 			page 13


 331              		.cfi_endproc
 332              	.LFE7:
 333              		.size	Poll_Timer_ReadControlRegister, .-Poll_Timer_ReadControlRegister
 334              		.section	.text.Poll_Timer_WriteControlRegister,"ax",%progbits
 335              		.align	2
 336              		.global	Poll_Timer_WriteControlRegister
 337              		.thumb
 338              		.thumb_func
 339              		.type	Poll_Timer_WriteControlRegister, %function
 340              	Poll_Timer_WriteControlRegister:
 341              	.LFB8:
 355:.\Generated_Source\PSoC5/Poll_Timer.c **** 
 356:.\Generated_Source\PSoC5/Poll_Timer.c **** 
 357:.\Generated_Source\PSoC5/Poll_Timer.c **** /*******************************************************************************
 358:.\Generated_Source\PSoC5/Poll_Timer.c **** * Function Name: Poll_Timer_WriteControlRegister
 359:.\Generated_Source\PSoC5/Poll_Timer.c **** ********************************************************************************
 360:.\Generated_Source\PSoC5/Poll_Timer.c **** *
 361:.\Generated_Source\PSoC5/Poll_Timer.c **** * Summary:
 362:.\Generated_Source\PSoC5/Poll_Timer.c **** *  Sets the bit-field of the control register.
 363:.\Generated_Source\PSoC5/Poll_Timer.c **** *
 364:.\Generated_Source\PSoC5/Poll_Timer.c **** * Parameters:
 365:.\Generated_Source\PSoC5/Poll_Timer.c **** *  control: The contents of the control register
 366:.\Generated_Source\PSoC5/Poll_Timer.c **** *
 367:.\Generated_Source\PSoC5/Poll_Timer.c **** * Return:
 368:.\Generated_Source\PSoC5/Poll_Timer.c **** *
 369:.\Generated_Source\PSoC5/Poll_Timer.c **** *******************************************************************************/
 370:.\Generated_Source\PSoC5/Poll_Timer.c **** void Poll_Timer_WriteControlRegister(uint8 control) 
 371:.\Generated_Source\PSoC5/Poll_Timer.c **** {
 342              		.loc 1 371 0
 343              		.cfi_startproc
 344              		@ args = 0, pretend = 0, frame = 8
 345              		@ frame_needed = 1, uses_anonymous_args = 0
 346              		@ link register save eliminated.
 347 0000 80B4     		push	{r7}
 348              	.LCFI18:
 349              		.cfi_def_cfa_offset 4
 350              		.cfi_offset 7, -4
 351 0002 83B0     		sub	sp, sp, #12
 352              	.LCFI19:
 353              		.cfi_def_cfa_offset 16
 354 0004 00AF     		add	r7, sp, #0
 355              	.LCFI20:
 356              		.cfi_def_cfa_register 7
 357 0006 0346     		mov	r3, r0
 358 0008 FB71     		strb	r3, [r7, #7]
 372:.\Generated_Source\PSoC5/Poll_Timer.c ****     Poll_Timer_CONTROL = control;
 359              		.loc 1 372 0
 360 000a 46F27553 		movw	r3, #25973
 361 000e C4F20003 		movt	r3, 16384
 362 0012 FA79     		ldrb	r2, [r7, #7]
 363 0014 1A70     		strb	r2, [r3, #0]
 373:.\Generated_Source\PSoC5/Poll_Timer.c **** }
 364              		.loc 1 373 0
 365 0016 07F10C07 		add	r7, r7, #12
 366 001a BD46     		mov	sp, r7
 367 001c 80BC     		pop	{r7}
 368 001e 7047     		bx	lr
ARM GAS  C:\Users\Colin\AppData\Local\Temp\ccfBmISG.s 			page 14


 369              		.cfi_endproc
 370              	.LFE8:
 371              		.size	Poll_Timer_WriteControlRegister, .-Poll_Timer_WriteControlRegister
 372              		.section	.text.Poll_Timer_ReadPeriod,"ax",%progbits
 373              		.align	2
 374              		.global	Poll_Timer_ReadPeriod
 375              		.thumb
 376              		.thumb_func
 377              		.type	Poll_Timer_ReadPeriod, %function
 378              	Poll_Timer_ReadPeriod:
 379              	.LFB9:
 374:.\Generated_Source\PSoC5/Poll_Timer.c **** #endif /* Remove API if control register is removed */
 375:.\Generated_Source\PSoC5/Poll_Timer.c **** 
 376:.\Generated_Source\PSoC5/Poll_Timer.c **** 
 377:.\Generated_Source\PSoC5/Poll_Timer.c **** /*******************************************************************************
 378:.\Generated_Source\PSoC5/Poll_Timer.c **** * Function Name: Poll_Timer_ReadPeriod
 379:.\Generated_Source\PSoC5/Poll_Timer.c **** ********************************************************************************
 380:.\Generated_Source\PSoC5/Poll_Timer.c **** *
 381:.\Generated_Source\PSoC5/Poll_Timer.c **** * Summary:
 382:.\Generated_Source\PSoC5/Poll_Timer.c **** *  This function returns the current value of the Period.
 383:.\Generated_Source\PSoC5/Poll_Timer.c **** *
 384:.\Generated_Source\PSoC5/Poll_Timer.c **** * Parameters:
 385:.\Generated_Source\PSoC5/Poll_Timer.c **** *  void
 386:.\Generated_Source\PSoC5/Poll_Timer.c **** *
 387:.\Generated_Source\PSoC5/Poll_Timer.c **** * Return:
 388:.\Generated_Source\PSoC5/Poll_Timer.c **** *  The present value of the counter.
 389:.\Generated_Source\PSoC5/Poll_Timer.c **** *
 390:.\Generated_Source\PSoC5/Poll_Timer.c **** *******************************************************************************/
 391:.\Generated_Source\PSoC5/Poll_Timer.c **** uint32 Poll_Timer_ReadPeriod(void) 
 392:.\Generated_Source\PSoC5/Poll_Timer.c **** {
 380              		.loc 1 392 0
 381              		.cfi_startproc
 382              		@ args = 0, pretend = 0, frame = 0
 383              		@ frame_needed = 1, uses_anonymous_args = 0
 384              		@ link register save eliminated.
 385 0000 80B4     		push	{r7}
 386              	.LCFI21:
 387              		.cfi_def_cfa_offset 4
 388              		.cfi_offset 7, -4
 389 0002 00AF     		add	r7, sp, #0
 390              	.LCFI22:
 391              		.cfi_def_cfa_register 7
 393:.\Generated_Source\PSoC5/Poll_Timer.c ****    #if(Poll_Timer_UsingFixedFunction)
 394:.\Generated_Source\PSoC5/Poll_Timer.c ****        return ((uint32)CY_GET_REG16(Poll_Timer_PERIOD_LSB_PTR));
 395:.\Generated_Source\PSoC5/Poll_Timer.c ****    #else
 396:.\Generated_Source\PSoC5/Poll_Timer.c ****        return (CY_GET_REG24(Poll_Timer_PERIOD_LSB_PTR));
 392              		.loc 1 396 0
 393 0004 46F22453 		movw	r3, #25892
 394 0008 C4F20003 		movt	r3, 16384
 395 000c 1B68     		ldr	r3, [r3, #0]
 396 000e 23F07F43 		bic	r3, r3, #-16777216
 397:.\Generated_Source\PSoC5/Poll_Timer.c ****    #endif /* (Poll_Timer_UsingFixedFunction) */
 398:.\Generated_Source\PSoC5/Poll_Timer.c **** }
 397              		.loc 1 398 0
 398 0012 1846     		mov	r0, r3
 399 0014 BD46     		mov	sp, r7
 400 0016 80BC     		pop	{r7}
ARM GAS  C:\Users\Colin\AppData\Local\Temp\ccfBmISG.s 			page 15


 401 0018 7047     		bx	lr
 402              		.cfi_endproc
 403              	.LFE9:
 404              		.size	Poll_Timer_ReadPeriod, .-Poll_Timer_ReadPeriod
 405 001a 00BF     		.section	.text.Poll_Timer_WritePeriod,"ax",%progbits
 406              		.align	2
 407              		.global	Poll_Timer_WritePeriod
 408              		.thumb
 409              		.thumb_func
 410              		.type	Poll_Timer_WritePeriod, %function
 411              	Poll_Timer_WritePeriod:
 412              	.LFB10:
 399:.\Generated_Source\PSoC5/Poll_Timer.c **** 
 400:.\Generated_Source\PSoC5/Poll_Timer.c **** 
 401:.\Generated_Source\PSoC5/Poll_Timer.c **** /*******************************************************************************
 402:.\Generated_Source\PSoC5/Poll_Timer.c **** * Function Name: Poll_Timer_WritePeriod
 403:.\Generated_Source\PSoC5/Poll_Timer.c **** ********************************************************************************
 404:.\Generated_Source\PSoC5/Poll_Timer.c **** *
 405:.\Generated_Source\PSoC5/Poll_Timer.c **** * Summary:
 406:.\Generated_Source\PSoC5/Poll_Timer.c **** *  This function is used to change the period of the counter.  The new period
 407:.\Generated_Source\PSoC5/Poll_Timer.c **** *  will be loaded the next time terminal count is detected.
 408:.\Generated_Source\PSoC5/Poll_Timer.c **** *
 409:.\Generated_Source\PSoC5/Poll_Timer.c **** * Parameters:
 410:.\Generated_Source\PSoC5/Poll_Timer.c **** *  period: This value may be between 1 and (2^Resolution)-1.  A value of 0 will
 411:.\Generated_Source\PSoC5/Poll_Timer.c **** *          result in the counter remaining at zero.
 412:.\Generated_Source\PSoC5/Poll_Timer.c **** *
 413:.\Generated_Source\PSoC5/Poll_Timer.c **** * Return:
 414:.\Generated_Source\PSoC5/Poll_Timer.c **** *  void
 415:.\Generated_Source\PSoC5/Poll_Timer.c **** *
 416:.\Generated_Source\PSoC5/Poll_Timer.c **** *******************************************************************************/
 417:.\Generated_Source\PSoC5/Poll_Timer.c **** void Poll_Timer_WritePeriod(uint32 period) 
 418:.\Generated_Source\PSoC5/Poll_Timer.c **** {
 413              		.loc 1 418 0
 414              		.cfi_startproc
 415              		@ args = 0, pretend = 0, frame = 8
 416              		@ frame_needed = 1, uses_anonymous_args = 0
 417 0000 80B5     		push	{r7, lr}
 418              	.LCFI23:
 419              		.cfi_def_cfa_offset 8
 420              		.cfi_offset 7, -8
 421              		.cfi_offset 14, -4
 422 0002 82B0     		sub	sp, sp, #8
 423              	.LCFI24:
 424              		.cfi_def_cfa_offset 16
 425 0004 00AF     		add	r7, sp, #0
 426              	.LCFI25:
 427              		.cfi_def_cfa_register 7
 428 0006 7860     		str	r0, [r7, #4]
 419:.\Generated_Source\PSoC5/Poll_Timer.c ****     #if(Poll_Timer_UsingFixedFunction)
 420:.\Generated_Source\PSoC5/Poll_Timer.c ****         uint16 period_temp = (uint16)period;
 421:.\Generated_Source\PSoC5/Poll_Timer.c ****         CY_SET_REG16(Poll_Timer_PERIOD_LSB_PTR, period_temp);
 422:.\Generated_Source\PSoC5/Poll_Timer.c ****     #else
 423:.\Generated_Source\PSoC5/Poll_Timer.c ****         CY_SET_REG24(Poll_Timer_PERIOD_LSB_PTR, period);
 429              		.loc 1 423 0
 430 0008 46F22450 		movw	r0, #25892
 431 000c C4F20000 		movt	r0, 16384
 432 0010 7968     		ldr	r1, [r7, #4]
ARM GAS  C:\Users\Colin\AppData\Local\Temp\ccfBmISG.s 			page 16


 433 0012 FFF7FEFF 		bl	CySetReg24
 424:.\Generated_Source\PSoC5/Poll_Timer.c ****     #endif /*Write Period value with appropriate resolution suffix depending on UDB or fixed functi
 425:.\Generated_Source\PSoC5/Poll_Timer.c **** }
 434              		.loc 1 425 0
 435 0016 07F10807 		add	r7, r7, #8
 436 001a BD46     		mov	sp, r7
 437 001c 80BD     		pop	{r7, pc}
 438              		.cfi_endproc
 439              	.LFE10:
 440              		.size	Poll_Timer_WritePeriod, .-Poll_Timer_WritePeriod
 441 001e 00BF     		.section	.text.Poll_Timer_ReadCapture,"ax",%progbits
 442              		.align	2
 443              		.global	Poll_Timer_ReadCapture
 444              		.thumb
 445              		.thumb_func
 446              		.type	Poll_Timer_ReadCapture, %function
 447              	Poll_Timer_ReadCapture:
 448              	.LFB11:
 426:.\Generated_Source\PSoC5/Poll_Timer.c **** 
 427:.\Generated_Source\PSoC5/Poll_Timer.c **** 
 428:.\Generated_Source\PSoC5/Poll_Timer.c **** /*******************************************************************************
 429:.\Generated_Source\PSoC5/Poll_Timer.c **** * Function Name: Poll_Timer_ReadCapture
 430:.\Generated_Source\PSoC5/Poll_Timer.c **** ********************************************************************************
 431:.\Generated_Source\PSoC5/Poll_Timer.c **** *
 432:.\Generated_Source\PSoC5/Poll_Timer.c **** * Summary:
 433:.\Generated_Source\PSoC5/Poll_Timer.c **** *  This function returns the last value captured.
 434:.\Generated_Source\PSoC5/Poll_Timer.c **** *
 435:.\Generated_Source\PSoC5/Poll_Timer.c **** * Parameters:
 436:.\Generated_Source\PSoC5/Poll_Timer.c **** *  void
 437:.\Generated_Source\PSoC5/Poll_Timer.c **** *
 438:.\Generated_Source\PSoC5/Poll_Timer.c **** * Return:
 439:.\Generated_Source\PSoC5/Poll_Timer.c **** *  Present Capture value.
 440:.\Generated_Source\PSoC5/Poll_Timer.c **** *
 441:.\Generated_Source\PSoC5/Poll_Timer.c **** *******************************************************************************/
 442:.\Generated_Source\PSoC5/Poll_Timer.c **** uint32 Poll_Timer_ReadCapture(void) 
 443:.\Generated_Source\PSoC5/Poll_Timer.c **** {
 449              		.loc 1 443 0
 450              		.cfi_startproc
 451              		@ args = 0, pretend = 0, frame = 0
 452              		@ frame_needed = 1, uses_anonymous_args = 0
 453              		@ link register save eliminated.
 454 0000 80B4     		push	{r7}
 455              	.LCFI26:
 456              		.cfi_def_cfa_offset 4
 457              		.cfi_offset 7, -4
 458 0002 00AF     		add	r7, sp, #0
 459              	.LCFI27:
 460              		.cfi_def_cfa_register 7
 444:.\Generated_Source\PSoC5/Poll_Timer.c ****    #if(Poll_Timer_UsingFixedFunction)
 445:.\Generated_Source\PSoC5/Poll_Timer.c ****        return ((uint32)CY_GET_REG16(Poll_Timer_CAPTURE_LSB_PTR));
 446:.\Generated_Source\PSoC5/Poll_Timer.c ****    #else
 447:.\Generated_Source\PSoC5/Poll_Timer.c ****        return (CY_GET_REG24(Poll_Timer_CAPTURE_LSB_PTR));
 461              		.loc 1 447 0
 462 0004 46F24453 		movw	r3, #25924
 463 0008 C4F20003 		movt	r3, 16384
 464 000c 1B68     		ldr	r3, [r3, #0]
 465 000e 23F07F43 		bic	r3, r3, #-16777216
ARM GAS  C:\Users\Colin\AppData\Local\Temp\ccfBmISG.s 			page 17


 448:.\Generated_Source\PSoC5/Poll_Timer.c ****    #endif /* (Poll_Timer_UsingFixedFunction) */
 449:.\Generated_Source\PSoC5/Poll_Timer.c **** }
 466              		.loc 1 449 0
 467 0012 1846     		mov	r0, r3
 468 0014 BD46     		mov	sp, r7
 469 0016 80BC     		pop	{r7}
 470 0018 7047     		bx	lr
 471              		.cfi_endproc
 472              	.LFE11:
 473              		.size	Poll_Timer_ReadCapture, .-Poll_Timer_ReadCapture
 474 001a 00BF     		.section	.text.Poll_Timer_WriteCounter,"ax",%progbits
 475              		.align	2
 476              		.global	Poll_Timer_WriteCounter
 477              		.thumb
 478              		.thumb_func
 479              		.type	Poll_Timer_WriteCounter, %function
 480              	Poll_Timer_WriteCounter:
 481              	.LFB12:
 450:.\Generated_Source\PSoC5/Poll_Timer.c **** 
 451:.\Generated_Source\PSoC5/Poll_Timer.c **** 
 452:.\Generated_Source\PSoC5/Poll_Timer.c **** /*******************************************************************************
 453:.\Generated_Source\PSoC5/Poll_Timer.c **** * Function Name: Poll_Timer_WriteCounter
 454:.\Generated_Source\PSoC5/Poll_Timer.c **** ********************************************************************************
 455:.\Generated_Source\PSoC5/Poll_Timer.c **** *
 456:.\Generated_Source\PSoC5/Poll_Timer.c **** * Summary:
 457:.\Generated_Source\PSoC5/Poll_Timer.c **** *  This funtion is used to set the counter to a specific value
 458:.\Generated_Source\PSoC5/Poll_Timer.c **** *
 459:.\Generated_Source\PSoC5/Poll_Timer.c **** * Parameters:
 460:.\Generated_Source\PSoC5/Poll_Timer.c **** *  counter:  New counter value.
 461:.\Generated_Source\PSoC5/Poll_Timer.c **** *
 462:.\Generated_Source\PSoC5/Poll_Timer.c **** * Return:
 463:.\Generated_Source\PSoC5/Poll_Timer.c **** *  void
 464:.\Generated_Source\PSoC5/Poll_Timer.c **** *
 465:.\Generated_Source\PSoC5/Poll_Timer.c **** *******************************************************************************/
 466:.\Generated_Source\PSoC5/Poll_Timer.c **** void Poll_Timer_WriteCounter(uint32 counter) \
 467:.\Generated_Source\PSoC5/Poll_Timer.c ****                                    
 468:.\Generated_Source\PSoC5/Poll_Timer.c **** {
 482              		.loc 1 468 0
 483              		.cfi_startproc
 484              		@ args = 0, pretend = 0, frame = 8
 485              		@ frame_needed = 1, uses_anonymous_args = 0
 486 0000 80B5     		push	{r7, lr}
 487              	.LCFI28:
 488              		.cfi_def_cfa_offset 8
 489              		.cfi_offset 7, -8
 490              		.cfi_offset 14, -4
 491 0002 82B0     		sub	sp, sp, #8
 492              	.LCFI29:
 493              		.cfi_def_cfa_offset 16
 494 0004 00AF     		add	r7, sp, #0
 495              	.LCFI30:
 496              		.cfi_def_cfa_register 7
 497 0006 7860     		str	r0, [r7, #4]
 469:.\Generated_Source\PSoC5/Poll_Timer.c ****    #if(Poll_Timer_UsingFixedFunction)
 470:.\Generated_Source\PSoC5/Poll_Timer.c ****         /* This functionality is removed until a FixedFunction HW update to
 471:.\Generated_Source\PSoC5/Poll_Timer.c ****          * allow this register to be written
 472:.\Generated_Source\PSoC5/Poll_Timer.c ****          */
ARM GAS  C:\Users\Colin\AppData\Local\Temp\ccfBmISG.s 			page 18


 473:.\Generated_Source\PSoC5/Poll_Timer.c ****         CY_SET_REG16(Poll_Timer_COUNTER_LSB_PTR, (uint16)counter);
 474:.\Generated_Source\PSoC5/Poll_Timer.c ****         
 475:.\Generated_Source\PSoC5/Poll_Timer.c ****     #else
 476:.\Generated_Source\PSoC5/Poll_Timer.c ****         CY_SET_REG24(Poll_Timer_COUNTER_LSB_PTR, counter);
 498              		.loc 1 476 0
 499 0008 46F20450 		movw	r0, #25860
 500 000c C4F20000 		movt	r0, 16384
 501 0010 7968     		ldr	r1, [r7, #4]
 502 0012 FFF7FEFF 		bl	CySetReg24
 477:.\Generated_Source\PSoC5/Poll_Timer.c ****     #endif /* Set Write Counter only for the UDB implementation (Write Counter not available in fix
 478:.\Generated_Source\PSoC5/Poll_Timer.c **** }
 503              		.loc 1 478 0
 504 0016 07F10807 		add	r7, r7, #8
 505 001a BD46     		mov	sp, r7
 506 001c 80BD     		pop	{r7, pc}
 507              		.cfi_endproc
 508              	.LFE12:
 509              		.size	Poll_Timer_WriteCounter, .-Poll_Timer_WriteCounter
 510 001e 00BF     		.section	.text.Poll_Timer_ReadCounter,"ax",%progbits
 511              		.align	2
 512              		.global	Poll_Timer_ReadCounter
 513              		.thumb
 514              		.thumb_func
 515              		.type	Poll_Timer_ReadCounter, %function
 516              	Poll_Timer_ReadCounter:
 517              	.LFB13:
 479:.\Generated_Source\PSoC5/Poll_Timer.c **** 
 480:.\Generated_Source\PSoC5/Poll_Timer.c **** 
 481:.\Generated_Source\PSoC5/Poll_Timer.c **** /*******************************************************************************
 482:.\Generated_Source\PSoC5/Poll_Timer.c **** * Function Name: Poll_Timer_ReadCounter
 483:.\Generated_Source\PSoC5/Poll_Timer.c **** ********************************************************************************
 484:.\Generated_Source\PSoC5/Poll_Timer.c **** *
 485:.\Generated_Source\PSoC5/Poll_Timer.c **** * Summary:
 486:.\Generated_Source\PSoC5/Poll_Timer.c **** *  This function returns the current counter value.
 487:.\Generated_Source\PSoC5/Poll_Timer.c **** *
 488:.\Generated_Source\PSoC5/Poll_Timer.c **** * Parameters:
 489:.\Generated_Source\PSoC5/Poll_Timer.c **** *  void
 490:.\Generated_Source\PSoC5/Poll_Timer.c **** *
 491:.\Generated_Source\PSoC5/Poll_Timer.c **** * Return:
 492:.\Generated_Source\PSoC5/Poll_Timer.c **** *  Present compare value.
 493:.\Generated_Source\PSoC5/Poll_Timer.c **** *
 494:.\Generated_Source\PSoC5/Poll_Timer.c **** *******************************************************************************/
 495:.\Generated_Source\PSoC5/Poll_Timer.c **** uint32 Poll_Timer_ReadCounter(void) 
 496:.\Generated_Source\PSoC5/Poll_Timer.c **** {
 518              		.loc 1 496 0
 519              		.cfi_startproc
 520              		@ args = 0, pretend = 0, frame = 0
 521              		@ frame_needed = 1, uses_anonymous_args = 0
 522              		@ link register save eliminated.
 523 0000 80B4     		push	{r7}
 524              	.LCFI31:
 525              		.cfi_def_cfa_offset 4
 526              		.cfi_offset 7, -4
 527 0002 00AF     		add	r7, sp, #0
 528              	.LCFI32:
 529              		.cfi_def_cfa_register 7
 497:.\Generated_Source\PSoC5/Poll_Timer.c **** 
ARM GAS  C:\Users\Colin\AppData\Local\Temp\ccfBmISG.s 			page 19


 498:.\Generated_Source\PSoC5/Poll_Timer.c ****     /* Force capture by reading Accumulator */
 499:.\Generated_Source\PSoC5/Poll_Timer.c ****     /* Must first do a software capture to be able to read the counter */
 500:.\Generated_Source\PSoC5/Poll_Timer.c ****     /* It is up to the user code to make sure there isn't already captured data in the FIFO */
 501:.\Generated_Source\PSoC5/Poll_Timer.c ****     (void)Poll_Timer_COUNTER_LSB;
 530              		.loc 1 501 0
 531 0004 46F20453 		movw	r3, #25860
 532 0008 C4F20003 		movt	r3, 16384
 533 000c 1B68     		ldr	r3, [r3, #0]
 502:.\Generated_Source\PSoC5/Poll_Timer.c **** 
 503:.\Generated_Source\PSoC5/Poll_Timer.c ****     /* Read the data from the FIFO (or capture register for Fixed Function)*/
 504:.\Generated_Source\PSoC5/Poll_Timer.c ****     #if(Poll_Timer_UsingFixedFunction)
 505:.\Generated_Source\PSoC5/Poll_Timer.c ****         return ((uint32)CY_GET_REG16(Poll_Timer_CAPTURE_LSB_PTR));
 506:.\Generated_Source\PSoC5/Poll_Timer.c ****     #else
 507:.\Generated_Source\PSoC5/Poll_Timer.c ****         return (CY_GET_REG24(Poll_Timer_CAPTURE_LSB_PTR));
 534              		.loc 1 507 0
 535 000e 46F24453 		movw	r3, #25924
 536 0012 C4F20003 		movt	r3, 16384
 537 0016 1B68     		ldr	r3, [r3, #0]
 538 0018 23F07F43 		bic	r3, r3, #-16777216
 508:.\Generated_Source\PSoC5/Poll_Timer.c ****     #endif /* (Poll_Timer_UsingFixedFunction) */
 509:.\Generated_Source\PSoC5/Poll_Timer.c **** }
 539              		.loc 1 509 0
 540 001c 1846     		mov	r0, r3
 541 001e BD46     		mov	sp, r7
 542 0020 80BC     		pop	{r7}
 543 0022 7047     		bx	lr
 544              		.cfi_endproc
 545              	.LFE13:
 546              		.size	Poll_Timer_ReadCounter, .-Poll_Timer_ReadCounter
 547              		.section	.text.Poll_Timer_ClearFIFO,"ax",%progbits
 548              		.align	2
 549              		.global	Poll_Timer_ClearFIFO
 550              		.thumb
 551              		.thumb_func
 552              		.type	Poll_Timer_ClearFIFO, %function
 553              	Poll_Timer_ClearFIFO:
 554              	.LFB14:
 510:.\Generated_Source\PSoC5/Poll_Timer.c **** 
 511:.\Generated_Source\PSoC5/Poll_Timer.c **** 
 512:.\Generated_Source\PSoC5/Poll_Timer.c **** #if(!Poll_Timer_UsingFixedFunction) /* UDB Specific Functions */
 513:.\Generated_Source\PSoC5/Poll_Timer.c **** 
 514:.\Generated_Source\PSoC5/Poll_Timer.c **** /*******************************************************************************
 515:.\Generated_Source\PSoC5/Poll_Timer.c ****  * The functions below this point are only available using the UDB
 516:.\Generated_Source\PSoC5/Poll_Timer.c ****  * implementation.  If a feature is selected, then the API is enabled.
 517:.\Generated_Source\PSoC5/Poll_Timer.c ****  ******************************************************************************/
 518:.\Generated_Source\PSoC5/Poll_Timer.c **** 
 519:.\Generated_Source\PSoC5/Poll_Timer.c **** 
 520:.\Generated_Source\PSoC5/Poll_Timer.c **** #if (Poll_Timer_SoftwareCaptureMode)
 521:.\Generated_Source\PSoC5/Poll_Timer.c **** 
 522:.\Generated_Source\PSoC5/Poll_Timer.c **** 
 523:.\Generated_Source\PSoC5/Poll_Timer.c **** /*******************************************************************************
 524:.\Generated_Source\PSoC5/Poll_Timer.c **** * Function Name: Poll_Timer_SetCaptureMode
 525:.\Generated_Source\PSoC5/Poll_Timer.c **** ********************************************************************************
 526:.\Generated_Source\PSoC5/Poll_Timer.c **** *
 527:.\Generated_Source\PSoC5/Poll_Timer.c **** * Summary:
 528:.\Generated_Source\PSoC5/Poll_Timer.c **** *  This function sets the capture mode to either rising or falling edge.
 529:.\Generated_Source\PSoC5/Poll_Timer.c **** *
ARM GAS  C:\Users\Colin\AppData\Local\Temp\ccfBmISG.s 			page 20


 530:.\Generated_Source\PSoC5/Poll_Timer.c **** * Parameters:
 531:.\Generated_Source\PSoC5/Poll_Timer.c **** *  captureMode: This parameter sets the capture mode of the UDB capture feature
 532:.\Generated_Source\PSoC5/Poll_Timer.c **** *  The parameter values are defined using the
 533:.\Generated_Source\PSoC5/Poll_Timer.c **** *  #define Poll_Timer__B_TIMER__CM_NONE 0
 534:.\Generated_Source\PSoC5/Poll_Timer.c **** #define Poll_Timer__B_TIMER__CM_RISINGEDGE 1
 535:.\Generated_Source\PSoC5/Poll_Timer.c **** #define Poll_Timer__B_TIMER__CM_FALLINGEDGE 2
 536:.\Generated_Source\PSoC5/Poll_Timer.c **** #define Poll_Timer__B_TIMER__CM_EITHEREDGE 3
 537:.\Generated_Source\PSoC5/Poll_Timer.c **** #define Poll_Timer__B_TIMER__CM_SOFTWARE 4
 538:.\Generated_Source\PSoC5/Poll_Timer.c ****  identifiers
 539:.\Generated_Source\PSoC5/Poll_Timer.c **** *  The following are the possible values of the parameter
 540:.\Generated_Source\PSoC5/Poll_Timer.c **** *  Poll_Timer__B_TIMER__CM_NONE        - Set Capture mode to None
 541:.\Generated_Source\PSoC5/Poll_Timer.c **** *  Poll_Timer__B_TIMER__CM_RISINGEDGE  - Rising edge of Capture input
 542:.\Generated_Source\PSoC5/Poll_Timer.c **** *  Poll_Timer__B_TIMER__CM_FALLINGEDGE - Falling edge of Capture input
 543:.\Generated_Source\PSoC5/Poll_Timer.c **** *  Poll_Timer__B_TIMER__CM_EITHEREDGE  - Either edge of Capture input
 544:.\Generated_Source\PSoC5/Poll_Timer.c **** *
 545:.\Generated_Source\PSoC5/Poll_Timer.c **** * Return:
 546:.\Generated_Source\PSoC5/Poll_Timer.c **** *  void
 547:.\Generated_Source\PSoC5/Poll_Timer.c **** *
 548:.\Generated_Source\PSoC5/Poll_Timer.c **** *******************************************************************************/
 549:.\Generated_Source\PSoC5/Poll_Timer.c **** void Poll_Timer_SetCaptureMode(uint8 captureMode) 
 550:.\Generated_Source\PSoC5/Poll_Timer.c **** {
 551:.\Generated_Source\PSoC5/Poll_Timer.c ****     /* This must only set to two bits of the control register associated */
 552:.\Generated_Source\PSoC5/Poll_Timer.c ****     captureMode = ((uint8)((uint8)captureMode << Poll_Timer_CTRL_CAP_MODE_SHIFT));
 553:.\Generated_Source\PSoC5/Poll_Timer.c ****     captureMode &= (Poll_Timer_CTRL_CAP_MODE_MASK);
 554:.\Generated_Source\PSoC5/Poll_Timer.c **** 
 555:.\Generated_Source\PSoC5/Poll_Timer.c ****     /* Clear the Current Setting */
 556:.\Generated_Source\PSoC5/Poll_Timer.c ****     Poll_Timer_CONTROL &= ((uint8)(~Poll_Timer_CTRL_CAP_MODE_MASK));
 557:.\Generated_Source\PSoC5/Poll_Timer.c **** 
 558:.\Generated_Source\PSoC5/Poll_Timer.c ****     /* Write The New Setting */
 559:.\Generated_Source\PSoC5/Poll_Timer.c ****     Poll_Timer_CONTROL |= captureMode;
 560:.\Generated_Source\PSoC5/Poll_Timer.c **** }
 561:.\Generated_Source\PSoC5/Poll_Timer.c **** #endif /* Remove API if Capture Mode is not Software Controlled */
 562:.\Generated_Source\PSoC5/Poll_Timer.c **** 
 563:.\Generated_Source\PSoC5/Poll_Timer.c **** 
 564:.\Generated_Source\PSoC5/Poll_Timer.c **** #if (Poll_Timer_SoftwareTriggerMode)
 565:.\Generated_Source\PSoC5/Poll_Timer.c **** 
 566:.\Generated_Source\PSoC5/Poll_Timer.c **** 
 567:.\Generated_Source\PSoC5/Poll_Timer.c **** /*******************************************************************************
 568:.\Generated_Source\PSoC5/Poll_Timer.c **** * Function Name: Poll_Timer_SetTriggerMode
 569:.\Generated_Source\PSoC5/Poll_Timer.c **** ********************************************************************************
 570:.\Generated_Source\PSoC5/Poll_Timer.c **** *
 571:.\Generated_Source\PSoC5/Poll_Timer.c **** * Summary:
 572:.\Generated_Source\PSoC5/Poll_Timer.c **** *  This function sets the trigger input mode
 573:.\Generated_Source\PSoC5/Poll_Timer.c **** *
 574:.\Generated_Source\PSoC5/Poll_Timer.c **** * Parameters:
 575:.\Generated_Source\PSoC5/Poll_Timer.c **** *  triggerMode: Pass one of the pre-defined Trigger Modes (except Software)
 576:.\Generated_Source\PSoC5/Poll_Timer.c ****     #define Poll_Timer__B_TIMER__TM_NONE 0x00u
 577:.\Generated_Source\PSoC5/Poll_Timer.c ****     #define Poll_Timer__B_TIMER__TM_RISINGEDGE 0x04u
 578:.\Generated_Source\PSoC5/Poll_Timer.c ****     #define Poll_Timer__B_TIMER__TM_FALLINGEDGE 0x08u
 579:.\Generated_Source\PSoC5/Poll_Timer.c ****     #define Poll_Timer__B_TIMER__TM_EITHEREDGE 0x0Cu
 580:.\Generated_Source\PSoC5/Poll_Timer.c ****     #define Poll_Timer__B_TIMER__TM_SOFTWARE 0x10u
 581:.\Generated_Source\PSoC5/Poll_Timer.c **** *
 582:.\Generated_Source\PSoC5/Poll_Timer.c **** * Return:
 583:.\Generated_Source\PSoC5/Poll_Timer.c **** *  void
 584:.\Generated_Source\PSoC5/Poll_Timer.c **** *
 585:.\Generated_Source\PSoC5/Poll_Timer.c **** *******************************************************************************/
 586:.\Generated_Source\PSoC5/Poll_Timer.c **** void Poll_Timer_SetTriggerMode(uint8 triggerMode) 
ARM GAS  C:\Users\Colin\AppData\Local\Temp\ccfBmISG.s 			page 21


 587:.\Generated_Source\PSoC5/Poll_Timer.c **** {
 588:.\Generated_Source\PSoC5/Poll_Timer.c ****     /* This must only set to two bits of the control register associated */
 589:.\Generated_Source\PSoC5/Poll_Timer.c ****     triggerMode &= Poll_Timer_CTRL_TRIG_MODE_MASK;
 590:.\Generated_Source\PSoC5/Poll_Timer.c **** 
 591:.\Generated_Source\PSoC5/Poll_Timer.c ****     /* Clear the Current Setting */
 592:.\Generated_Source\PSoC5/Poll_Timer.c ****     Poll_Timer_CONTROL &= ((uint8)(~Poll_Timer_CTRL_TRIG_MODE_MASK));
 593:.\Generated_Source\PSoC5/Poll_Timer.c **** 
 594:.\Generated_Source\PSoC5/Poll_Timer.c ****     /* Write The New Setting */
 595:.\Generated_Source\PSoC5/Poll_Timer.c ****     Poll_Timer_CONTROL |= (triggerMode | Poll_Timer__B_TIMER__TM_SOFTWARE);
 596:.\Generated_Source\PSoC5/Poll_Timer.c **** 
 597:.\Generated_Source\PSoC5/Poll_Timer.c **** }
 598:.\Generated_Source\PSoC5/Poll_Timer.c **** #endif /* Remove API if Trigger Mode is not Software Controlled */
 599:.\Generated_Source\PSoC5/Poll_Timer.c **** 
 600:.\Generated_Source\PSoC5/Poll_Timer.c **** #if (Poll_Timer_EnableTriggerMode)
 601:.\Generated_Source\PSoC5/Poll_Timer.c **** 
 602:.\Generated_Source\PSoC5/Poll_Timer.c **** 
 603:.\Generated_Source\PSoC5/Poll_Timer.c **** /*******************************************************************************
 604:.\Generated_Source\PSoC5/Poll_Timer.c **** * Function Name: Poll_Timer_EnableTrigger
 605:.\Generated_Source\PSoC5/Poll_Timer.c **** ********************************************************************************
 606:.\Generated_Source\PSoC5/Poll_Timer.c **** *
 607:.\Generated_Source\PSoC5/Poll_Timer.c **** * Summary:
 608:.\Generated_Source\PSoC5/Poll_Timer.c **** *  Sets the control bit enabling Hardware Trigger mode
 609:.\Generated_Source\PSoC5/Poll_Timer.c **** *
 610:.\Generated_Source\PSoC5/Poll_Timer.c **** * Parameters:
 611:.\Generated_Source\PSoC5/Poll_Timer.c **** *  void
 612:.\Generated_Source\PSoC5/Poll_Timer.c **** *
 613:.\Generated_Source\PSoC5/Poll_Timer.c **** * Return:
 614:.\Generated_Source\PSoC5/Poll_Timer.c **** *  void
 615:.\Generated_Source\PSoC5/Poll_Timer.c **** *
 616:.\Generated_Source\PSoC5/Poll_Timer.c **** *******************************************************************************/
 617:.\Generated_Source\PSoC5/Poll_Timer.c **** void Poll_Timer_EnableTrigger(void) 
 618:.\Generated_Source\PSoC5/Poll_Timer.c **** {
 619:.\Generated_Source\PSoC5/Poll_Timer.c ****     #if (!Poll_Timer_ControlRegRemoved)   /* Remove assignment if control register is removed */
 620:.\Generated_Source\PSoC5/Poll_Timer.c ****         Poll_Timer_CONTROL |= Poll_Timer_CTRL_TRIG_EN;
 621:.\Generated_Source\PSoC5/Poll_Timer.c ****     #endif /* Remove code section if control register is not used */
 622:.\Generated_Source\PSoC5/Poll_Timer.c **** }
 623:.\Generated_Source\PSoC5/Poll_Timer.c **** 
 624:.\Generated_Source\PSoC5/Poll_Timer.c **** 
 625:.\Generated_Source\PSoC5/Poll_Timer.c **** /*******************************************************************************
 626:.\Generated_Source\PSoC5/Poll_Timer.c **** * Function Name: Poll_Timer_DisableTrigger
 627:.\Generated_Source\PSoC5/Poll_Timer.c **** ********************************************************************************
 628:.\Generated_Source\PSoC5/Poll_Timer.c **** *
 629:.\Generated_Source\PSoC5/Poll_Timer.c **** * Summary:
 630:.\Generated_Source\PSoC5/Poll_Timer.c **** *  Clears the control bit enabling Hardware Trigger mode
 631:.\Generated_Source\PSoC5/Poll_Timer.c **** *
 632:.\Generated_Source\PSoC5/Poll_Timer.c **** * Parameters:
 633:.\Generated_Source\PSoC5/Poll_Timer.c **** *  void
 634:.\Generated_Source\PSoC5/Poll_Timer.c **** *
 635:.\Generated_Source\PSoC5/Poll_Timer.c **** * Return:
 636:.\Generated_Source\PSoC5/Poll_Timer.c **** *  void
 637:.\Generated_Source\PSoC5/Poll_Timer.c **** *
 638:.\Generated_Source\PSoC5/Poll_Timer.c **** *******************************************************************************/
 639:.\Generated_Source\PSoC5/Poll_Timer.c **** void Poll_Timer_DisableTrigger(void) 
 640:.\Generated_Source\PSoC5/Poll_Timer.c **** {
 641:.\Generated_Source\PSoC5/Poll_Timer.c ****     #if (!Poll_Timer_ControlRegRemoved)   /* Remove assignment if control register is removed */
 642:.\Generated_Source\PSoC5/Poll_Timer.c ****         Poll_Timer_CONTROL &= ((uint8)(~Poll_Timer_CTRL_TRIG_EN));
 643:.\Generated_Source\PSoC5/Poll_Timer.c ****     #endif /* Remove code section if control register is not used */
ARM GAS  C:\Users\Colin\AppData\Local\Temp\ccfBmISG.s 			page 22


 644:.\Generated_Source\PSoC5/Poll_Timer.c **** }
 645:.\Generated_Source\PSoC5/Poll_Timer.c **** #endif /* Remove API is Trigger Mode is set to None */
 646:.\Generated_Source\PSoC5/Poll_Timer.c **** 
 647:.\Generated_Source\PSoC5/Poll_Timer.c **** 
 648:.\Generated_Source\PSoC5/Poll_Timer.c **** #if(Poll_Timer_InterruptOnCaptureCount)
 649:.\Generated_Source\PSoC5/Poll_Timer.c **** #if (!Poll_Timer_ControlRegRemoved)   /* Remove API if control register is removed */
 650:.\Generated_Source\PSoC5/Poll_Timer.c **** 
 651:.\Generated_Source\PSoC5/Poll_Timer.c **** 
 652:.\Generated_Source\PSoC5/Poll_Timer.c **** /*******************************************************************************
 653:.\Generated_Source\PSoC5/Poll_Timer.c **** * Function Name: Poll_Timer_SetInterruptCount
 654:.\Generated_Source\PSoC5/Poll_Timer.c **** ********************************************************************************
 655:.\Generated_Source\PSoC5/Poll_Timer.c **** *
 656:.\Generated_Source\PSoC5/Poll_Timer.c **** * Summary:
 657:.\Generated_Source\PSoC5/Poll_Timer.c **** *  This function sets the capture count before an interrupt is triggered.
 658:.\Generated_Source\PSoC5/Poll_Timer.c **** *
 659:.\Generated_Source\PSoC5/Poll_Timer.c **** * Parameters:
 660:.\Generated_Source\PSoC5/Poll_Timer.c **** *  interruptCount:  A value between 0 and 3 is valid.  If the value is 0, then
 661:.\Generated_Source\PSoC5/Poll_Timer.c **** *                   an interrupt will occur each time a capture occurs.
 662:.\Generated_Source\PSoC5/Poll_Timer.c **** *                   A value of 1 to 3 will cause the interrupt
 663:.\Generated_Source\PSoC5/Poll_Timer.c **** *                   to delay by the same number of captures.
 664:.\Generated_Source\PSoC5/Poll_Timer.c **** *
 665:.\Generated_Source\PSoC5/Poll_Timer.c **** * Return:
 666:.\Generated_Source\PSoC5/Poll_Timer.c **** *  void
 667:.\Generated_Source\PSoC5/Poll_Timer.c **** *
 668:.\Generated_Source\PSoC5/Poll_Timer.c **** *******************************************************************************/
 669:.\Generated_Source\PSoC5/Poll_Timer.c **** void Poll_Timer_SetInterruptCount(uint8 interruptCount) 
 670:.\Generated_Source\PSoC5/Poll_Timer.c **** {
 671:.\Generated_Source\PSoC5/Poll_Timer.c ****     /* This must only set to two bits of the control register associated */
 672:.\Generated_Source\PSoC5/Poll_Timer.c ****     interruptCount &= Poll_Timer_CTRL_INTCNT_MASK;
 673:.\Generated_Source\PSoC5/Poll_Timer.c **** 
 674:.\Generated_Source\PSoC5/Poll_Timer.c ****     /* Clear the Current Setting */
 675:.\Generated_Source\PSoC5/Poll_Timer.c ****     Poll_Timer_CONTROL &= ((uint8)(~Poll_Timer_CTRL_INTCNT_MASK));
 676:.\Generated_Source\PSoC5/Poll_Timer.c ****     /* Write The New Setting */
 677:.\Generated_Source\PSoC5/Poll_Timer.c ****     Poll_Timer_CONTROL |= interruptCount;
 678:.\Generated_Source\PSoC5/Poll_Timer.c **** }
 679:.\Generated_Source\PSoC5/Poll_Timer.c **** #endif /* Remove API if control register is removed */
 680:.\Generated_Source\PSoC5/Poll_Timer.c **** #endif /* Poll_Timer_InterruptOnCaptureCount */
 681:.\Generated_Source\PSoC5/Poll_Timer.c **** 
 682:.\Generated_Source\PSoC5/Poll_Timer.c **** 
 683:.\Generated_Source\PSoC5/Poll_Timer.c **** #if (Poll_Timer_UsingHWCaptureCounter)
 684:.\Generated_Source\PSoC5/Poll_Timer.c **** 
 685:.\Generated_Source\PSoC5/Poll_Timer.c **** 
 686:.\Generated_Source\PSoC5/Poll_Timer.c **** /*******************************************************************************
 687:.\Generated_Source\PSoC5/Poll_Timer.c **** * Function Name: Poll_Timer_SetCaptureCount
 688:.\Generated_Source\PSoC5/Poll_Timer.c **** ********************************************************************************
 689:.\Generated_Source\PSoC5/Poll_Timer.c **** *
 690:.\Generated_Source\PSoC5/Poll_Timer.c **** * Summary:
 691:.\Generated_Source\PSoC5/Poll_Timer.c **** *  This function sets the capture count
 692:.\Generated_Source\PSoC5/Poll_Timer.c **** *
 693:.\Generated_Source\PSoC5/Poll_Timer.c **** * Parameters:
 694:.\Generated_Source\PSoC5/Poll_Timer.c **** *  captureCount: A value between 2 and 127 inclusive is valid.  A value of 1
 695:.\Generated_Source\PSoC5/Poll_Timer.c **** *                to 127 will cause the interrupt to delay by the same number of
 696:.\Generated_Source\PSoC5/Poll_Timer.c **** *                captures.
 697:.\Generated_Source\PSoC5/Poll_Timer.c **** *
 698:.\Generated_Source\PSoC5/Poll_Timer.c **** * Return:
 699:.\Generated_Source\PSoC5/Poll_Timer.c **** *  void
 700:.\Generated_Source\PSoC5/Poll_Timer.c **** *
ARM GAS  C:\Users\Colin\AppData\Local\Temp\ccfBmISG.s 			page 23


 701:.\Generated_Source\PSoC5/Poll_Timer.c **** *******************************************************************************/
 702:.\Generated_Source\PSoC5/Poll_Timer.c **** void Poll_Timer_SetCaptureCount(uint8 captureCount) 
 703:.\Generated_Source\PSoC5/Poll_Timer.c **** {
 704:.\Generated_Source\PSoC5/Poll_Timer.c ****     Poll_Timer_CAP_COUNT = captureCount;
 705:.\Generated_Source\PSoC5/Poll_Timer.c **** }
 706:.\Generated_Source\PSoC5/Poll_Timer.c **** 
 707:.\Generated_Source\PSoC5/Poll_Timer.c **** 
 708:.\Generated_Source\PSoC5/Poll_Timer.c **** /*******************************************************************************
 709:.\Generated_Source\PSoC5/Poll_Timer.c **** * Function Name: Poll_Timer_ReadCaptureCount
 710:.\Generated_Source\PSoC5/Poll_Timer.c **** ********************************************************************************
 711:.\Generated_Source\PSoC5/Poll_Timer.c **** *
 712:.\Generated_Source\PSoC5/Poll_Timer.c **** * Summary:
 713:.\Generated_Source\PSoC5/Poll_Timer.c **** *  This function reads the capture count setting
 714:.\Generated_Source\PSoC5/Poll_Timer.c **** *
 715:.\Generated_Source\PSoC5/Poll_Timer.c **** * Parameters:
 716:.\Generated_Source\PSoC5/Poll_Timer.c **** *  void
 717:.\Generated_Source\PSoC5/Poll_Timer.c **** *
 718:.\Generated_Source\PSoC5/Poll_Timer.c **** * Return:
 719:.\Generated_Source\PSoC5/Poll_Timer.c **** *  Returns the Capture Count Setting
 720:.\Generated_Source\PSoC5/Poll_Timer.c **** *
 721:.\Generated_Source\PSoC5/Poll_Timer.c **** *******************************************************************************/
 722:.\Generated_Source\PSoC5/Poll_Timer.c **** uint8 Poll_Timer_ReadCaptureCount(void) 
 723:.\Generated_Source\PSoC5/Poll_Timer.c **** {
 724:.\Generated_Source\PSoC5/Poll_Timer.c ****     return ((uint8)Poll_Timer_CAP_COUNT);
 725:.\Generated_Source\PSoC5/Poll_Timer.c **** }
 726:.\Generated_Source\PSoC5/Poll_Timer.c **** #endif /* Poll_Timer_UsingHWCaptureCounter */
 727:.\Generated_Source\PSoC5/Poll_Timer.c **** 
 728:.\Generated_Source\PSoC5/Poll_Timer.c **** 
 729:.\Generated_Source\PSoC5/Poll_Timer.c **** /*******************************************************************************
 730:.\Generated_Source\PSoC5/Poll_Timer.c **** * Function Name: Poll_Timer_ClearFIFO
 731:.\Generated_Source\PSoC5/Poll_Timer.c **** ********************************************************************************
 732:.\Generated_Source\PSoC5/Poll_Timer.c **** *
 733:.\Generated_Source\PSoC5/Poll_Timer.c **** * Summary:
 734:.\Generated_Source\PSoC5/Poll_Timer.c **** *  This function clears all capture data from the capture FIFO
 735:.\Generated_Source\PSoC5/Poll_Timer.c **** *
 736:.\Generated_Source\PSoC5/Poll_Timer.c **** * Parameters:
 737:.\Generated_Source\PSoC5/Poll_Timer.c **** *  void
 738:.\Generated_Source\PSoC5/Poll_Timer.c **** *
 739:.\Generated_Source\PSoC5/Poll_Timer.c **** * Return:
 740:.\Generated_Source\PSoC5/Poll_Timer.c **** *  void
 741:.\Generated_Source\PSoC5/Poll_Timer.c **** *
 742:.\Generated_Source\PSoC5/Poll_Timer.c **** *******************************************************************************/
 743:.\Generated_Source\PSoC5/Poll_Timer.c **** void Poll_Timer_ClearFIFO(void) 
 744:.\Generated_Source\PSoC5/Poll_Timer.c **** {
 555              		.loc 1 744 0
 556              		.cfi_startproc
 557              		@ args = 0, pretend = 0, frame = 0
 558              		@ frame_needed = 1, uses_anonymous_args = 0
 559 0000 80B5     		push	{r7, lr}
 560              	.LCFI33:
 561              		.cfi_def_cfa_offset 8
 562              		.cfi_offset 7, -8
 563              		.cfi_offset 14, -4
 564 0002 00AF     		add	r7, sp, #0
 565              	.LCFI34:
 566              		.cfi_def_cfa_register 7
 745:.\Generated_Source\PSoC5/Poll_Timer.c ****     while(0u != (Poll_Timer_ReadStatusRegister() & Poll_Timer_STATUS_FIFONEMP))
ARM GAS  C:\Users\Colin\AppData\Local\Temp\ccfBmISG.s 			page 24


 567              		.loc 1 745 0
 568 0004 01E0     		b	.L22
 569              	.L23:
 746:.\Generated_Source\PSoC5/Poll_Timer.c ****     {
 747:.\Generated_Source\PSoC5/Poll_Timer.c ****         (void)Poll_Timer_ReadCapture();
 570              		.loc 1 747 0
 571 0006 FFF7FEFF 		bl	Poll_Timer_ReadCapture
 572              	.L22:
 745:.\Generated_Source\PSoC5/Poll_Timer.c ****     while(0u != (Poll_Timer_ReadStatusRegister() & Poll_Timer_STATUS_FIFONEMP))
 573              		.loc 1 745 0 discriminator 1
 574 000a FFF7FEFF 		bl	Poll_Timer_ReadStatusRegister
 575 000e 0346     		mov	r3, r0
 576 0010 03F00803 		and	r3, r3, #8
 577 0014 002B     		cmp	r3, #0
 578 0016 F6D1     		bne	.L23
 748:.\Generated_Source\PSoC5/Poll_Timer.c ****     }
 749:.\Generated_Source\PSoC5/Poll_Timer.c **** }
 579              		.loc 1 749 0
 580 0018 80BD     		pop	{r7, pc}
 581              		.cfi_endproc
 582              	.LFE14:
 583              		.size	Poll_Timer_ClearFIFO, .-Poll_Timer_ClearFIFO
 584 001a 00BF     		.text
 585              	.Letext0:
 586              		.file 2 ".\\Generated_Source\\PSoC5\\cytypes.h"