ARM GAS  C:\Users\Colin\AppData\Local\Temp\cc3sgpjq.s 			page 1


   1              		.syntax unified
   2              		.cpu cortex-m3
   3              		.fpu softvfp
   4              		.eabi_attribute 20, 1
   5              		.eabi_attribute 21, 1
   6              		.eabi_attribute 23, 3
   7              		.eabi_attribute 24, 1
   8              		.eabi_attribute 25, 1
   9              		.eabi_attribute 26, 1
  10              		.eabi_attribute 30, 6
  11              		.eabi_attribute 34, 1
  12              		.eabi_attribute 18, 4
  13              		.thumb
  14              		.file	"USBUART_1_cls.c"
  15              		.text
  16              	.Ltext0:
  17              		.cfi_sections	.debug_frame
  18              		.section	.text.USBUART_1_DispatchClassRqst,"ax",%progbits
  19              		.align	2
  20              		.global	USBUART_1_DispatchClassRqst
  21              		.thumb
  22              		.thumb_func
  23              		.type	USBUART_1_DispatchClassRqst, %function
  24              	USBUART_1_DispatchClassRqst:
  25              	.LFB0:
  26              		.file 1 ".\\Generated_Source\\PSoC5\\USBUART_1_cls.c"
   1:.\Generated_Source\PSoC5/USBUART_1_cls.c **** /*******************************************************************************
   2:.\Generated_Source\PSoC5/USBUART_1_cls.c **** * File Name: USBUART_1_cls.c
   3:.\Generated_Source\PSoC5/USBUART_1_cls.c **** * Version 2.60
   4:.\Generated_Source\PSoC5/USBUART_1_cls.c **** *
   5:.\Generated_Source\PSoC5/USBUART_1_cls.c **** * Description:
   6:.\Generated_Source\PSoC5/USBUART_1_cls.c **** *  USB Class request handler.
   7:.\Generated_Source\PSoC5/USBUART_1_cls.c **** *
   8:.\Generated_Source\PSoC5/USBUART_1_cls.c **** * Note:
   9:.\Generated_Source\PSoC5/USBUART_1_cls.c **** *
  10:.\Generated_Source\PSoC5/USBUART_1_cls.c **** ********************************************************************************
  11:.\Generated_Source\PSoC5/USBUART_1_cls.c **** * Copyright 2008-2013, Cypress Semiconductor Corporation.  All rights reserved.
  12:.\Generated_Source\PSoC5/USBUART_1_cls.c **** * You may use this file only in accordance with the license, terms, conditions,
  13:.\Generated_Source\PSoC5/USBUART_1_cls.c **** * disclaimers, and limitations in the end user license agreement accompanying
  14:.\Generated_Source\PSoC5/USBUART_1_cls.c **** * the software package with which this file was provided.
  15:.\Generated_Source\PSoC5/USBUART_1_cls.c **** *******************************************************************************/
  16:.\Generated_Source\PSoC5/USBUART_1_cls.c **** 
  17:.\Generated_Source\PSoC5/USBUART_1_cls.c **** #include "USBUART_1.h"
  18:.\Generated_Source\PSoC5/USBUART_1_cls.c **** 
  19:.\Generated_Source\PSoC5/USBUART_1_cls.c **** #if(USBUART_1_EXTERN_CLS == USBUART_1_FALSE)
  20:.\Generated_Source\PSoC5/USBUART_1_cls.c **** 
  21:.\Generated_Source\PSoC5/USBUART_1_cls.c **** #include "USBUART_1_pvt.h"
  22:.\Generated_Source\PSoC5/USBUART_1_cls.c **** 
  23:.\Generated_Source\PSoC5/USBUART_1_cls.c **** 
  24:.\Generated_Source\PSoC5/USBUART_1_cls.c **** /***************************************
  25:.\Generated_Source\PSoC5/USBUART_1_cls.c **** * User Implemented Class Driver Declarations.
  26:.\Generated_Source\PSoC5/USBUART_1_cls.c **** ***************************************/
  27:.\Generated_Source\PSoC5/USBUART_1_cls.c **** /* `#START USER_DEFINED_CLASS_DECLARATIONS` Place your declaration here */
  28:.\Generated_Source\PSoC5/USBUART_1_cls.c **** 
  29:.\Generated_Source\PSoC5/USBUART_1_cls.c **** /* `#END` */
  30:.\Generated_Source\PSoC5/USBUART_1_cls.c **** 
  31:.\Generated_Source\PSoC5/USBUART_1_cls.c **** 
ARM GAS  C:\Users\Colin\AppData\Local\Temp\cc3sgpjq.s 			page 2


  32:.\Generated_Source\PSoC5/USBUART_1_cls.c **** /*******************************************************************************
  33:.\Generated_Source\PSoC5/USBUART_1_cls.c **** * Function Name: USBUART_1_DispatchClassRqst
  34:.\Generated_Source\PSoC5/USBUART_1_cls.c **** ********************************************************************************
  35:.\Generated_Source\PSoC5/USBUART_1_cls.c **** * Summary:
  36:.\Generated_Source\PSoC5/USBUART_1_cls.c **** *  This routine dispatches class specific requests depend on interface class.
  37:.\Generated_Source\PSoC5/USBUART_1_cls.c **** *
  38:.\Generated_Source\PSoC5/USBUART_1_cls.c **** * Parameters:
  39:.\Generated_Source\PSoC5/USBUART_1_cls.c **** *  None.
  40:.\Generated_Source\PSoC5/USBUART_1_cls.c **** *
  41:.\Generated_Source\PSoC5/USBUART_1_cls.c **** * Return:
  42:.\Generated_Source\PSoC5/USBUART_1_cls.c **** *  requestHandled.
  43:.\Generated_Source\PSoC5/USBUART_1_cls.c **** *
  44:.\Generated_Source\PSoC5/USBUART_1_cls.c **** * Reentrant:
  45:.\Generated_Source\PSoC5/USBUART_1_cls.c **** *  No.
  46:.\Generated_Source\PSoC5/USBUART_1_cls.c **** *
  47:.\Generated_Source\PSoC5/USBUART_1_cls.c **** *******************************************************************************/
  48:.\Generated_Source\PSoC5/USBUART_1_cls.c **** uint8 USBUART_1_DispatchClassRqst(void) 
  49:.\Generated_Source\PSoC5/USBUART_1_cls.c **** {
  27              		.loc 1 49 0
  28              		.cfi_startproc
  29              		@ args = 0, pretend = 0, frame = 8
  30              		@ frame_needed = 1, uses_anonymous_args = 0
  31 0000 80B5     		push	{r7, lr}
  32              	.LCFI0:
  33              		.cfi_def_cfa_offset 8
  34              		.cfi_offset 7, -8
  35              		.cfi_offset 14, -4
  36 0002 82B0     		sub	sp, sp, #8
  37              	.LCFI1:
  38              		.cfi_def_cfa_offset 16
  39 0004 00AF     		add	r7, sp, #0
  40              	.LCFI2:
  41              		.cfi_def_cfa_register 7
  50:.\Generated_Source\PSoC5/USBUART_1_cls.c ****     uint8 requestHandled = USBUART_1_FALSE;
  42              		.loc 1 50 0
  43 0006 4FF00003 		mov	r3, #0
  44 000a FB71     		strb	r3, [r7, #7]
  51:.\Generated_Source\PSoC5/USBUART_1_cls.c ****     uint8 interfaceNumber = 0u;
  45              		.loc 1 51 0
  46 000c 4FF00003 		mov	r3, #0
  47 0010 BB71     		strb	r3, [r7, #6]
  52:.\Generated_Source\PSoC5/USBUART_1_cls.c **** 
  53:.\Generated_Source\PSoC5/USBUART_1_cls.c ****     switch(CY_GET_REG8(USBUART_1_bmRequestType) & USBUART_1_RQST_RCPT_MASK)
  48              		.loc 1 53 0
  49 0012 4FF4C043 		mov	r3, #24576
  50 0016 C4F20003 		movt	r3, 16384
  51 001a 1B78     		ldrb	r3, [r3, #0]
  52 001c DBB2     		uxtb	r3, r3
  53 001e 03F00303 		and	r3, r3, #3
  54 0022 012B     		cmp	r3, #1
  55 0024 02D0     		beq	.L3
  56 0026 022B     		cmp	r3, #2
  57 0028 07D0     		beq	.L4
  58 002a 1EE0     		b	.L12
  59              	.L3:
  54:.\Generated_Source\PSoC5/USBUART_1_cls.c ****     {
  55:.\Generated_Source\PSoC5/USBUART_1_cls.c ****         case USBUART_1_RQST_RCPT_IFC:        /* Class-specific request directed to an interface */
ARM GAS  C:\Users\Colin\AppData\Local\Temp\cc3sgpjq.s 			page 3


  56:.\Generated_Source\PSoC5/USBUART_1_cls.c ****             interfaceNumber = CY_GET_REG8(USBUART_1_wIndexLo); /* wIndexLo contain Interface number
  60              		.loc 1 56 0
  61 002c 46F20403 		movw	r3, #24580
  62 0030 C4F20003 		movt	r3, 16384
  63 0034 1B78     		ldrb	r3, [r3, #0]
  64 0036 BB71     		strb	r3, [r7, #6]
  57:.\Generated_Source\PSoC5/USBUART_1_cls.c ****             break;
  65              		.loc 1 57 0
  66 0038 18E0     		b	.L5
  67              	.L4:
  58:.\Generated_Source\PSoC5/USBUART_1_cls.c ****         case USBUART_1_RQST_RCPT_EP:         /* Class-specific request directed to the endpoint */
  59:.\Generated_Source\PSoC5/USBUART_1_cls.c ****             /* Find related interface to the endpoint, wIndexLo contain EP number */
  60:.\Generated_Source\PSoC5/USBUART_1_cls.c ****             interfaceNumber =
  61:.\Generated_Source\PSoC5/USBUART_1_cls.c ****                 USBUART_1_EP[CY_GET_REG8(USBUART_1_wIndexLo) & USBUART_1_DIR_UNUSED].interface;
  68              		.loc 1 61 0
  69 003a 46F20403 		movw	r3, #24580
  70 003e C4F20003 		movt	r3, 16384
  71 0042 1B78     		ldrb	r3, [r3, #0]
  72 0044 DBB2     		uxtb	r3, r3
  73 0046 03F07F01 		and	r1, r3, #127
  60:.\Generated_Source\PSoC5/USBUART_1_cls.c ****             interfaceNumber =
  74              		.loc 1 60 0
  75 004a 40F20002 		movw	r2, #:lower16:USBUART_1_EP
  76 004e C0F20002 		movt	r2, #:upper16:USBUART_1_EP
  77 0052 0B46     		mov	r3, r1
  78 0054 4FEA4303 		lsl	r3, r3, #1
  79 0058 5B18     		adds	r3, r3, r1
  80 005a 4FEA8303 		lsl	r3, r3, #2
  81 005e D318     		adds	r3, r2, r3
  82 0060 03F10803 		add	r3, r3, #8
  83 0064 9B78     		ldrb	r3, [r3, #2]
  84 0066 BB71     		strb	r3, [r7, #6]
  62:.\Generated_Source\PSoC5/USBUART_1_cls.c ****             break;
  85              		.loc 1 62 0
  86 0068 00E0     		b	.L5
  87              	.L12:
  63:.\Generated_Source\PSoC5/USBUART_1_cls.c ****         default:    /* RequestHandled is initialized as FALSE by default */
  64:.\Generated_Source\PSoC5/USBUART_1_cls.c ****             break;
  88              		.loc 1 64 0
  89 006a 00BF     		nop
  90              	.L5:
  65:.\Generated_Source\PSoC5/USBUART_1_cls.c ****     }
  66:.\Generated_Source\PSoC5/USBUART_1_cls.c ****     /* Handle Class request depend on interface type */
  67:.\Generated_Source\PSoC5/USBUART_1_cls.c ****     switch(USBUART_1_interfaceClass[interfaceNumber])
  91              		.loc 1 67 0
  92 006c 40F20003 		movw	r3, #:lower16:USBUART_1_interfaceClass
  93 0070 C0F20003 		movt	r3, #:upper16:USBUART_1_interfaceClass
  94 0074 1A68     		ldr	r2, [r3, #0]
  95 0076 BB79     		ldrb	r3, [r7, #6]	@ zero_extendqisi2
  96 0078 D318     		adds	r3, r2, r3
  97 007a 1B78     		ldrb	r3, [r3, #0]	@ zero_extendqisi2
  98 007c 022B     		cmp	r3, #2
  99 007e 09D0     		beq	.L8
 100 0080 032B     		cmp	r3, #3
 101 0082 02D0     		beq	.L9
 102 0084 012B     		cmp	r3, #1
 103 0086 0BD0     		beq	.L14
ARM GAS  C:\Users\Colin\AppData\Local\Temp\cc3sgpjq.s 			page 4


 104 0088 09E0     		b	.L13
 105              	.L9:
  68:.\Generated_Source\PSoC5/USBUART_1_cls.c ****     {
  69:.\Generated_Source\PSoC5/USBUART_1_cls.c ****         case USBUART_1_CLASS_HID:
  70:.\Generated_Source\PSoC5/USBUART_1_cls.c ****             #if defined(USBUART_1_ENABLE_HID_CLASS)
  71:.\Generated_Source\PSoC5/USBUART_1_cls.c ****                 requestHandled = USBUART_1_DispatchHIDClassRqst();
 106              		.loc 1 71 0
 107 008a FFF7FEFF 		bl	USBUART_1_DispatchHIDClassRqst
 108 008e 0346     		mov	r3, r0
 109 0090 FB71     		strb	r3, [r7, #7]
  72:.\Generated_Source\PSoC5/USBUART_1_cls.c ****             #endif /* USBUART_1_ENABLE_HID_CLASS */
  73:.\Generated_Source\PSoC5/USBUART_1_cls.c ****             break;
 110              		.loc 1 73 0
 111 0092 06E0     		b	.L10
 112              	.L8:
  74:.\Generated_Source\PSoC5/USBUART_1_cls.c ****         case USBUART_1_CLASS_AUDIO:
  75:.\Generated_Source\PSoC5/USBUART_1_cls.c ****             #if defined(USBUART_1_ENABLE_AUDIO_CLASS)
  76:.\Generated_Source\PSoC5/USBUART_1_cls.c ****                 requestHandled = USBUART_1_DispatchAUDIOClassRqst();
  77:.\Generated_Source\PSoC5/USBUART_1_cls.c ****             #endif /* USBUART_1_ENABLE_HID_CLASS */
  78:.\Generated_Source\PSoC5/USBUART_1_cls.c ****             break;
  79:.\Generated_Source\PSoC5/USBUART_1_cls.c ****         case USBUART_1_CLASS_CDC:
  80:.\Generated_Source\PSoC5/USBUART_1_cls.c ****             #if defined(USBUART_1_ENABLE_CDC_CLASS)
  81:.\Generated_Source\PSoC5/USBUART_1_cls.c ****                 requestHandled = USBUART_1_DispatchCDCClassRqst();
 113              		.loc 1 81 0
 114 0094 FFF7FEFF 		bl	USBUART_1_DispatchCDCClassRqst
 115 0098 0346     		mov	r3, r0
 116 009a FB71     		strb	r3, [r7, #7]
  82:.\Generated_Source\PSoC5/USBUART_1_cls.c ****             #endif /* USBUART_1_ENABLE_CDC_CLASS */
  83:.\Generated_Source\PSoC5/USBUART_1_cls.c ****             break;
 117              		.loc 1 83 0
 118 009c 01E0     		b	.L10
 119              	.L13:
  84:.\Generated_Source\PSoC5/USBUART_1_cls.c ****         default:    /* requestHandled is initialized as FALSE by default */
  85:.\Generated_Source\PSoC5/USBUART_1_cls.c ****             break;
 120              		.loc 1 85 0
 121 009e 00E0     		b	.L10
 122              	.L14:
  78:.\Generated_Source\PSoC5/USBUART_1_cls.c ****             break;
 123              		.loc 1 78 0
 124 00a0 00BF     		nop
 125              	.L10:
  86:.\Generated_Source\PSoC5/USBUART_1_cls.c ****     }
  87:.\Generated_Source\PSoC5/USBUART_1_cls.c **** 
  88:.\Generated_Source\PSoC5/USBUART_1_cls.c ****     /* `#START USER_DEFINED_CLASS_CODE` Place your Class request here */
  89:.\Generated_Source\PSoC5/USBUART_1_cls.c **** 
  90:.\Generated_Source\PSoC5/USBUART_1_cls.c ****     /* `#END` */
  91:.\Generated_Source\PSoC5/USBUART_1_cls.c **** 
  92:.\Generated_Source\PSoC5/USBUART_1_cls.c ****     return(requestHandled);
 126              		.loc 1 92 0
 127 00a2 FB79     		ldrb	r3, [r7, #7]	@ zero_extendqisi2
  93:.\Generated_Source\PSoC5/USBUART_1_cls.c **** }
 128              		.loc 1 93 0
 129 00a4 1846     		mov	r0, r3
 130 00a6 07F10807 		add	r7, r7, #8
 131 00aa BD46     		mov	sp, r7
 132 00ac 80BD     		pop	{r7, pc}
 133              		.cfi_endproc
ARM GAS  C:\Users\Colin\AppData\Local\Temp\cc3sgpjq.s 			page 5


 134              	.LFE0:
 135              		.size	USBUART_1_DispatchClassRqst, .-USBUART_1_DispatchClassRqst
 136 00ae 00BF     		.text
 137              	.Letext0:
 138              		.file 2 ".\\Generated_Source\\PSoC5\\cytypes.h"
 139              		.file 3 ".\\Generated_Source\\PSoC5\\USBUART_1.h"
 140              		.file 4 ".\\Generated_Source\\PSoC5\\USBUART_1_pvt.h"