ARM GAS  C:\Users\Colin\AppData\Local\Temp\ccMAPRQY.s 			page 1


   1              		.syntax unified
   2              		.cpu cortex-m3
   3              		.fpu softvfp
   4              		.eabi_attribute 20, 1
   5              		.eabi_attribute 21, 1
   6              		.eabi_attribute 23, 3
   7              		.eabi_attribute 24, 1
   8              		.eabi_attribute 25, 1
   9              		.eabi_attribute 26, 1
  10              		.eabi_attribute 30, 6
  11              		.eabi_attribute 34, 1
  12              		.eabi_attribute 18, 4
  13              		.thumb
  14              		.file	"USBUART_1.c"
  15              		.text
  16              	.Ltext0:
  17              		.cfi_sections	.debug_frame
  18              		.global	USBUART_1_initVar
  19              		.bss
  20              		.type	USBUART_1_initVar, %object
  21              		.size	USBUART_1_initVar, 1
  22              	USBUART_1_initVar:
  23 0000 00       		.space	1
  24              		.section	.text.USBUART_1_Start,"ax",%progbits
  25              		.align	2
  26              		.global	USBUART_1_Start
  27              		.thumb
  28              		.thumb_func
  29              		.type	USBUART_1_Start, %function
  30              	USBUART_1_Start:
  31              	.LFB0:
  32              		.file 1 ".\\Generated_Source\\PSoC5\\USBUART_1.c"
   1:.\Generated_Source\PSoC5/USBUART_1.c **** /*******************************************************************************
   2:.\Generated_Source\PSoC5/USBUART_1.c **** * File Name: USBUART_1.c
   3:.\Generated_Source\PSoC5/USBUART_1.c **** * Version 2.60
   4:.\Generated_Source\PSoC5/USBUART_1.c **** *
   5:.\Generated_Source\PSoC5/USBUART_1.c **** * Description:
   6:.\Generated_Source\PSoC5/USBUART_1.c **** *  API for USBFS Component.
   7:.\Generated_Source\PSoC5/USBUART_1.c **** *
   8:.\Generated_Source\PSoC5/USBUART_1.c **** * Note:
   9:.\Generated_Source\PSoC5/USBUART_1.c **** *  Many of the functions use endpoint number.  RAM arrays are sized with 9
  10:.\Generated_Source\PSoC5/USBUART_1.c **** *  elements so they are indexed directly by epNumber.  The SIE and ARB
  11:.\Generated_Source\PSoC5/USBUART_1.c **** *  registers are indexed by variations of epNumber - 1.
  12:.\Generated_Source\PSoC5/USBUART_1.c **** *
  13:.\Generated_Source\PSoC5/USBUART_1.c **** ********************************************************************************
  14:.\Generated_Source\PSoC5/USBUART_1.c **** * Copyright 2008-2013, Cypress Semiconductor Corporation.  All rights reserved.
  15:.\Generated_Source\PSoC5/USBUART_1.c **** * You may use this file only in accordance with the license, terms, conditions,
  16:.\Generated_Source\PSoC5/USBUART_1.c **** * disclaimers, and limitations in the end user license agreement accompanying
  17:.\Generated_Source\PSoC5/USBUART_1.c **** * the software package with which this file was provided.
  18:.\Generated_Source\PSoC5/USBUART_1.c **** *******************************************************************************/
  19:.\Generated_Source\PSoC5/USBUART_1.c **** 
  20:.\Generated_Source\PSoC5/USBUART_1.c **** #include <CyDmac.h>
  21:.\Generated_Source\PSoC5/USBUART_1.c **** #include "USBUART_1.h"
  22:.\Generated_Source\PSoC5/USBUART_1.c **** #include "USBUART_1_pvt.h"
  23:.\Generated_Source\PSoC5/USBUART_1.c **** #include "USBUART_1_hid.h"
  24:.\Generated_Source\PSoC5/USBUART_1.c **** #if(USBUART_1_DMA1_REMOVE == 0u)
  25:.\Generated_Source\PSoC5/USBUART_1.c ****     #include "USBUART_1_ep1_dma.h"
ARM GAS  C:\Users\Colin\AppData\Local\Temp\ccMAPRQY.s 			page 2


  26:.\Generated_Source\PSoC5/USBUART_1.c **** #endif   /* End USBUART_1_DMA1_REMOVE */
  27:.\Generated_Source\PSoC5/USBUART_1.c **** #if(USBUART_1_DMA2_REMOVE == 0u)
  28:.\Generated_Source\PSoC5/USBUART_1.c ****     #include "USBUART_1_ep2_dma.h"
  29:.\Generated_Source\PSoC5/USBUART_1.c **** #endif   /* End USBUART_1_DMA2_REMOVE */
  30:.\Generated_Source\PSoC5/USBUART_1.c **** #if(USBUART_1_DMA3_REMOVE == 0u)
  31:.\Generated_Source\PSoC5/USBUART_1.c ****     #include "USBUART_1_ep3_dma.h"
  32:.\Generated_Source\PSoC5/USBUART_1.c **** #endif   /* End USBUART_1_DMA3_REMOVE */
  33:.\Generated_Source\PSoC5/USBUART_1.c **** #if(USBUART_1_DMA4_REMOVE == 0u)
  34:.\Generated_Source\PSoC5/USBUART_1.c ****     #include "USBUART_1_ep4_dma.h"
  35:.\Generated_Source\PSoC5/USBUART_1.c **** #endif   /* End USBUART_1_DMA4_REMOVE */
  36:.\Generated_Source\PSoC5/USBUART_1.c **** #if(USBUART_1_DMA5_REMOVE == 0u)
  37:.\Generated_Source\PSoC5/USBUART_1.c ****     #include "USBUART_1_ep5_dma.h"
  38:.\Generated_Source\PSoC5/USBUART_1.c **** #endif   /* End USBUART_1_DMA5_REMOVE */
  39:.\Generated_Source\PSoC5/USBUART_1.c **** #if(USBUART_1_DMA6_REMOVE == 0u)
  40:.\Generated_Source\PSoC5/USBUART_1.c ****     #include "USBUART_1_ep6_dma.h"
  41:.\Generated_Source\PSoC5/USBUART_1.c **** #endif   /* End USBUART_1_DMA6_REMOVE */
  42:.\Generated_Source\PSoC5/USBUART_1.c **** #if(USBUART_1_DMA7_REMOVE == 0u)
  43:.\Generated_Source\PSoC5/USBUART_1.c ****     #include "USBUART_1_ep7_dma.h"
  44:.\Generated_Source\PSoC5/USBUART_1.c **** #endif   /* End USBUART_1_DMA7_REMOVE */
  45:.\Generated_Source\PSoC5/USBUART_1.c **** #if(USBUART_1_DMA8_REMOVE == 0u)
  46:.\Generated_Source\PSoC5/USBUART_1.c ****     #include "USBUART_1_ep8_dma.h"
  47:.\Generated_Source\PSoC5/USBUART_1.c **** #endif   /* End USBUART_1_DMA8_REMOVE */
  48:.\Generated_Source\PSoC5/USBUART_1.c **** 
  49:.\Generated_Source\PSoC5/USBUART_1.c **** 
  50:.\Generated_Source\PSoC5/USBUART_1.c **** /***************************************
  51:.\Generated_Source\PSoC5/USBUART_1.c **** * Global data allocation
  52:.\Generated_Source\PSoC5/USBUART_1.c **** ***************************************/
  53:.\Generated_Source\PSoC5/USBUART_1.c **** 
  54:.\Generated_Source\PSoC5/USBUART_1.c **** uint8 USBUART_1_initVar = 0u;
  55:.\Generated_Source\PSoC5/USBUART_1.c **** #if(USBUART_1_EP_MM != USBUART_1__EP_MANUAL)
  56:.\Generated_Source\PSoC5/USBUART_1.c ****     uint8 USBUART_1_DmaChan[USBUART_1_MAX_EP];
  57:.\Generated_Source\PSoC5/USBUART_1.c ****     uint8 USBUART_1_DmaTd[USBUART_1_MAX_EP];
  58:.\Generated_Source\PSoC5/USBUART_1.c **** #endif /* End USBUART_1_EP_MM */
  59:.\Generated_Source\PSoC5/USBUART_1.c **** 
  60:.\Generated_Source\PSoC5/USBUART_1.c **** 
  61:.\Generated_Source\PSoC5/USBUART_1.c **** /*******************************************************************************
  62:.\Generated_Source\PSoC5/USBUART_1.c **** * Function Name: USBUART_1_Start
  63:.\Generated_Source\PSoC5/USBUART_1.c **** ********************************************************************************
  64:.\Generated_Source\PSoC5/USBUART_1.c **** *
  65:.\Generated_Source\PSoC5/USBUART_1.c **** * Summary:
  66:.\Generated_Source\PSoC5/USBUART_1.c **** *  This function initialize the USB SIE, arbiter and the
  67:.\Generated_Source\PSoC5/USBUART_1.c **** *  endpoint APIs, including setting the D+ Pullup
  68:.\Generated_Source\PSoC5/USBUART_1.c **** *
  69:.\Generated_Source\PSoC5/USBUART_1.c **** * Parameters:
  70:.\Generated_Source\PSoC5/USBUART_1.c **** *  device: Contains the device number of the desired device descriptor.
  71:.\Generated_Source\PSoC5/USBUART_1.c **** *          The device number can be found in the Device Descriptor Tab of
  72:.\Generated_Source\PSoC5/USBUART_1.c **** *          "Configure" dialog, under the settings of desired Device Descriptor,
  73:.\Generated_Source\PSoC5/USBUART_1.c **** *          in the "Device Number" field.
  74:.\Generated_Source\PSoC5/USBUART_1.c **** *  mode: The operating voltage. This determines whether the voltage regulator
  75:.\Generated_Source\PSoC5/USBUART_1.c **** *        is enabled for 5V operation or if pass through mode is used for 3.3V
  76:.\Generated_Source\PSoC5/USBUART_1.c **** *        operation. Symbolic names and their associated values are given in the
  77:.\Generated_Source\PSoC5/USBUART_1.c **** *        following table.
  78:.\Generated_Source\PSoC5/USBUART_1.c **** *       USBUART_1_3V_OPERATION - Disable voltage regulator and pass-thru
  79:.\Generated_Source\PSoC5/USBUART_1.c **** *                                       Vcc for pull-up
  80:.\Generated_Source\PSoC5/USBUART_1.c **** *       USBUART_1_5V_OPERATION - Enable voltage regulator and use
  81:.\Generated_Source\PSoC5/USBUART_1.c **** *                                       regulator for pull-up
  82:.\Generated_Source\PSoC5/USBUART_1.c **** *       USBUART_1_DWR_VDDD_OPERATION - Enable or Disable voltage
ARM GAS  C:\Users\Colin\AppData\Local\Temp\ccMAPRQY.s 			page 3


  83:.\Generated_Source\PSoC5/USBUART_1.c **** *                         regulator depend on Vddd Voltage configuration in DWR.
  84:.\Generated_Source\PSoC5/USBUART_1.c **** *
  85:.\Generated_Source\PSoC5/USBUART_1.c **** * Return:
  86:.\Generated_Source\PSoC5/USBUART_1.c **** *   None.
  87:.\Generated_Source\PSoC5/USBUART_1.c **** *
  88:.\Generated_Source\PSoC5/USBUART_1.c **** * Global variables:
  89:.\Generated_Source\PSoC5/USBUART_1.c **** *  The USBUART_1_intiVar variable is used to indicate initial
  90:.\Generated_Source\PSoC5/USBUART_1.c **** *  configuration of this component. The variable is initialized to zero (0u)
  91:.\Generated_Source\PSoC5/USBUART_1.c **** *  and set to one (1u) the first time USBUART_1_Start() is called.
  92:.\Generated_Source\PSoC5/USBUART_1.c **** *  This allows for component Re-Start without unnecessary re-initialization
  93:.\Generated_Source\PSoC5/USBUART_1.c **** *  in all subsequent calls to the USBUART_1_Start() routine.
  94:.\Generated_Source\PSoC5/USBUART_1.c **** *  If re-initialization of the component is required the variable should be set
  95:.\Generated_Source\PSoC5/USBUART_1.c **** *  to zero before call of UART_Start() routine, or the user may call
  96:.\Generated_Source\PSoC5/USBUART_1.c **** *  USBUART_1_Init() and USBUART_1_InitComponent() as done
  97:.\Generated_Source\PSoC5/USBUART_1.c **** *  in the USBUART_1_Start() routine.
  98:.\Generated_Source\PSoC5/USBUART_1.c **** *
  99:.\Generated_Source\PSoC5/USBUART_1.c **** * Side Effects:
 100:.\Generated_Source\PSoC5/USBUART_1.c **** *   This function will reset all communication states to default.
 101:.\Generated_Source\PSoC5/USBUART_1.c **** *
 102:.\Generated_Source\PSoC5/USBUART_1.c **** * Reentrant:
 103:.\Generated_Source\PSoC5/USBUART_1.c **** *  No.
 104:.\Generated_Source\PSoC5/USBUART_1.c **** *
 105:.\Generated_Source\PSoC5/USBUART_1.c **** *******************************************************************************/
 106:.\Generated_Source\PSoC5/USBUART_1.c **** void USBUART_1_Start(uint8 device, uint8 mode) 
 107:.\Generated_Source\PSoC5/USBUART_1.c **** {
  33              		.loc 1 107 0
  34              		.cfi_startproc
  35              		@ args = 0, pretend = 0, frame = 8
  36              		@ frame_needed = 1, uses_anonymous_args = 0
  37 0000 80B5     		push	{r7, lr}
  38              	.LCFI0:
  39              		.cfi_def_cfa_offset 8
  40              		.cfi_offset 7, -8
  41              		.cfi_offset 14, -4
  42 0002 82B0     		sub	sp, sp, #8
  43              	.LCFI1:
  44              		.cfi_def_cfa_offset 16
  45 0004 00AF     		add	r7, sp, #0
  46              	.LCFI2:
  47              		.cfi_def_cfa_register 7
  48 0006 0246     		mov	r2, r0
  49 0008 0B46     		mov	r3, r1
  50 000a FA71     		strb	r2, [r7, #7]
  51 000c BB71     		strb	r3, [r7, #6]
 108:.\Generated_Source\PSoC5/USBUART_1.c ****     /* If not Initialized then initialize all required hardware and software */
 109:.\Generated_Source\PSoC5/USBUART_1.c ****     if(USBUART_1_initVar == 0u)
  52              		.loc 1 109 0
  53 000e 40F20003 		movw	r3, #:lower16:USBUART_1_initVar
  54 0012 C0F20003 		movt	r3, #:upper16:USBUART_1_initVar
  55 0016 1B78     		ldrb	r3, [r3, #0]	@ zero_extendqisi2
  56 0018 002B     		cmp	r3, #0
  57 001a 08D1     		bne	.L2
 110:.\Generated_Source\PSoC5/USBUART_1.c ****     {
 111:.\Generated_Source\PSoC5/USBUART_1.c ****         USBUART_1_Init();
  58              		.loc 1 111 0
  59 001c FFF7FEFF 		bl	USBUART_1_Init
 112:.\Generated_Source\PSoC5/USBUART_1.c ****         USBUART_1_initVar = 1u;
ARM GAS  C:\Users\Colin\AppData\Local\Temp\ccMAPRQY.s 			page 4


  60              		.loc 1 112 0
  61 0020 40F20003 		movw	r3, #:lower16:USBUART_1_initVar
  62 0024 C0F20003 		movt	r3, #:upper16:USBUART_1_initVar
  63 0028 4FF00102 		mov	r2, #1
  64 002c 1A70     		strb	r2, [r3, #0]
  65              	.L2:
 113:.\Generated_Source\PSoC5/USBUART_1.c ****     }
 114:.\Generated_Source\PSoC5/USBUART_1.c ****     USBUART_1_InitComponent(device, mode);
  66              		.loc 1 114 0
  67 002e FA79     		ldrb	r2, [r7, #7]	@ zero_extendqisi2
  68 0030 BB79     		ldrb	r3, [r7, #6]	@ zero_extendqisi2
  69 0032 1046     		mov	r0, r2
  70 0034 1946     		mov	r1, r3
  71 0036 FFF7FEFF 		bl	USBUART_1_InitComponent
 115:.\Generated_Source\PSoC5/USBUART_1.c **** }
  72              		.loc 1 115 0
  73 003a 07F10807 		add	r7, r7, #8
  74 003e BD46     		mov	sp, r7
  75 0040 80BD     		pop	{r7, pc}
  76              		.cfi_endproc
  77              	.LFE0:
  78              		.size	USBUART_1_Start, .-USBUART_1_Start
  79 0042 00BF     		.section	.text.USBUART_1_Init,"ax",%progbits
  80              		.align	2
  81              		.global	USBUART_1_Init
  82              		.thumb
  83              		.thumb_func
  84              		.type	USBUART_1_Init, %function
  85              	USBUART_1_Init:
  86              	.LFB1:
 116:.\Generated_Source\PSoC5/USBUART_1.c **** 
 117:.\Generated_Source\PSoC5/USBUART_1.c **** 
 118:.\Generated_Source\PSoC5/USBUART_1.c **** /*******************************************************************************
 119:.\Generated_Source\PSoC5/USBUART_1.c **** * Function Name: USBUART_1_Init
 120:.\Generated_Source\PSoC5/USBUART_1.c **** ********************************************************************************
 121:.\Generated_Source\PSoC5/USBUART_1.c **** *
 122:.\Generated_Source\PSoC5/USBUART_1.c **** * Summary:
 123:.\Generated_Source\PSoC5/USBUART_1.c **** *  Initialize component's hardware. Usually called in USBUART_1_Start().
 124:.\Generated_Source\PSoC5/USBUART_1.c **** *
 125:.\Generated_Source\PSoC5/USBUART_1.c **** * Parameters:
 126:.\Generated_Source\PSoC5/USBUART_1.c **** *  None.
 127:.\Generated_Source\PSoC5/USBUART_1.c **** *
 128:.\Generated_Source\PSoC5/USBUART_1.c **** * Return:
 129:.\Generated_Source\PSoC5/USBUART_1.c **** *  None.
 130:.\Generated_Source\PSoC5/USBUART_1.c **** *
 131:.\Generated_Source\PSoC5/USBUART_1.c **** * Reentrant:
 132:.\Generated_Source\PSoC5/USBUART_1.c **** *  No.
 133:.\Generated_Source\PSoC5/USBUART_1.c **** *
 134:.\Generated_Source\PSoC5/USBUART_1.c **** *******************************************************************************/
 135:.\Generated_Source\PSoC5/USBUART_1.c **** void USBUART_1_Init(void) 
 136:.\Generated_Source\PSoC5/USBUART_1.c **** {
  87              		.loc 1 136 0
  88              		.cfi_startproc
  89              		@ args = 0, pretend = 0, frame = 8
  90              		@ frame_needed = 1, uses_anonymous_args = 0
  91 0000 80B5     		push	{r7, lr}
  92              	.LCFI3:
ARM GAS  C:\Users\Colin\AppData\Local\Temp\ccMAPRQY.s 			page 5


  93              		.cfi_def_cfa_offset 8
  94              		.cfi_offset 7, -8
  95              		.cfi_offset 14, -4
  96 0002 82B0     		sub	sp, sp, #8
  97              	.LCFI4:
  98              		.cfi_def_cfa_offset 16
  99 0004 00AF     		add	r7, sp, #0
 100              	.LCFI5:
 101              		.cfi_def_cfa_register 7
 137:.\Generated_Source\PSoC5/USBUART_1.c ****     uint8 enableInterrupts;
 138:.\Generated_Source\PSoC5/USBUART_1.c ****     #if(USBUART_1_EP_MM != USBUART_1__EP_MANUAL)
 139:.\Generated_Source\PSoC5/USBUART_1.c ****         uint16 i;
 140:.\Generated_Source\PSoC5/USBUART_1.c ****     #endif   /* End USBUART_1_EP_MM != USBUART_1__EP_MANUAL */
 141:.\Generated_Source\PSoC5/USBUART_1.c **** 
 142:.\Generated_Source\PSoC5/USBUART_1.c ****     enableInterrupts = CyEnterCriticalSection();
 102              		.loc 1 142 0
 103 0006 FFF7FEFF 		bl	CyEnterCriticalSection
 104 000a 0346     		mov	r3, r0
 105 000c FB71     		strb	r3, [r7, #7]
 143:.\Generated_Source\PSoC5/USBUART_1.c **** 
 144:.\Generated_Source\PSoC5/USBUART_1.c ****     /* Enable USB block  */
 145:.\Generated_Source\PSoC5/USBUART_1.c ****     USBUART_1_PM_ACT_CFG_REG |= USBUART_1_PM_ACT_EN_FSUSB;
 106              		.loc 1 145 0
 107 000e 44F2A533 		movw	r3, #17317
 108 0012 C4F20003 		movt	r3, 16384
 109 0016 44F2A532 		movw	r2, #17317
 110 001a C4F20002 		movt	r2, 16384
 111 001e 1278     		ldrb	r2, [r2, #0]
 112 0020 D2B2     		uxtb	r2, r2
 113 0022 42F00102 		orr	r2, r2, #1
 114 0026 D2B2     		uxtb	r2, r2
 115 0028 1A70     		strb	r2, [r3, #0]
 146:.\Generated_Source\PSoC5/USBUART_1.c ****     /* Enable USB block for Standby Power Mode */
 147:.\Generated_Source\PSoC5/USBUART_1.c ****     USBUART_1_PM_STBY_CFG_REG |= USBUART_1_PM_STBY_EN_FSUSB;
 116              		.loc 1 147 0
 117 002a 44F2B533 		movw	r3, #17333
 118 002e C4F20003 		movt	r3, 16384
 119 0032 44F2B532 		movw	r2, #17333
 120 0036 C4F20002 		movt	r2, 16384
 121 003a 1278     		ldrb	r2, [r2, #0]
 122 003c D2B2     		uxtb	r2, r2
 123 003e 42F00102 		orr	r2, r2, #1
 124 0042 D2B2     		uxtb	r2, r2
 125 0044 1A70     		strb	r2, [r3, #0]
 148:.\Generated_Source\PSoC5/USBUART_1.c **** 
 149:.\Generated_Source\PSoC5/USBUART_1.c ****     /* Enable core clock */
 150:.\Generated_Source\PSoC5/USBUART_1.c ****     USBUART_1_USB_CLK_EN_REG = USBUART_1_USB_CLK_ENABLE;
 126              		.loc 1 150 0
 127 0046 46F29D03 		movw	r3, #24733
 128 004a C4F20003 		movt	r3, 16384
 129 004e 4FF00102 		mov	r2, #1
 130 0052 1A70     		strb	r2, [r3, #0]
 151:.\Generated_Source\PSoC5/USBUART_1.c **** 
 152:.\Generated_Source\PSoC5/USBUART_1.c ****     USBUART_1_CR1_REG = USBUART_1_CR1_ENABLE_LOCK;
 131              		.loc 1 152 0
 132 0054 46F20903 		movw	r3, #24585
 133 0058 C4F20003 		movt	r3, 16384
ARM GAS  C:\Users\Colin\AppData\Local\Temp\ccMAPRQY.s 			page 6


 134 005c 4FF00202 		mov	r2, #2
 135 0060 1A70     		strb	r2, [r3, #0]
 153:.\Generated_Source\PSoC5/USBUART_1.c **** 
 154:.\Generated_Source\PSoC5/USBUART_1.c ****     /* ENABLING USBIO PADS IN USB MODE FROM I/O MODE */
 155:.\Generated_Source\PSoC5/USBUART_1.c ****     /* Ensure USB transmit enable is low (USB_USBIO_CR0.ten). - Manual Transmission - Disabled */
 156:.\Generated_Source\PSoC5/USBUART_1.c ****     USBUART_1_USBIO_CR0_REG &= ((uint8)(~USBUART_1_USBIO_CR0_TEN));
 136              		.loc 1 156 0
 137 0062 46F21003 		movw	r3, #24592
 138 0066 C4F20003 		movt	r3, 16384
 139 006a 46F21002 		movw	r2, #24592
 140 006e C4F20002 		movt	r2, 16384
 141 0072 1278     		ldrb	r2, [r2, #0]
 142 0074 D2B2     		uxtb	r2, r2
 143 0076 02F07F02 		and	r2, r2, #127
 144 007a D2B2     		uxtb	r2, r2
 145 007c 1A70     		strb	r2, [r3, #0]
 157:.\Generated_Source\PSoC5/USBUART_1.c ****     CyDelayUs(0u);  /*~50ns delay */
 146              		.loc 1 157 0
 147 007e 4FF00000 		mov	r0, #0
 148 0082 FFF7FEFF 		bl	CyDelayUs
 158:.\Generated_Source\PSoC5/USBUART_1.c ****     /* Disable the USBIO by asserting PM.USB_CR0.fsusbio_pd_n(Inverted)
 159:.\Generated_Source\PSoC5/USBUART_1.c ****     *  high. This will have been set low by the power manger out of reset.
 160:.\Generated_Source\PSoC5/USBUART_1.c ****     *  Also confirm USBIO pull-up disabled
 161:.\Generated_Source\PSoC5/USBUART_1.c ****     */
 162:.\Generated_Source\PSoC5/USBUART_1.c ****     USBUART_1_PM_USB_CR0_REG &= ((uint8)(~(USBUART_1_PM_USB_CR0_PD_N |
 149              		.loc 1 162 0
 150 0086 44F29433 		movw	r3, #17300
 151 008a C4F20003 		movt	r3, 16384
 152 008e 44F29432 		movw	r2, #17300
 153 0092 C4F20002 		movt	r2, 16384
 154 0096 1278     		ldrb	r2, [r2, #0]
 155 0098 D2B2     		uxtb	r2, r2
 156 009a 22F00602 		bic	r2, r2, #6
 157 009e D2B2     		uxtb	r2, r2
 158 00a0 1A70     		strb	r2, [r3, #0]
 163:.\Generated_Source\PSoC5/USBUART_1.c ****                                                   USBUART_1_PM_USB_CR0_PD_PULLUP_N)));
 164:.\Generated_Source\PSoC5/USBUART_1.c **** 
 165:.\Generated_Source\PSoC5/USBUART_1.c ****     /* Select iomode to USB mode*/
 166:.\Generated_Source\PSoC5/USBUART_1.c ****     USBUART_1_USBIO_CR1_REG &= ((uint8)(~USBUART_1_USBIO_CR1_IOMODE));
 159              		.loc 1 166 0
 160 00a2 46F21203 		movw	r3, #24594
 161 00a6 C4F20003 		movt	r3, 16384
 162 00aa 46F21202 		movw	r2, #24594
 163 00ae C4F20002 		movt	r2, 16384
 164 00b2 1278     		ldrb	r2, [r2, #0]
 165 00b4 D2B2     		uxtb	r2, r2
 166 00b6 22F02002 		bic	r2, r2, #32
 167 00ba D2B2     		uxtb	r2, r2
 168 00bc 1A70     		strb	r2, [r3, #0]
 167:.\Generated_Source\PSoC5/USBUART_1.c **** 
 168:.\Generated_Source\PSoC5/USBUART_1.c ****     /* Enable the USBIO reference by setting PM.USB_CR0.fsusbio_ref_en.*/
 169:.\Generated_Source\PSoC5/USBUART_1.c ****     USBUART_1_PM_USB_CR0_REG |= USBUART_1_PM_USB_CR0_REF_EN;
 169              		.loc 1 169 0
 170 00be 44F29433 		movw	r3, #17300
 171 00c2 C4F20003 		movt	r3, 16384
 172 00c6 44F29432 		movw	r2, #17300
 173 00ca C4F20002 		movt	r2, 16384
ARM GAS  C:\Users\Colin\AppData\Local\Temp\ccMAPRQY.s 			page 7


 174 00ce 1278     		ldrb	r2, [r2, #0]
 175 00d0 D2B2     		uxtb	r2, r2
 176 00d2 42F00102 		orr	r2, r2, #1
 177 00d6 D2B2     		uxtb	r2, r2
 178 00d8 1A70     		strb	r2, [r3, #0]
 170:.\Generated_Source\PSoC5/USBUART_1.c ****     /* The reference will be available 1 us after the regulator is enabled */
 171:.\Generated_Source\PSoC5/USBUART_1.c ****     CyDelayUs(1u);
 179              		.loc 1 171 0
 180 00da 4FF00100 		mov	r0, #1
 181 00de FFF7FEFF 		bl	CyDelayUs
 172:.\Generated_Source\PSoC5/USBUART_1.c ****     /* OR 40us after power restored */
 173:.\Generated_Source\PSoC5/USBUART_1.c ****     CyDelayUs(40u);
 182              		.loc 1 173 0
 183 00e2 4FF02800 		mov	r0, #40
 184 00e6 FFF7FEFF 		bl	CyDelayUs
 174:.\Generated_Source\PSoC5/USBUART_1.c ****     /* Ensure the single ended disable bits are low (PRT15.INP_DIS[7:6])(input receiver enabled). *
 175:.\Generated_Source\PSoC5/USBUART_1.c ****     USBUART_1_DM_INP_DIS_REG &= ((uint8)(~USBUART_1_DM_MASK));
 185              		.loc 1 175 0
 186 00ea 45F2F813 		movw	r3, #20984
 187 00ee C4F20003 		movt	r3, 16384
 188 00f2 45F2F812 		movw	r2, #20984
 189 00f6 C4F20002 		movt	r2, 16384
 190 00fa 1278     		ldrb	r2, [r2, #0]
 191 00fc D2B2     		uxtb	r2, r2
 192 00fe 02F07F02 		and	r2, r2, #127
 193 0102 D2B2     		uxtb	r2, r2
 194 0104 1A70     		strb	r2, [r3, #0]
 176:.\Generated_Source\PSoC5/USBUART_1.c ****     USBUART_1_DP_INP_DIS_REG &= ((uint8)(~USBUART_1_DP_MASK));
 195              		.loc 1 176 0
 196 0106 45F2F813 		movw	r3, #20984
 197 010a C4F20003 		movt	r3, 16384
 198 010e 45F2F812 		movw	r2, #20984
 199 0112 C4F20002 		movt	r2, 16384
 200 0116 1278     		ldrb	r2, [r2, #0]
 201 0118 D2B2     		uxtb	r2, r2
 202 011a 22F04002 		bic	r2, r2, #64
 203 011e D2B2     		uxtb	r2, r2
 204 0120 1A70     		strb	r2, [r3, #0]
 177:.\Generated_Source\PSoC5/USBUART_1.c **** 
 178:.\Generated_Source\PSoC5/USBUART_1.c ****     /* Enable USBIO */
 179:.\Generated_Source\PSoC5/USBUART_1.c ****     USBUART_1_PM_USB_CR0_REG |= USBUART_1_PM_USB_CR0_PD_N;
 205              		.loc 1 179 0
 206 0122 44F29433 		movw	r3, #17300
 207 0126 C4F20003 		movt	r3, 16384
 208 012a 44F29432 		movw	r2, #17300
 209 012e C4F20002 		movt	r2, 16384
 210 0132 1278     		ldrb	r2, [r2, #0]
 211 0134 D2B2     		uxtb	r2, r2
 212 0136 42F00202 		orr	r2, r2, #2
 213 013a D2B2     		uxtb	r2, r2
 214 013c 1A70     		strb	r2, [r3, #0]
 180:.\Generated_Source\PSoC5/USBUART_1.c ****     CyDelayUs(2u);
 215              		.loc 1 180 0
 216 013e 4FF00200 		mov	r0, #2
 217 0142 FFF7FEFF 		bl	CyDelayUs
 181:.\Generated_Source\PSoC5/USBUART_1.c ****     /* Set the USBIO pull-up enable */
 182:.\Generated_Source\PSoC5/USBUART_1.c ****     USBUART_1_PM_USB_CR0_REG |= USBUART_1_PM_USB_CR0_PD_PULLUP_N;
ARM GAS  C:\Users\Colin\AppData\Local\Temp\ccMAPRQY.s 			page 8


 218              		.loc 1 182 0
 219 0146 44F29433 		movw	r3, #17300
 220 014a C4F20003 		movt	r3, 16384
 221 014e 44F29432 		movw	r2, #17300
 222 0152 C4F20002 		movt	r2, 16384
 223 0156 1278     		ldrb	r2, [r2, #0]
 224 0158 D2B2     		uxtb	r2, r2
 225 015a 42F00402 		orr	r2, r2, #4
 226 015e D2B2     		uxtb	r2, r2
 227 0160 1A70     		strb	r2, [r3, #0]
 183:.\Generated_Source\PSoC5/USBUART_1.c **** 
 184:.\Generated_Source\PSoC5/USBUART_1.c ****     /* Write WAx */
 185:.\Generated_Source\PSoC5/USBUART_1.c ****     CY_SET_REG8(USBUART_1_ARB_RW1_WA_PTR,     0u);
 228              		.loc 1 185 0
 229 0162 46F28403 		movw	r3, #24708
 230 0166 C4F20003 		movt	r3, 16384
 231 016a 4FF00002 		mov	r2, #0
 232 016e 1A70     		strb	r2, [r3, #0]
 186:.\Generated_Source\PSoC5/USBUART_1.c ****     CY_SET_REG8(USBUART_1_ARB_RW1_WA_MSB_PTR, 0u);
 233              		.loc 1 186 0
 234 0170 46F28503 		movw	r3, #24709
 235 0174 C4F20003 		movt	r3, 16384
 236 0178 4FF00002 		mov	r2, #0
 237 017c 1A70     		strb	r2, [r3, #0]
 187:.\Generated_Source\PSoC5/USBUART_1.c **** 
 188:.\Generated_Source\PSoC5/USBUART_1.c ****     #if(USBUART_1_EP_MM != USBUART_1__EP_MANUAL)
 189:.\Generated_Source\PSoC5/USBUART_1.c ****         /* Init transfer descriptor. This will be used to detect the DMA state - initialized or not
 190:.\Generated_Source\PSoC5/USBUART_1.c ****         for (i = 0u; i < USBUART_1_MAX_EP; i++)
 191:.\Generated_Source\PSoC5/USBUART_1.c ****         {
 192:.\Generated_Source\PSoC5/USBUART_1.c ****             USBUART_1_DmaTd[i] = DMA_INVALID_TD;
 193:.\Generated_Source\PSoC5/USBUART_1.c ****         }
 194:.\Generated_Source\PSoC5/USBUART_1.c ****     #endif   /* End USBUART_1_EP_MM != USBUART_1__EP_MANUAL */
 195:.\Generated_Source\PSoC5/USBUART_1.c **** 
 196:.\Generated_Source\PSoC5/USBUART_1.c ****     CyExitCriticalSection(enableInterrupts);
 238              		.loc 1 196 0
 239 017e FB79     		ldrb	r3, [r7, #7]	@ zero_extendqisi2
 240 0180 1846     		mov	r0, r3
 241 0182 FFF7FEFF 		bl	CyExitCriticalSection
 197:.\Generated_Source\PSoC5/USBUART_1.c **** 
 198:.\Generated_Source\PSoC5/USBUART_1.c **** 
 199:.\Generated_Source\PSoC5/USBUART_1.c ****     /* Set the bus reset Interrupt. */
 200:.\Generated_Source\PSoC5/USBUART_1.c ****     (void) CyIntSetVector(USBUART_1_BUS_RESET_VECT_NUM,   &USBUART_1_BUS_RESET_ISR);
 242              		.loc 1 200 0
 243 0186 4FF01700 		mov	r0, #23
 244 018a 40F20001 		movw	r1, #:lower16:USBUART_1_BUS_RESET_ISR
 245 018e C0F20001 		movt	r1, #:upper16:USBUART_1_BUS_RESET_ISR
 246 0192 FFF7FEFF 		bl	CyIntSetVector
 201:.\Generated_Source\PSoC5/USBUART_1.c ****     CyIntSetPriority(USBUART_1_BUS_RESET_VECT_NUM, USBUART_1_BUS_RESET_PRIOR);
 247              		.loc 1 201 0
 248 0196 4FF01700 		mov	r0, #23
 249 019a 4FF00701 		mov	r1, #7
 250 019e FFF7FEFF 		bl	CyIntSetPriority
 202:.\Generated_Source\PSoC5/USBUART_1.c **** 
 203:.\Generated_Source\PSoC5/USBUART_1.c ****     /* Set the SOF Interrupt. */
 204:.\Generated_Source\PSoC5/USBUART_1.c ****     #if(USBUART_1_SOF_ISR_REMOVE == 0u)
 205:.\Generated_Source\PSoC5/USBUART_1.c ****         (void) CyIntSetVector(USBUART_1_SOF_VECT_NUM,   &USBUART_1_SOF_ISR);
 251              		.loc 1 205 0
ARM GAS  C:\Users\Colin\AppData\Local\Temp\ccMAPRQY.s 			page 9


 252 01a2 4FF01500 		mov	r0, #21
 253 01a6 40F20001 		movw	r1, #:lower16:USBUART_1_SOF_ISR
 254 01aa C0F20001 		movt	r1, #:upper16:USBUART_1_SOF_ISR
 255 01ae FFF7FEFF 		bl	CyIntSetVector
 206:.\Generated_Source\PSoC5/USBUART_1.c ****         CyIntSetPriority(USBUART_1_SOF_VECT_NUM, USBUART_1_SOF_PRIOR);
 256              		.loc 1 206 0
 257 01b2 4FF01500 		mov	r0, #21
 258 01b6 4FF00701 		mov	r1, #7
 259 01ba FFF7FEFF 		bl	CyIntSetPriority
 207:.\Generated_Source\PSoC5/USBUART_1.c ****     #endif   /* End USBUART_1_SOF_ISR_REMOVE */
 208:.\Generated_Source\PSoC5/USBUART_1.c **** 
 209:.\Generated_Source\PSoC5/USBUART_1.c ****     /* Set the Control Endpoint Interrupt. */
 210:.\Generated_Source\PSoC5/USBUART_1.c ****     (void) CyIntSetVector(USBUART_1_EP_0_VECT_NUM,   &USBUART_1_EP_0_ISR);
 260              		.loc 1 210 0
 261 01be 4FF01800 		mov	r0, #24
 262 01c2 40F20001 		movw	r1, #:lower16:USBUART_1_EP_0_ISR
 263 01c6 C0F20001 		movt	r1, #:upper16:USBUART_1_EP_0_ISR
 264 01ca FFF7FEFF 		bl	CyIntSetVector
 211:.\Generated_Source\PSoC5/USBUART_1.c ****     CyIntSetPriority(USBUART_1_EP_0_VECT_NUM, USBUART_1_EP_0_PRIOR);
 265              		.loc 1 211 0
 266 01ce 4FF01800 		mov	r0, #24
 267 01d2 4FF00701 		mov	r1, #7
 268 01d6 FFF7FEFF 		bl	CyIntSetPriority
 212:.\Generated_Source\PSoC5/USBUART_1.c **** 
 213:.\Generated_Source\PSoC5/USBUART_1.c ****     /* Set the Data Endpoint 1 Interrupt. */
 214:.\Generated_Source\PSoC5/USBUART_1.c ****     #if(USBUART_1_EP1_ISR_REMOVE == 0u)
 215:.\Generated_Source\PSoC5/USBUART_1.c ****         (void) CyIntSetVector(USBUART_1_EP_1_VECT_NUM,   &USBUART_1_EP_1_ISR);
 269              		.loc 1 215 0
 270 01da 4FF00300 		mov	r0, #3
 271 01de 40F20001 		movw	r1, #:lower16:USBUART_1_EP_1_ISR
 272 01e2 C0F20001 		movt	r1, #:upper16:USBUART_1_EP_1_ISR
 273 01e6 FFF7FEFF 		bl	CyIntSetVector
 216:.\Generated_Source\PSoC5/USBUART_1.c ****         CyIntSetPriority(USBUART_1_EP_1_VECT_NUM, USBUART_1_EP_1_PRIOR);
 274              		.loc 1 216 0
 275 01ea 4FF00300 		mov	r0, #3
 276 01ee 4FF00701 		mov	r1, #7
 277 01f2 FFF7FEFF 		bl	CyIntSetPriority
 217:.\Generated_Source\PSoC5/USBUART_1.c ****     #endif   /* End USBUART_1_EP1_ISR_REMOVE */
 218:.\Generated_Source\PSoC5/USBUART_1.c **** 
 219:.\Generated_Source\PSoC5/USBUART_1.c ****     /* Set the Data Endpoint 2 Interrupt. */
 220:.\Generated_Source\PSoC5/USBUART_1.c ****     #if(USBUART_1_EP2_ISR_REMOVE == 0u)
 221:.\Generated_Source\PSoC5/USBUART_1.c ****         (void) CyIntSetVector(USBUART_1_EP_2_VECT_NUM,   &USBUART_1_EP_2_ISR);
 278              		.loc 1 221 0
 279 01f6 4FF00400 		mov	r0, #4
 280 01fa 40F20001 		movw	r1, #:lower16:USBUART_1_EP_2_ISR
 281 01fe C0F20001 		movt	r1, #:upper16:USBUART_1_EP_2_ISR
 282 0202 FFF7FEFF 		bl	CyIntSetVector
 222:.\Generated_Source\PSoC5/USBUART_1.c ****         CyIntSetPriority(USBUART_1_EP_2_VECT_NUM, USBUART_1_EP_2_PRIOR);
 283              		.loc 1 222 0
 284 0206 4FF00400 		mov	r0, #4
 285 020a 4FF00701 		mov	r1, #7
 286 020e FFF7FEFF 		bl	CyIntSetPriority
 223:.\Generated_Source\PSoC5/USBUART_1.c ****     #endif   /* End USBUART_1_EP2_ISR_REMOVE */
 224:.\Generated_Source\PSoC5/USBUART_1.c **** 
 225:.\Generated_Source\PSoC5/USBUART_1.c ****     /* Set the Data Endpoint 3 Interrupt. */
 226:.\Generated_Source\PSoC5/USBUART_1.c ****     #if(USBUART_1_EP3_ISR_REMOVE == 0u)
 227:.\Generated_Source\PSoC5/USBUART_1.c ****         (void) CyIntSetVector(USBUART_1_EP_3_VECT_NUM,   &USBUART_1_EP_3_ISR);
ARM GAS  C:\Users\Colin\AppData\Local\Temp\ccMAPRQY.s 			page 10


 287              		.loc 1 227 0
 288 0212 4FF00500 		mov	r0, #5
 289 0216 40F20001 		movw	r1, #:lower16:USBUART_1_EP_3_ISR
 290 021a C0F20001 		movt	r1, #:upper16:USBUART_1_EP_3_ISR
 291 021e FFF7FEFF 		bl	CyIntSetVector
 228:.\Generated_Source\PSoC5/USBUART_1.c ****         CyIntSetPriority(USBUART_1_EP_3_VECT_NUM, USBUART_1_EP_3_PRIOR);
 292              		.loc 1 228 0
 293 0222 4FF00500 		mov	r0, #5
 294 0226 4FF00701 		mov	r1, #7
 295 022a FFF7FEFF 		bl	CyIntSetPriority
 229:.\Generated_Source\PSoC5/USBUART_1.c ****     #endif   /* End USBUART_1_EP3_ISR_REMOVE */
 230:.\Generated_Source\PSoC5/USBUART_1.c **** 
 231:.\Generated_Source\PSoC5/USBUART_1.c ****     /* Set the Data Endpoint 4 Interrupt. */
 232:.\Generated_Source\PSoC5/USBUART_1.c ****     #if(USBUART_1_EP4_ISR_REMOVE == 0u)
 233:.\Generated_Source\PSoC5/USBUART_1.c ****         (void) CyIntSetVector(USBUART_1_EP_4_VECT_NUM,   &USBUART_1_EP_4_ISR);
 234:.\Generated_Source\PSoC5/USBUART_1.c ****         CyIntSetPriority(USBUART_1_EP_4_VECT_NUM, USBUART_1_EP_4_PRIOR);
 235:.\Generated_Source\PSoC5/USBUART_1.c ****     #endif   /* End USBUART_1_EP4_ISR_REMOVE */
 236:.\Generated_Source\PSoC5/USBUART_1.c **** 
 237:.\Generated_Source\PSoC5/USBUART_1.c ****     /* Set the Data Endpoint 5 Interrupt. */
 238:.\Generated_Source\PSoC5/USBUART_1.c ****     #if(USBUART_1_EP5_ISR_REMOVE == 0u)
 239:.\Generated_Source\PSoC5/USBUART_1.c ****         (void) CyIntSetVector(USBUART_1_EP_5_VECT_NUM,   &USBUART_1_EP_5_ISR);
 240:.\Generated_Source\PSoC5/USBUART_1.c ****         CyIntSetPriority(USBUART_1_EP_5_VECT_NUM, USBUART_1_EP_5_PRIOR);
 241:.\Generated_Source\PSoC5/USBUART_1.c ****     #endif   /* End USBUART_1_EP5_ISR_REMOVE */
 242:.\Generated_Source\PSoC5/USBUART_1.c **** 
 243:.\Generated_Source\PSoC5/USBUART_1.c ****     /* Set the Data Endpoint 6 Interrupt. */
 244:.\Generated_Source\PSoC5/USBUART_1.c ****     #if(USBUART_1_EP6_ISR_REMOVE == 0u)
 245:.\Generated_Source\PSoC5/USBUART_1.c ****         (void) CyIntSetVector(USBUART_1_EP_6_VECT_NUM,   &USBUART_1_EP_6_ISR);
 246:.\Generated_Source\PSoC5/USBUART_1.c ****         CyIntSetPriority(USBUART_1_EP_6_VECT_NUM, USBUART_1_EP_6_PRIOR);
 247:.\Generated_Source\PSoC5/USBUART_1.c ****     #endif   /* End USBUART_1_EP6_ISR_REMOVE */
 248:.\Generated_Source\PSoC5/USBUART_1.c **** 
 249:.\Generated_Source\PSoC5/USBUART_1.c ****      /* Set the Data Endpoint 7 Interrupt. */
 250:.\Generated_Source\PSoC5/USBUART_1.c ****     #if(USBUART_1_EP7_ISR_REMOVE == 0u)
 251:.\Generated_Source\PSoC5/USBUART_1.c ****         (void) CyIntSetVector(USBUART_1_EP_7_VECT_NUM,   &USBUART_1_EP_7_ISR);
 252:.\Generated_Source\PSoC5/USBUART_1.c ****         CyIntSetPriority(USBUART_1_EP_7_VECT_NUM, USBUART_1_EP_7_PRIOR);
 253:.\Generated_Source\PSoC5/USBUART_1.c ****     #endif   /* End USBUART_1_EP7_ISR_REMOVE */
 254:.\Generated_Source\PSoC5/USBUART_1.c **** 
 255:.\Generated_Source\PSoC5/USBUART_1.c ****     /* Set the Data Endpoint 8 Interrupt. */
 256:.\Generated_Source\PSoC5/USBUART_1.c ****     #if(USBUART_1_EP8_ISR_REMOVE == 0u)
 257:.\Generated_Source\PSoC5/USBUART_1.c ****         (void) CyIntSetVector(USBUART_1_EP_8_VECT_NUM,   &USBUART_1_EP_8_ISR);
 258:.\Generated_Source\PSoC5/USBUART_1.c ****         CyIntSetPriority(USBUART_1_EP_8_VECT_NUM, USBUART_1_EP_8_PRIOR);
 259:.\Generated_Source\PSoC5/USBUART_1.c ****     #endif   /* End USBUART_1_EP8_ISR_REMOVE */
 260:.\Generated_Source\PSoC5/USBUART_1.c **** 
 261:.\Generated_Source\PSoC5/USBUART_1.c ****     #if((USBUART_1_EP_MM != USBUART_1__EP_MANUAL) && (USBUART_1_ARB_ISR_REMOVE == 0u))
 262:.\Generated_Source\PSoC5/USBUART_1.c ****         /* Set the ARB Interrupt. */
 263:.\Generated_Source\PSoC5/USBUART_1.c ****         (void) CyIntSetVector(USBUART_1_ARB_VECT_NUM,   &USBUART_1_ARB_ISR);
 264:.\Generated_Source\PSoC5/USBUART_1.c ****         CyIntSetPriority(USBUART_1_ARB_VECT_NUM, USBUART_1_ARB_PRIOR);
 265:.\Generated_Source\PSoC5/USBUART_1.c ****     #endif   /* End USBUART_1_EP_MM != USBUART_1__EP_MANUAL */
 266:.\Generated_Source\PSoC5/USBUART_1.c **** 
 267:.\Generated_Source\PSoC5/USBUART_1.c **** }
 296              		.loc 1 267 0
 297 022e 07F10807 		add	r7, r7, #8
 298 0232 BD46     		mov	sp, r7
 299 0234 80BD     		pop	{r7, pc}
 300              		.cfi_endproc
 301              	.LFE1:
 302              		.size	USBUART_1_Init, .-USBUART_1_Init
 303 0236 00BF     		.section	.text.USBUART_1_InitComponent,"ax",%progbits
ARM GAS  C:\Users\Colin\AppData\Local\Temp\ccMAPRQY.s 			page 11


 304              		.align	2
 305              		.global	USBUART_1_InitComponent
 306              		.thumb
 307              		.thumb_func
 308              		.type	USBUART_1_InitComponent, %function
 309              	USBUART_1_InitComponent:
 310              	.LFB2:
 268:.\Generated_Source\PSoC5/USBUART_1.c **** 
 269:.\Generated_Source\PSoC5/USBUART_1.c **** 
 270:.\Generated_Source\PSoC5/USBUART_1.c **** /*******************************************************************************
 271:.\Generated_Source\PSoC5/USBUART_1.c **** * Function Name: USBUART_1_InitComponent
 272:.\Generated_Source\PSoC5/USBUART_1.c **** ********************************************************************************
 273:.\Generated_Source\PSoC5/USBUART_1.c **** *
 274:.\Generated_Source\PSoC5/USBUART_1.c **** * Summary:
 275:.\Generated_Source\PSoC5/USBUART_1.c **** *  Initialize the component, except for the HW which is done one time in
 276:.\Generated_Source\PSoC5/USBUART_1.c **** *  the Start function.  This function pulls up D+.
 277:.\Generated_Source\PSoC5/USBUART_1.c **** *
 278:.\Generated_Source\PSoC5/USBUART_1.c **** * Parameters:
 279:.\Generated_Source\PSoC5/USBUART_1.c **** *  device: Contains the device number of the desired device descriptor.
 280:.\Generated_Source\PSoC5/USBUART_1.c **** *          The device number can be found in the Device Descriptor Tab of
 281:.\Generated_Source\PSoC5/USBUART_1.c **** *          "Configure" dialog, under the settings of desired Device Descriptor,
 282:.\Generated_Source\PSoC5/USBUART_1.c **** *          in the "Device Number" field.
 283:.\Generated_Source\PSoC5/USBUART_1.c **** *  mode: The operating voltage. This determines whether the voltage regulator
 284:.\Generated_Source\PSoC5/USBUART_1.c **** *        is enabled for 5V operation or if pass through mode is used for 3.3V
 285:.\Generated_Source\PSoC5/USBUART_1.c **** *        operation. Symbolic names and their associated values are given in the
 286:.\Generated_Source\PSoC5/USBUART_1.c **** *        following table.
 287:.\Generated_Source\PSoC5/USBUART_1.c **** *       USBUART_1_3V_OPERATION - Disable voltage regulator and pass-thru
 288:.\Generated_Source\PSoC5/USBUART_1.c **** *                                       Vcc for pull-up
 289:.\Generated_Source\PSoC5/USBUART_1.c **** *       USBUART_1_5V_OPERATION - Enable voltage regulator and use
 290:.\Generated_Source\PSoC5/USBUART_1.c **** *                                       regulator for pull-up
 291:.\Generated_Source\PSoC5/USBUART_1.c **** *       USBUART_1_DWR_VDDD_OPERATION - Enable or Disable voltage
 292:.\Generated_Source\PSoC5/USBUART_1.c **** *                         regulator depend on Vddd Voltage configuration in DWR.
 293:.\Generated_Source\PSoC5/USBUART_1.c **** *
 294:.\Generated_Source\PSoC5/USBUART_1.c **** * Return:
 295:.\Generated_Source\PSoC5/USBUART_1.c **** *   None.
 296:.\Generated_Source\PSoC5/USBUART_1.c **** *
 297:.\Generated_Source\PSoC5/USBUART_1.c **** * Global variables:
 298:.\Generated_Source\PSoC5/USBUART_1.c **** *   USBUART_1_device: Contains the device number of the desired device
 299:.\Generated_Source\PSoC5/USBUART_1.c **** *       descriptor. The device number can be found in the Device Descriptor Tab
 300:.\Generated_Source\PSoC5/USBUART_1.c **** *       of "Configure" dialog, under the settings of desired Device Descriptor,
 301:.\Generated_Source\PSoC5/USBUART_1.c **** *       in the "Device Number" field.
 302:.\Generated_Source\PSoC5/USBUART_1.c **** *   USBUART_1_transferState: This variable used by the communication
 303:.\Generated_Source\PSoC5/USBUART_1.c **** *       functions to handle current transfer state. Initialized to
 304:.\Generated_Source\PSoC5/USBUART_1.c **** *       TRANS_STATE_IDLE in this API.
 305:.\Generated_Source\PSoC5/USBUART_1.c **** *   USBUART_1_configuration: Contains current configuration number
 306:.\Generated_Source\PSoC5/USBUART_1.c **** *       which is set by the Host using SET_CONFIGURATION request.
 307:.\Generated_Source\PSoC5/USBUART_1.c **** *       Initialized to zero in this API.
 308:.\Generated_Source\PSoC5/USBUART_1.c **** *   USBUART_1_deviceAddress: Contains current device address. This
 309:.\Generated_Source\PSoC5/USBUART_1.c **** *       variable is initialized to zero in this API. Host starts to communicate
 310:.\Generated_Source\PSoC5/USBUART_1.c **** *      to device with address 0 and then set it to whatever value using
 311:.\Generated_Source\PSoC5/USBUART_1.c **** *      SET_ADDRESS request.
 312:.\Generated_Source\PSoC5/USBUART_1.c **** *   USBUART_1_deviceStatus: initialized to 0.
 313:.\Generated_Source\PSoC5/USBUART_1.c **** *       This is two bit variable which contain power status in first bit
 314:.\Generated_Source\PSoC5/USBUART_1.c **** *       (DEVICE_STATUS_BUS_POWERED or DEVICE_STATUS_SELF_POWERED) and remote
 315:.\Generated_Source\PSoC5/USBUART_1.c **** *       wakeup status (DEVICE_STATUS_REMOTE_WAKEUP) in second bit.
 316:.\Generated_Source\PSoC5/USBUART_1.c **** *   USBUART_1_lastPacketSize initialized to 0;
 317:.\Generated_Source\PSoC5/USBUART_1.c **** *
ARM GAS  C:\Users\Colin\AppData\Local\Temp\ccMAPRQY.s 			page 12


 318:.\Generated_Source\PSoC5/USBUART_1.c **** * Reentrant:
 319:.\Generated_Source\PSoC5/USBUART_1.c **** *  No.
 320:.\Generated_Source\PSoC5/USBUART_1.c **** *
 321:.\Generated_Source\PSoC5/USBUART_1.c **** *******************************************************************************/
 322:.\Generated_Source\PSoC5/USBUART_1.c **** void USBUART_1_InitComponent(uint8 device, uint8 mode) 
 323:.\Generated_Source\PSoC5/USBUART_1.c **** {
 311              		.loc 1 323 0
 312              		.cfi_startproc
 313              		@ args = 0, pretend = 0, frame = 16
 314              		@ frame_needed = 1, uses_anonymous_args = 0
 315 0000 80B5     		push	{r7, lr}
 316              	.LCFI6:
 317              		.cfi_def_cfa_offset 8
 318              		.cfi_offset 7, -8
 319              		.cfi_offset 14, -4
 320 0002 84B0     		sub	sp, sp, #16
 321              	.LCFI7:
 322              		.cfi_def_cfa_offset 24
 323 0004 00AF     		add	r7, sp, #0
 324              	.LCFI8:
 325              		.cfi_def_cfa_register 7
 326 0006 0246     		mov	r2, r0
 327 0008 0B46     		mov	r3, r1
 328 000a FA71     		strb	r2, [r7, #7]
 329 000c BB71     		strb	r3, [r7, #6]
 324:.\Generated_Source\PSoC5/USBUART_1.c ****     /* Initialize _hidProtocol variable to comply with
 325:.\Generated_Source\PSoC5/USBUART_1.c ****     *  HID 7.2.6 Set_Protocol Request:
 326:.\Generated_Source\PSoC5/USBUART_1.c ****     *  "When initialized, all devices default to report protocol."
 327:.\Generated_Source\PSoC5/USBUART_1.c ****     */
 328:.\Generated_Source\PSoC5/USBUART_1.c ****     #if defined(USBUART_1_ENABLE_HID_CLASS)
 329:.\Generated_Source\PSoC5/USBUART_1.c ****         uint8 i;
 330:.\Generated_Source\PSoC5/USBUART_1.c **** 
 331:.\Generated_Source\PSoC5/USBUART_1.c ****         for (i = 0u; i < USBUART_1_MAX_INTERFACES_NUMBER; i++)
 330              		.loc 1 331 0
 331 000e 4FF00003 		mov	r3, #0
 332 0012 FB73     		strb	r3, [r7, #15]
 333 0014 0BE0     		b	.L5
 334              	.L6:
 332:.\Generated_Source\PSoC5/USBUART_1.c ****         {
 333:.\Generated_Source\PSoC5/USBUART_1.c ****             USBUART_1_hidProtocol[i] = USBUART_1_PROTOCOL_REPORT;
 335              		.loc 1 333 0 discriminator 2
 336 0016 FA7B     		ldrb	r2, [r7, #15]	@ zero_extendqisi2
 337 0018 40F20003 		movw	r3, #:lower16:USBUART_1_hidProtocol
 338 001c C0F20003 		movt	r3, #:upper16:USBUART_1_hidProtocol
 339 0020 4FF00101 		mov	r1, #1
 340 0024 9954     		strb	r1, [r3, r2]
 331:.\Generated_Source\PSoC5/USBUART_1.c ****         for (i = 0u; i < USBUART_1_MAX_INTERFACES_NUMBER; i++)
 341              		.loc 1 331 0 discriminator 2
 342 0026 FB7B     		ldrb	r3, [r7, #15]
 343 0028 03F10103 		add	r3, r3, #1
 344 002c FB73     		strb	r3, [r7, #15]
 345              	.L5:
 331:.\Generated_Source\PSoC5/USBUART_1.c ****         for (i = 0u; i < USBUART_1_MAX_INTERFACES_NUMBER; i++)
 346              		.loc 1 331 0 is_stmt 0 discriminator 1
 347 002e FB7B     		ldrb	r3, [r7, #15]	@ zero_extendqisi2
 348 0030 012B     		cmp	r3, #1
 349 0032 F0D9     		bls	.L6
ARM GAS  C:\Users\Colin\AppData\Local\Temp\ccMAPRQY.s 			page 13


 334:.\Generated_Source\PSoC5/USBUART_1.c ****         }
 335:.\Generated_Source\PSoC5/USBUART_1.c ****     #endif /* USBUART_1_ENABLE_HID_CLASS */
 336:.\Generated_Source\PSoC5/USBUART_1.c **** 
 337:.\Generated_Source\PSoC5/USBUART_1.c ****     /* Enable Interrupts. */
 338:.\Generated_Source\PSoC5/USBUART_1.c ****     CyIntEnable(USBUART_1_BUS_RESET_VECT_NUM);
 350              		.loc 1 338 0 is_stmt 1
 351 0034 4FF46143 		mov	r3, #57600
 352 0038 CEF20003 		movt	r3, 57344
 353 003c 4FF40002 		mov	r2, #8388608
 354 0040 1A60     		str	r2, [r3, #0]
 339:.\Generated_Source\PSoC5/USBUART_1.c ****     CyIntEnable(USBUART_1_EP_0_VECT_NUM);
 355              		.loc 1 339 0
 356 0042 4FF46143 		mov	r3, #57600
 357 0046 CEF20003 		movt	r3, 57344
 358 004a 4FF08072 		mov	r2, #16777216
 359 004e 1A60     		str	r2, [r3, #0]
 340:.\Generated_Source\PSoC5/USBUART_1.c ****     #if(USBUART_1_EP1_ISR_REMOVE == 0u)
 341:.\Generated_Source\PSoC5/USBUART_1.c ****         CyIntEnable(USBUART_1_EP_1_VECT_NUM);
 360              		.loc 1 341 0
 361 0050 4FF46143 		mov	r3, #57600
 362 0054 CEF20003 		movt	r3, 57344
 363 0058 4FF00802 		mov	r2, #8
 364 005c 1A60     		str	r2, [r3, #0]
 342:.\Generated_Source\PSoC5/USBUART_1.c ****     #endif   /* End USBUART_1_EP1_ISR_REMOVE */
 343:.\Generated_Source\PSoC5/USBUART_1.c ****     #if(USBUART_1_EP2_ISR_REMOVE == 0u)
 344:.\Generated_Source\PSoC5/USBUART_1.c ****         CyIntEnable(USBUART_1_EP_2_VECT_NUM);
 365              		.loc 1 344 0
 366 005e 4FF46143 		mov	r3, #57600
 367 0062 CEF20003 		movt	r3, 57344
 368 0066 4FF01002 		mov	r2, #16
 369 006a 1A60     		str	r2, [r3, #0]
 345:.\Generated_Source\PSoC5/USBUART_1.c ****     #endif   /* End USBUART_1_EP2_ISR_REMOVE */
 346:.\Generated_Source\PSoC5/USBUART_1.c ****     #if(USBUART_1_EP3_ISR_REMOVE == 0u)
 347:.\Generated_Source\PSoC5/USBUART_1.c ****         CyIntEnable(USBUART_1_EP_3_VECT_NUM);
 370              		.loc 1 347 0
 371 006c 4FF46143 		mov	r3, #57600
 372 0070 CEF20003 		movt	r3, 57344
 373 0074 4FF02002 		mov	r2, #32
 374 0078 1A60     		str	r2, [r3, #0]
 348:.\Generated_Source\PSoC5/USBUART_1.c ****     #endif   /* End USBUART_1_EP3_ISR_REMOVE */
 349:.\Generated_Source\PSoC5/USBUART_1.c ****     #if(USBUART_1_EP4_ISR_REMOVE == 0u)
 350:.\Generated_Source\PSoC5/USBUART_1.c ****         CyIntEnable(USBUART_1_EP_4_VECT_NUM);
 351:.\Generated_Source\PSoC5/USBUART_1.c ****     #endif   /* End USBUART_1_EP4_ISR_REMOVE */
 352:.\Generated_Source\PSoC5/USBUART_1.c ****     #if(USBUART_1_EP5_ISR_REMOVE == 0u)
 353:.\Generated_Source\PSoC5/USBUART_1.c ****         CyIntEnable(USBUART_1_EP_5_VECT_NUM);
 354:.\Generated_Source\PSoC5/USBUART_1.c ****     #endif   /* End USBUART_1_EP5_ISR_REMOVE */
 355:.\Generated_Source\PSoC5/USBUART_1.c ****     #if(USBUART_1_EP6_ISR_REMOVE == 0u)
 356:.\Generated_Source\PSoC5/USBUART_1.c ****         CyIntEnable(USBUART_1_EP_6_VECT_NUM);
 357:.\Generated_Source\PSoC5/USBUART_1.c ****     #endif   /* End USBUART_1_EP6_ISR_REMOVE */
 358:.\Generated_Source\PSoC5/USBUART_1.c ****     #if(USBUART_1_EP7_ISR_REMOVE == 0u)
 359:.\Generated_Source\PSoC5/USBUART_1.c ****         CyIntEnable(USBUART_1_EP_7_VECT_NUM);
 360:.\Generated_Source\PSoC5/USBUART_1.c ****     #endif   /* End USBUART_1_EP7_ISR_REMOVE */
 361:.\Generated_Source\PSoC5/USBUART_1.c ****     #if(USBUART_1_EP8_ISR_REMOVE == 0u)
 362:.\Generated_Source\PSoC5/USBUART_1.c ****         CyIntEnable(USBUART_1_EP_8_VECT_NUM);
 363:.\Generated_Source\PSoC5/USBUART_1.c ****     #endif   /* End USBUART_1_EP8_ISR_REMOVE */
 364:.\Generated_Source\PSoC5/USBUART_1.c ****     #if((USBUART_1_EP_MM != USBUART_1__EP_MANUAL) && (USBUART_1_ARB_ISR_REMOVE == 0u))
 365:.\Generated_Source\PSoC5/USBUART_1.c ****         /* usb arb interrupt enable */
ARM GAS  C:\Users\Colin\AppData\Local\Temp\ccMAPRQY.s 			page 14


 366:.\Generated_Source\PSoC5/USBUART_1.c ****         USBUART_1_ARB_INT_EN_REG = USBUART_1_ARB_INT_MASK;
 367:.\Generated_Source\PSoC5/USBUART_1.c ****         CyIntEnable(USBUART_1_ARB_VECT_NUM);
 368:.\Generated_Source\PSoC5/USBUART_1.c ****     #endif   /* End USBUART_1_EP_MM != USBUART_1__EP_MANUAL */
 369:.\Generated_Source\PSoC5/USBUART_1.c **** 
 370:.\Generated_Source\PSoC5/USBUART_1.c ****     /* Arbiter configuration for DMA transfers */
 371:.\Generated_Source\PSoC5/USBUART_1.c ****     #if(USBUART_1_EP_MM != USBUART_1__EP_MANUAL)
 372:.\Generated_Source\PSoC5/USBUART_1.c **** 
 373:.\Generated_Source\PSoC5/USBUART_1.c ****         #if(USBUART_1_EP_MM == USBUART_1__EP_DMAMANUAL)
 374:.\Generated_Source\PSoC5/USBUART_1.c ****             USBUART_1_ARB_CFG_REG = USBUART_1_ARB_CFG_MANUAL_DMA;
 375:.\Generated_Source\PSoC5/USBUART_1.c ****         #endif   /* End USBUART_1_EP_MM == USBUART_1__EP_DMAMANUAL */
 376:.\Generated_Source\PSoC5/USBUART_1.c ****         #if(USBUART_1_EP_MM == USBUART_1__EP_DMAAUTO)
 377:.\Generated_Source\PSoC5/USBUART_1.c ****             /*Set cfg cmplt this rises DMA request when the full configuration is done */
 378:.\Generated_Source\PSoC5/USBUART_1.c ****             USBUART_1_ARB_CFG_REG = USBUART_1_ARB_CFG_AUTO_DMA | USBUART_1_ARB_CFG_AUTO_MEM;
 379:.\Generated_Source\PSoC5/USBUART_1.c ****         #endif   /* End USBUART_1_EP_MM == USBUART_1__EP_DMAAUTO */
 380:.\Generated_Source\PSoC5/USBUART_1.c ****     #endif   /* End USBUART_1_EP_MM != USBUART_1__EP_MANUAL */
 381:.\Generated_Source\PSoC5/USBUART_1.c **** 
 382:.\Generated_Source\PSoC5/USBUART_1.c ****     USBUART_1_transferState = USBUART_1_TRANS_STATE_IDLE;
 375              		.loc 1 382 0
 376 007a 40F20003 		movw	r3, #:lower16:USBUART_1_transferState
 377 007e C0F20003 		movt	r3, #:upper16:USBUART_1_transferState
 378 0082 4FF00002 		mov	r2, #0
 379 0086 1A70     		strb	r2, [r3, #0]
 383:.\Generated_Source\PSoC5/USBUART_1.c **** 
 384:.\Generated_Source\PSoC5/USBUART_1.c ****     /* USB Locking: Enabled, VRegulator: depend on mode or DWR Voltage configuration*/
 385:.\Generated_Source\PSoC5/USBUART_1.c ****     switch(mode)
 380              		.loc 1 385 0
 381 0088 BB79     		ldrb	r3, [r7, #6]	@ zero_extendqisi2
 382 008a 002B     		cmp	r3, #0
 383 008c 02D0     		beq	.L8
 384 008e 012B     		cmp	r3, #1
 385 0090 08D0     		beq	.L9
 386 0092 0FE0     		b	.L11
 387              	.L8:
 386:.\Generated_Source\PSoC5/USBUART_1.c ****     {
 387:.\Generated_Source\PSoC5/USBUART_1.c ****         case USBUART_1_3V_OPERATION:
 388:.\Generated_Source\PSoC5/USBUART_1.c ****             USBUART_1_CR1_REG = USBUART_1_CR1_ENABLE_LOCK;
 388              		.loc 1 388 0
 389 0094 46F20903 		movw	r3, #24585
 390 0098 C4F20003 		movt	r3, 16384
 391 009c 4FF00202 		mov	r2, #2
 392 00a0 1A70     		strb	r2, [r3, #0]
 389:.\Generated_Source\PSoC5/USBUART_1.c ****             break;
 393              		.loc 1 389 0
 394 00a2 0FE0     		b	.L10
 395              	.L9:
 390:.\Generated_Source\PSoC5/USBUART_1.c ****         case USBUART_1_5V_OPERATION:
 391:.\Generated_Source\PSoC5/USBUART_1.c ****             USBUART_1_CR1_REG = USBUART_1_CR1_ENABLE_LOCK | USBUART_1_CR1_REG_ENABLE;
 396              		.loc 1 391 0
 397 00a4 46F20903 		movw	r3, #24585
 398 00a8 C4F20003 		movt	r3, 16384
 399 00ac 4FF00302 		mov	r2, #3
 400 00b0 1A70     		strb	r2, [r3, #0]
 392:.\Generated_Source\PSoC5/USBUART_1.c ****             break;
 401              		.loc 1 392 0
 402 00b2 07E0     		b	.L10
 403              	.L11:
 393:.\Generated_Source\PSoC5/USBUART_1.c ****         default:   /*USBUART_1_DWR_VDDD_OPERATION */
ARM GAS  C:\Users\Colin\AppData\Local\Temp\ccMAPRQY.s 			page 15


 394:.\Generated_Source\PSoC5/USBUART_1.c ****             #if(USBUART_1_VDDD_MV < USBUART_1_3500MV)
 395:.\Generated_Source\PSoC5/USBUART_1.c ****                 USBUART_1_CR1_REG = USBUART_1_CR1_ENABLE_LOCK;
 404              		.loc 1 395 0
 405 00b4 46F20903 		movw	r3, #24585
 406 00b8 C4F20003 		movt	r3, 16384
 407 00bc 4FF00202 		mov	r2, #2
 408 00c0 1A70     		strb	r2, [r3, #0]
 396:.\Generated_Source\PSoC5/USBUART_1.c ****             #else
 397:.\Generated_Source\PSoC5/USBUART_1.c ****                 USBUART_1_CR1_REG = USBUART_1_CR1_ENABLE_LOCK | USBUART_1_CR1_REG_ENABLE;
 398:.\Generated_Source\PSoC5/USBUART_1.c ****             #endif /* End USBUART_1_VDDD_MV < USBUART_1_3500MV */
 399:.\Generated_Source\PSoC5/USBUART_1.c ****             break;
 409              		.loc 1 399 0
 410 00c2 00BF     		nop
 411              	.L10:
 400:.\Generated_Source\PSoC5/USBUART_1.c ****     }
 401:.\Generated_Source\PSoC5/USBUART_1.c **** 
 402:.\Generated_Source\PSoC5/USBUART_1.c ****     /* Record the descriptor selection */
 403:.\Generated_Source\PSoC5/USBUART_1.c ****     USBUART_1_device = device;
 412              		.loc 1 403 0
 413 00c4 40F20003 		movw	r3, #:lower16:USBUART_1_device
 414 00c8 C0F20003 		movt	r3, #:upper16:USBUART_1_device
 415 00cc FA79     		ldrb	r2, [r7, #7]
 416 00ce 1A70     		strb	r2, [r3, #0]
 404:.\Generated_Source\PSoC5/USBUART_1.c **** 
 405:.\Generated_Source\PSoC5/USBUART_1.c ****     /* Clear all of the component data */
 406:.\Generated_Source\PSoC5/USBUART_1.c ****     USBUART_1_configuration = 0u;
 417              		.loc 1 406 0
 418 00d0 40F20003 		movw	r3, #:lower16:USBUART_1_configuration
 419 00d4 C0F20003 		movt	r3, #:upper16:USBUART_1_configuration
 420 00d8 4FF00002 		mov	r2, #0
 421 00dc 1A70     		strb	r2, [r3, #0]
 407:.\Generated_Source\PSoC5/USBUART_1.c ****     USBUART_1_interfaceNumber = 0u;
 422              		.loc 1 407 0
 423 00de 40F20003 		movw	r3, #:lower16:USBUART_1_interfaceNumber
 424 00e2 C0F20003 		movt	r3, #:upper16:USBUART_1_interfaceNumber
 425 00e6 4FF00002 		mov	r2, #0
 426 00ea 1A70     		strb	r2, [r3, #0]
 408:.\Generated_Source\PSoC5/USBUART_1.c ****     USBUART_1_configurationChanged = 0u;
 427              		.loc 1 408 0
 428 00ec 40F20003 		movw	r3, #:lower16:USBUART_1_configurationChanged
 429 00f0 C0F20003 		movt	r3, #:upper16:USBUART_1_configurationChanged
 430 00f4 4FF00002 		mov	r2, #0
 431 00f8 1A70     		strb	r2, [r3, #0]
 409:.\Generated_Source\PSoC5/USBUART_1.c ****     USBUART_1_deviceAddress  = 0u;
 432              		.loc 1 409 0
 433 00fa 40F20003 		movw	r3, #:lower16:USBUART_1_deviceAddress
 434 00fe C0F20003 		movt	r3, #:upper16:USBUART_1_deviceAddress
 435 0102 4FF00002 		mov	r2, #0
 436 0106 1A70     		strb	r2, [r3, #0]
 410:.\Generated_Source\PSoC5/USBUART_1.c ****     USBUART_1_deviceStatus = 0u;
 437              		.loc 1 410 0
 438 0108 40F20003 		movw	r3, #:lower16:USBUART_1_deviceStatus
 439 010c C0F20003 		movt	r3, #:upper16:USBUART_1_deviceStatus
 440 0110 4FF00002 		mov	r2, #0
 441 0114 1A70     		strb	r2, [r3, #0]
 411:.\Generated_Source\PSoC5/USBUART_1.c **** 
 412:.\Generated_Source\PSoC5/USBUART_1.c ****     USBUART_1_lastPacketSize = 0u;
ARM GAS  C:\Users\Colin\AppData\Local\Temp\ccMAPRQY.s 			page 16


 442              		.loc 1 412 0
 443 0116 40F20003 		movw	r3, #:lower16:USBUART_1_lastPacketSize
 444 011a C0F20003 		movt	r3, #:upper16:USBUART_1_lastPacketSize
 445 011e 4FF00002 		mov	r2, #0
 446 0122 1A70     		strb	r2, [r3, #0]
 413:.\Generated_Source\PSoC5/USBUART_1.c **** 
 414:.\Generated_Source\PSoC5/USBUART_1.c ****     /*  ACK Setup, Stall IN/OUT */
 415:.\Generated_Source\PSoC5/USBUART_1.c ****     CY_SET_REG8(USBUART_1_EP0_CR_PTR, USBUART_1_MODE_STALL_IN_OUT);
 447              		.loc 1 415 0
 448 0124 46F22803 		movw	r3, #24616
 449 0128 C4F20003 		movt	r3, 16384
 450 012c 4FF00302 		mov	r2, #3
 451 0130 1A70     		strb	r2, [r3, #0]
 416:.\Generated_Source\PSoC5/USBUART_1.c **** 
 417:.\Generated_Source\PSoC5/USBUART_1.c ****     /* Enable the SIE with an address 0 */
 418:.\Generated_Source\PSoC5/USBUART_1.c ****     CY_SET_REG8(USBUART_1_CR0_PTR, USBUART_1_CR0_ENABLE);
 452              		.loc 1 418 0
 453 0132 46F20803 		movw	r3, #24584
 454 0136 C4F20003 		movt	r3, 16384
 455 013a 4FF08002 		mov	r2, #128
 456 013e 1A70     		strb	r2, [r3, #0]
 419:.\Generated_Source\PSoC5/USBUART_1.c **** 
 420:.\Generated_Source\PSoC5/USBUART_1.c ****     /* Workaround for PSOC5LP */
 421:.\Generated_Source\PSoC5/USBUART_1.c ****     CyDelayCycles(1u);
 457              		.loc 1 421 0
 458 0140 4FF00100 		mov	r0, #1
 459 0144 FFF7FEFF 		bl	CyDelayCycles
 422:.\Generated_Source\PSoC5/USBUART_1.c **** 
 423:.\Generated_Source\PSoC5/USBUART_1.c ****     /* Finally, Enable d+ pullup and select iomode to USB mode*/
 424:.\Generated_Source\PSoC5/USBUART_1.c ****     CY_SET_REG8(USBUART_1_USBIO_CR1_PTR, USBUART_1_USBIO_CR1_USBPUEN);
 460              		.loc 1 424 0
 461 0148 46F21203 		movw	r3, #24594
 462 014c C4F20003 		movt	r3, 16384
 463 0150 4FF00402 		mov	r2, #4
 464 0154 1A70     		strb	r2, [r3, #0]
 425:.\Generated_Source\PSoC5/USBUART_1.c **** }
 465              		.loc 1 425 0
 466 0156 07F11007 		add	r7, r7, #16
 467 015a BD46     		mov	sp, r7
 468 015c 80BD     		pop	{r7, pc}
 469              		.cfi_endproc
 470              	.LFE2:
 471              		.size	USBUART_1_InitComponent, .-USBUART_1_InitComponent
 472 015e 00BF     		.section	.text.USBUART_1_ReInitComponent,"ax",%progbits
 473              		.align	2
 474              		.global	USBUART_1_ReInitComponent
 475              		.thumb
 476              		.thumb_func
 477              		.type	USBUART_1_ReInitComponent, %function
 478              	USBUART_1_ReInitComponent:
 479              	.LFB3:
 426:.\Generated_Source\PSoC5/USBUART_1.c **** 
 427:.\Generated_Source\PSoC5/USBUART_1.c **** 
 428:.\Generated_Source\PSoC5/USBUART_1.c **** /*******************************************************************************
 429:.\Generated_Source\PSoC5/USBUART_1.c **** * Function Name: USBUART_1_ReInitComponent
 430:.\Generated_Source\PSoC5/USBUART_1.c **** ********************************************************************************
 431:.\Generated_Source\PSoC5/USBUART_1.c **** *
ARM GAS  C:\Users\Colin\AppData\Local\Temp\ccMAPRQY.s 			page 17


 432:.\Generated_Source\PSoC5/USBUART_1.c **** * Summary:
 433:.\Generated_Source\PSoC5/USBUART_1.c **** *  This function reinitialize the component configuration and is
 434:.\Generated_Source\PSoC5/USBUART_1.c **** *  intend to be called from the Reset interrupt.
 435:.\Generated_Source\PSoC5/USBUART_1.c **** *
 436:.\Generated_Source\PSoC5/USBUART_1.c **** * Parameters:
 437:.\Generated_Source\PSoC5/USBUART_1.c **** *  None.
 438:.\Generated_Source\PSoC5/USBUART_1.c **** *
 439:.\Generated_Source\PSoC5/USBUART_1.c **** * Return:
 440:.\Generated_Source\PSoC5/USBUART_1.c **** *   None.
 441:.\Generated_Source\PSoC5/USBUART_1.c **** *
 442:.\Generated_Source\PSoC5/USBUART_1.c **** * Global variables:
 443:.\Generated_Source\PSoC5/USBUART_1.c **** *   USBUART_1_device: Contains the device number of the desired device
 444:.\Generated_Source\PSoC5/USBUART_1.c **** *        descriptor. The device number can be found in the Device Descriptor Tab
 445:.\Generated_Source\PSoC5/USBUART_1.c **** *       of "Configure" dialog, under the settings of desired Device Descriptor,
 446:.\Generated_Source\PSoC5/USBUART_1.c **** *       in the "Device Number" field.
 447:.\Generated_Source\PSoC5/USBUART_1.c **** *   USBUART_1_transferState: This variable used by the communication
 448:.\Generated_Source\PSoC5/USBUART_1.c **** *       functions to handle current transfer state. Initialized to
 449:.\Generated_Source\PSoC5/USBUART_1.c **** *       TRANS_STATE_IDLE in this API.
 450:.\Generated_Source\PSoC5/USBUART_1.c **** *   USBUART_1_configuration: Contains current configuration number
 451:.\Generated_Source\PSoC5/USBUART_1.c **** *       which is set by the Host using SET_CONFIGURATION request.
 452:.\Generated_Source\PSoC5/USBUART_1.c **** *       Initialized to zero in this API.
 453:.\Generated_Source\PSoC5/USBUART_1.c **** *   USBUART_1_deviceAddress: Contains current device address. This
 454:.\Generated_Source\PSoC5/USBUART_1.c **** *       variable is initialized to zero in this API. Host starts to communicate
 455:.\Generated_Source\PSoC5/USBUART_1.c **** *      to device with address 0 and then set it to whatever value using
 456:.\Generated_Source\PSoC5/USBUART_1.c **** *      SET_ADDRESS request.
 457:.\Generated_Source\PSoC5/USBUART_1.c **** *   USBUART_1_deviceStatus: initialized to 0.
 458:.\Generated_Source\PSoC5/USBUART_1.c **** *       This is two bit variable which contain power status in first bit
 459:.\Generated_Source\PSoC5/USBUART_1.c **** *       (DEVICE_STATUS_BUS_POWERED or DEVICE_STATUS_SELF_POWERED) and remote
 460:.\Generated_Source\PSoC5/USBUART_1.c **** *       wakeup status (DEVICE_STATUS_REMOTE_WAKEUP) in second bit.
 461:.\Generated_Source\PSoC5/USBUART_1.c **** *   USBUART_1_lastPacketSize initialized to 0;
 462:.\Generated_Source\PSoC5/USBUART_1.c **** *
 463:.\Generated_Source\PSoC5/USBUART_1.c **** * Reentrant:
 464:.\Generated_Source\PSoC5/USBUART_1.c **** *  No.
 465:.\Generated_Source\PSoC5/USBUART_1.c **** *
 466:.\Generated_Source\PSoC5/USBUART_1.c **** *******************************************************************************/
 467:.\Generated_Source\PSoC5/USBUART_1.c **** void USBUART_1_ReInitComponent(void) 
 468:.\Generated_Source\PSoC5/USBUART_1.c **** {
 480              		.loc 1 468 0
 481              		.cfi_startproc
 482              		@ args = 0, pretend = 0, frame = 8
 483              		@ frame_needed = 1, uses_anonymous_args = 0
 484              		@ link register save eliminated.
 485 0000 80B4     		push	{r7}
 486              	.LCFI9:
 487              		.cfi_def_cfa_offset 4
 488              		.cfi_offset 7, -4
 489 0002 83B0     		sub	sp, sp, #12
 490              	.LCFI10:
 491              		.cfi_def_cfa_offset 16
 492 0004 00AF     		add	r7, sp, #0
 493              	.LCFI11:
 494              		.cfi_def_cfa_register 7
 469:.\Generated_Source\PSoC5/USBUART_1.c ****     /* Initialize _hidProtocol variable to comply with HID 7.2.6 Set_Protocol
 470:.\Generated_Source\PSoC5/USBUART_1.c ****     *  Request: "When initialized, all devices default to report protocol."
 471:.\Generated_Source\PSoC5/USBUART_1.c ****     */
 472:.\Generated_Source\PSoC5/USBUART_1.c ****     #if defined(USBUART_1_ENABLE_HID_CLASS)
 473:.\Generated_Source\PSoC5/USBUART_1.c ****         uint8 i;
ARM GAS  C:\Users\Colin\AppData\Local\Temp\ccMAPRQY.s 			page 18


 474:.\Generated_Source\PSoC5/USBUART_1.c **** 
 475:.\Generated_Source\PSoC5/USBUART_1.c ****         for (i = 0u; i < USBUART_1_MAX_INTERFACES_NUMBER; i++)
 495              		.loc 1 475 0
 496 0006 4FF00003 		mov	r3, #0
 497 000a FB71     		strb	r3, [r7, #7]
 498 000c 0BE0     		b	.L13
 499              	.L14:
 476:.\Generated_Source\PSoC5/USBUART_1.c ****         {
 477:.\Generated_Source\PSoC5/USBUART_1.c ****             USBUART_1_hidProtocol[i] = USBUART_1_PROTOCOL_REPORT;
 500              		.loc 1 477 0 discriminator 2
 501 000e FA79     		ldrb	r2, [r7, #7]	@ zero_extendqisi2
 502 0010 40F20003 		movw	r3, #:lower16:USBUART_1_hidProtocol
 503 0014 C0F20003 		movt	r3, #:upper16:USBUART_1_hidProtocol
 504 0018 4FF00101 		mov	r1, #1
 505 001c 9954     		strb	r1, [r3, r2]
 475:.\Generated_Source\PSoC5/USBUART_1.c ****         for (i = 0u; i < USBUART_1_MAX_INTERFACES_NUMBER; i++)
 506              		.loc 1 475 0 discriminator 2
 507 001e FB79     		ldrb	r3, [r7, #7]
 508 0020 03F10103 		add	r3, r3, #1
 509 0024 FB71     		strb	r3, [r7, #7]
 510              	.L13:
 475:.\Generated_Source\PSoC5/USBUART_1.c ****         for (i = 0u; i < USBUART_1_MAX_INTERFACES_NUMBER; i++)
 511              		.loc 1 475 0 is_stmt 0 discriminator 1
 512 0026 FB79     		ldrb	r3, [r7, #7]	@ zero_extendqisi2
 513 0028 012B     		cmp	r3, #1
 514 002a F0D9     		bls	.L14
 478:.\Generated_Source\PSoC5/USBUART_1.c ****         }
 479:.\Generated_Source\PSoC5/USBUART_1.c ****     #endif /* USBUART_1_ENABLE_HID_CLASS */
 480:.\Generated_Source\PSoC5/USBUART_1.c **** 
 481:.\Generated_Source\PSoC5/USBUART_1.c ****     USBUART_1_transferState = USBUART_1_TRANS_STATE_IDLE;
 515              		.loc 1 481 0 is_stmt 1
 516 002c 40F20003 		movw	r3, #:lower16:USBUART_1_transferState
 517 0030 C0F20003 		movt	r3, #:upper16:USBUART_1_transferState
 518 0034 4FF00002 		mov	r2, #0
 519 0038 1A70     		strb	r2, [r3, #0]
 482:.\Generated_Source\PSoC5/USBUART_1.c **** 
 483:.\Generated_Source\PSoC5/USBUART_1.c ****     /* Clear all of the component data */
 484:.\Generated_Source\PSoC5/USBUART_1.c ****     USBUART_1_configuration = 0u;
 520              		.loc 1 484 0
 521 003a 40F20003 		movw	r3, #:lower16:USBUART_1_configuration
 522 003e C0F20003 		movt	r3, #:upper16:USBUART_1_configuration
 523 0042 4FF00002 		mov	r2, #0
 524 0046 1A70     		strb	r2, [r3, #0]
 485:.\Generated_Source\PSoC5/USBUART_1.c ****     USBUART_1_interfaceNumber = 0u;
 525              		.loc 1 485 0
 526 0048 40F20003 		movw	r3, #:lower16:USBUART_1_interfaceNumber
 527 004c C0F20003 		movt	r3, #:upper16:USBUART_1_interfaceNumber
 528 0050 4FF00002 		mov	r2, #0
 529 0054 1A70     		strb	r2, [r3, #0]
 486:.\Generated_Source\PSoC5/USBUART_1.c ****     USBUART_1_configurationChanged = 0u;
 530              		.loc 1 486 0
 531 0056 40F20003 		movw	r3, #:lower16:USBUART_1_configurationChanged
 532 005a C0F20003 		movt	r3, #:upper16:USBUART_1_configurationChanged
 533 005e 4FF00002 		mov	r2, #0
 534 0062 1A70     		strb	r2, [r3, #0]
 487:.\Generated_Source\PSoC5/USBUART_1.c ****     USBUART_1_deviceAddress  = 0u;
 535              		.loc 1 487 0
ARM GAS  C:\Users\Colin\AppData\Local\Temp\ccMAPRQY.s 			page 19


 536 0064 40F20003 		movw	r3, #:lower16:USBUART_1_deviceAddress
 537 0068 C0F20003 		movt	r3, #:upper16:USBUART_1_deviceAddress
 538 006c 4FF00002 		mov	r2, #0
 539 0070 1A70     		strb	r2, [r3, #0]
 488:.\Generated_Source\PSoC5/USBUART_1.c ****     USBUART_1_deviceStatus = 0u;
 540              		.loc 1 488 0
 541 0072 40F20003 		movw	r3, #:lower16:USBUART_1_deviceStatus
 542 0076 C0F20003 		movt	r3, #:upper16:USBUART_1_deviceStatus
 543 007a 4FF00002 		mov	r2, #0
 544 007e 1A70     		strb	r2, [r3, #0]
 489:.\Generated_Source\PSoC5/USBUART_1.c **** 
 490:.\Generated_Source\PSoC5/USBUART_1.c ****     USBUART_1_lastPacketSize = 0u;
 545              		.loc 1 490 0
 546 0080 40F20003 		movw	r3, #:lower16:USBUART_1_lastPacketSize
 547 0084 C0F20003 		movt	r3, #:upper16:USBUART_1_lastPacketSize
 548 0088 4FF00002 		mov	r2, #0
 549 008c 1A70     		strb	r2, [r3, #0]
 491:.\Generated_Source\PSoC5/USBUART_1.c **** 
 492:.\Generated_Source\PSoC5/USBUART_1.c **** 
 493:.\Generated_Source\PSoC5/USBUART_1.c ****     /*  ACK Setup, Stall IN/OUT */
 494:.\Generated_Source\PSoC5/USBUART_1.c ****     CY_SET_REG8(USBUART_1_EP0_CR_PTR, USBUART_1_MODE_STALL_IN_OUT);
 550              		.loc 1 494 0
 551 008e 46F22803 		movw	r3, #24616
 552 0092 C4F20003 		movt	r3, 16384
 553 0096 4FF00302 		mov	r2, #3
 554 009a 1A70     		strb	r2, [r3, #0]
 495:.\Generated_Source\PSoC5/USBUART_1.c **** 
 496:.\Generated_Source\PSoC5/USBUART_1.c ****     /* Enable the SIE with an address 0 */
 497:.\Generated_Source\PSoC5/USBUART_1.c ****     CY_SET_REG8(USBUART_1_CR0_PTR, USBUART_1_CR0_ENABLE);
 555              		.loc 1 497 0
 556 009c 46F20803 		movw	r3, #24584
 557 00a0 C4F20003 		movt	r3, 16384
 558 00a4 4FF08002 		mov	r2, #128
 559 00a8 1A70     		strb	r2, [r3, #0]
 498:.\Generated_Source\PSoC5/USBUART_1.c **** 
 499:.\Generated_Source\PSoC5/USBUART_1.c **** }
 560              		.loc 1 499 0
 561 00aa 07F10C07 		add	r7, r7, #12
 562 00ae BD46     		mov	sp, r7
 563 00b0 80BC     		pop	{r7}
 564 00b2 7047     		bx	lr
 565              		.cfi_endproc
 566              	.LFE3:
 567              		.size	USBUART_1_ReInitComponent, .-USBUART_1_ReInitComponent
 568              		.section	.text.USBUART_1_Stop,"ax",%progbits
 569              		.align	2
 570              		.global	USBUART_1_Stop
 571              		.thumb
 572              		.thumb_func
 573              		.type	USBUART_1_Stop, %function
 574              	USBUART_1_Stop:
 575              	.LFB4:
 500:.\Generated_Source\PSoC5/USBUART_1.c **** 
 501:.\Generated_Source\PSoC5/USBUART_1.c **** 
 502:.\Generated_Source\PSoC5/USBUART_1.c **** /*******************************************************************************
 503:.\Generated_Source\PSoC5/USBUART_1.c **** * Function Name: USBUART_1_Stop
 504:.\Generated_Source\PSoC5/USBUART_1.c **** ********************************************************************************
ARM GAS  C:\Users\Colin\AppData\Local\Temp\ccMAPRQY.s 			page 20


 505:.\Generated_Source\PSoC5/USBUART_1.c **** *
 506:.\Generated_Source\PSoC5/USBUART_1.c **** * Summary:
 507:.\Generated_Source\PSoC5/USBUART_1.c **** *  This function shuts down the USB function including to release
 508:.\Generated_Source\PSoC5/USBUART_1.c **** *  the D+ Pullup and disabling the SIE.
 509:.\Generated_Source\PSoC5/USBUART_1.c **** *
 510:.\Generated_Source\PSoC5/USBUART_1.c **** * Parameters:
 511:.\Generated_Source\PSoC5/USBUART_1.c **** *  None.
 512:.\Generated_Source\PSoC5/USBUART_1.c **** *
 513:.\Generated_Source\PSoC5/USBUART_1.c **** * Return:
 514:.\Generated_Source\PSoC5/USBUART_1.c **** *  None.
 515:.\Generated_Source\PSoC5/USBUART_1.c **** *
 516:.\Generated_Source\PSoC5/USBUART_1.c **** * Global variables:
 517:.\Generated_Source\PSoC5/USBUART_1.c **** *   USBUART_1_configuration: Contains current configuration number
 518:.\Generated_Source\PSoC5/USBUART_1.c **** *       which is set by the Host using SET_CONFIGURATION request.
 519:.\Generated_Source\PSoC5/USBUART_1.c **** *       Initialized to zero in this API.
 520:.\Generated_Source\PSoC5/USBUART_1.c **** *   USBUART_1_deviceAddress: Contains current device address. This
 521:.\Generated_Source\PSoC5/USBUART_1.c **** *       variable is initialized to zero in this API. Host starts to communicate
 522:.\Generated_Source\PSoC5/USBUART_1.c **** *      to device with address 0 and then set it to whatever value using
 523:.\Generated_Source\PSoC5/USBUART_1.c **** *      SET_ADDRESS request.
 524:.\Generated_Source\PSoC5/USBUART_1.c **** *   USBUART_1_deviceStatus: initialized to 0.
 525:.\Generated_Source\PSoC5/USBUART_1.c **** *       This is two bit variable which contain power status in first bit
 526:.\Generated_Source\PSoC5/USBUART_1.c **** *       (DEVICE_STATUS_BUS_POWERED or DEVICE_STATUS_SELF_POWERED) and remote
 527:.\Generated_Source\PSoC5/USBUART_1.c **** *       wakeup status (DEVICE_STATUS_REMOTE_WAKEUP) in second bit.
 528:.\Generated_Source\PSoC5/USBUART_1.c **** *   USBUART_1_configurationChanged: This variable is set to one after
 529:.\Generated_Source\PSoC5/USBUART_1.c **** *       SET_CONFIGURATION request and cleared in this function.
 530:.\Generated_Source\PSoC5/USBUART_1.c **** *   USBUART_1_intiVar variable is set to zero
 531:.\Generated_Source\PSoC5/USBUART_1.c **** *
 532:.\Generated_Source\PSoC5/USBUART_1.c **** *******************************************************************************/
 533:.\Generated_Source\PSoC5/USBUART_1.c **** void USBUART_1_Stop(void) 
 534:.\Generated_Source\PSoC5/USBUART_1.c **** {
 576              		.loc 1 534 0
 577              		.cfi_startproc
 578              		@ args = 0, pretend = 0, frame = 0
 579              		@ frame_needed = 1, uses_anonymous_args = 0
 580              		@ link register save eliminated.
 581 0000 80B4     		push	{r7}
 582              	.LCFI12:
 583              		.cfi_def_cfa_offset 4
 584              		.cfi_offset 7, -4
 585 0002 00AF     		add	r7, sp, #0
 586              	.LCFI13:
 587              		.cfi_def_cfa_register 7
 535:.\Generated_Source\PSoC5/USBUART_1.c **** 
 536:.\Generated_Source\PSoC5/USBUART_1.c ****     #if(USBUART_1_EP_MM != USBUART_1__EP_MANUAL)
 537:.\Generated_Source\PSoC5/USBUART_1.c ****         USBUART_1_Stop_DMA(USBUART_1_MAX_EP);     /* Stop all DMAs */
 538:.\Generated_Source\PSoC5/USBUART_1.c ****     #endif   /* End USBUART_1_EP_MM != USBUART_1__EP_MANUAL */
 539:.\Generated_Source\PSoC5/USBUART_1.c **** 
 540:.\Generated_Source\PSoC5/USBUART_1.c ****     /* Disable the SIE */
 541:.\Generated_Source\PSoC5/USBUART_1.c ****     USBUART_1_CR0_REG &= (uint8)(~USBUART_1_CR0_ENABLE);
 588              		.loc 1 541 0
 589 0004 46F20803 		movw	r3, #24584
 590 0008 C4F20003 		movt	r3, 16384
 591 000c 46F20802 		movw	r2, #24584
 592 0010 C4F20002 		movt	r2, 16384
 593 0014 1278     		ldrb	r2, [r2, #0]
 594 0016 D2B2     		uxtb	r2, r2
 595 0018 02F07F02 		and	r2, r2, #127
ARM GAS  C:\Users\Colin\AppData\Local\Temp\ccMAPRQY.s 			page 21


 596 001c D2B2     		uxtb	r2, r2
 597 001e 1A70     		strb	r2, [r3, #0]
 542:.\Generated_Source\PSoC5/USBUART_1.c ****     /* Disable the d+ pullup */
 543:.\Generated_Source\PSoC5/USBUART_1.c ****     USBUART_1_USBIO_CR1_REG &= (uint8)(~USBUART_1_USBIO_CR1_USBPUEN);
 598              		.loc 1 543 0
 599 0020 46F21203 		movw	r3, #24594
 600 0024 C4F20003 		movt	r3, 16384
 601 0028 46F21202 		movw	r2, #24594
 602 002c C4F20002 		movt	r2, 16384
 603 0030 1278     		ldrb	r2, [r2, #0]
 604 0032 D2B2     		uxtb	r2, r2
 605 0034 22F00402 		bic	r2, r2, #4
 606 0038 D2B2     		uxtb	r2, r2
 607 003a 1A70     		strb	r2, [r3, #0]
 544:.\Generated_Source\PSoC5/USBUART_1.c ****     /* Disable USB in ACT PM */
 545:.\Generated_Source\PSoC5/USBUART_1.c ****     USBUART_1_PM_ACT_CFG_REG &= (uint8)(~USBUART_1_PM_ACT_EN_FSUSB);
 608              		.loc 1 545 0
 609 003c 44F2A533 		movw	r3, #17317
 610 0040 C4F20003 		movt	r3, 16384
 611 0044 44F2A532 		movw	r2, #17317
 612 0048 C4F20002 		movt	r2, 16384
 613 004c 1278     		ldrb	r2, [r2, #0]
 614 004e D2B2     		uxtb	r2, r2
 615 0050 22F00102 		bic	r2, r2, #1
 616 0054 D2B2     		uxtb	r2, r2
 617 0056 1A70     		strb	r2, [r3, #0]
 546:.\Generated_Source\PSoC5/USBUART_1.c ****     /* Disable USB block for Standby Power Mode */
 547:.\Generated_Source\PSoC5/USBUART_1.c ****     USBUART_1_PM_STBY_CFG_REG &= (uint8)(~USBUART_1_PM_STBY_EN_FSUSB);
 618              		.loc 1 547 0
 619 0058 44F2B533 		movw	r3, #17333
 620 005c C4F20003 		movt	r3, 16384
 621 0060 44F2B532 		movw	r2, #17333
 622 0064 C4F20002 		movt	r2, 16384
 623 0068 1278     		ldrb	r2, [r2, #0]
 624 006a D2B2     		uxtb	r2, r2
 625 006c 22F00102 		bic	r2, r2, #1
 626 0070 D2B2     		uxtb	r2, r2
 627 0072 1A70     		strb	r2, [r3, #0]
 548:.\Generated_Source\PSoC5/USBUART_1.c **** 
 549:.\Generated_Source\PSoC5/USBUART_1.c ****     /* Disable the reset and EP interrupts */
 550:.\Generated_Source\PSoC5/USBUART_1.c ****     CyIntDisable(USBUART_1_BUS_RESET_VECT_NUM);
 628              		.loc 1 550 0
 629 0074 4EF28013 		movw	r3, #57728
 630 0078 CEF20003 		movt	r3, 57344
 631 007c 4FF40002 		mov	r2, #8388608
 632 0080 1A60     		str	r2, [r3, #0]
 551:.\Generated_Source\PSoC5/USBUART_1.c ****     CyIntDisable(USBUART_1_EP_0_VECT_NUM);
 633              		.loc 1 551 0
 634 0082 4EF28013 		movw	r3, #57728
 635 0086 CEF20003 		movt	r3, 57344
 636 008a 4FF08072 		mov	r2, #16777216
 637 008e 1A60     		str	r2, [r3, #0]
 552:.\Generated_Source\PSoC5/USBUART_1.c ****     #if(USBUART_1_EP1_ISR_REMOVE == 0u)
 553:.\Generated_Source\PSoC5/USBUART_1.c ****         CyIntDisable(USBUART_1_EP_1_VECT_NUM);
 638              		.loc 1 553 0
 639 0090 4EF28013 		movw	r3, #57728
 640 0094 CEF20003 		movt	r3, 57344
ARM GAS  C:\Users\Colin\AppData\Local\Temp\ccMAPRQY.s 			page 22


 641 0098 4FF00802 		mov	r2, #8
 642 009c 1A60     		str	r2, [r3, #0]
 554:.\Generated_Source\PSoC5/USBUART_1.c ****     #endif   /* End USBUART_1_EP1_ISR_REMOVE */
 555:.\Generated_Source\PSoC5/USBUART_1.c ****     #if(USBUART_1_EP2_ISR_REMOVE == 0u)
 556:.\Generated_Source\PSoC5/USBUART_1.c ****         CyIntDisable(USBUART_1_EP_2_VECT_NUM);
 643              		.loc 1 556 0
 644 009e 4EF28013 		movw	r3, #57728
 645 00a2 CEF20003 		movt	r3, 57344
 646 00a6 4FF01002 		mov	r2, #16
 647 00aa 1A60     		str	r2, [r3, #0]
 557:.\Generated_Source\PSoC5/USBUART_1.c ****     #endif   /* End USBUART_1_EP2_ISR_REMOVE */
 558:.\Generated_Source\PSoC5/USBUART_1.c ****     #if(USBUART_1_EP3_ISR_REMOVE == 0u)
 559:.\Generated_Source\PSoC5/USBUART_1.c ****         CyIntDisable(USBUART_1_EP_3_VECT_NUM);
 648              		.loc 1 559 0
 649 00ac 4EF28013 		movw	r3, #57728
 650 00b0 CEF20003 		movt	r3, 57344
 651 00b4 4FF02002 		mov	r2, #32
 652 00b8 1A60     		str	r2, [r3, #0]
 560:.\Generated_Source\PSoC5/USBUART_1.c ****     #endif   /* End USBUART_1_EP3_ISR_REMOVE */
 561:.\Generated_Source\PSoC5/USBUART_1.c ****     #if(USBUART_1_EP4_ISR_REMOVE == 0u)
 562:.\Generated_Source\PSoC5/USBUART_1.c ****         CyIntDisable(USBUART_1_EP_4_VECT_NUM);
 563:.\Generated_Source\PSoC5/USBUART_1.c ****     #endif   /* End USBUART_1_EP4_ISR_REMOVE */
 564:.\Generated_Source\PSoC5/USBUART_1.c ****     #if(USBUART_1_EP5_ISR_REMOVE == 0u)
 565:.\Generated_Source\PSoC5/USBUART_1.c ****         CyIntDisable(USBUART_1_EP_5_VECT_NUM);
 566:.\Generated_Source\PSoC5/USBUART_1.c ****     #endif   /* End USBUART_1_EP5_ISR_REMOVE */
 567:.\Generated_Source\PSoC5/USBUART_1.c ****     #if(USBUART_1_EP6_ISR_REMOVE == 0u)
 568:.\Generated_Source\PSoC5/USBUART_1.c ****         CyIntDisable(USBUART_1_EP_6_VECT_NUM);
 569:.\Generated_Source\PSoC5/USBUART_1.c ****     #endif   /* End USBUART_1_EP6_ISR_REMOVE */
 570:.\Generated_Source\PSoC5/USBUART_1.c ****     #if(USBUART_1_EP7_ISR_REMOVE == 0u)
 571:.\Generated_Source\PSoC5/USBUART_1.c ****         CyIntDisable(USBUART_1_EP_7_VECT_NUM);
 572:.\Generated_Source\PSoC5/USBUART_1.c ****     #endif   /* End USBUART_1_EP7_ISR_REMOVE */
 573:.\Generated_Source\PSoC5/USBUART_1.c ****     #if(USBUART_1_EP8_ISR_REMOVE == 0u)
 574:.\Generated_Source\PSoC5/USBUART_1.c ****         CyIntDisable(USBUART_1_EP_8_VECT_NUM);
 575:.\Generated_Source\PSoC5/USBUART_1.c ****     #endif   /* End USBUART_1_EP8_ISR_REMOVE */
 576:.\Generated_Source\PSoC5/USBUART_1.c **** 
 577:.\Generated_Source\PSoC5/USBUART_1.c ****     /* Clear all of the component data */
 578:.\Generated_Source\PSoC5/USBUART_1.c ****     USBUART_1_configuration = 0u;
 653              		.loc 1 578 0
 654 00ba 40F20003 		movw	r3, #:lower16:USBUART_1_configuration
 655 00be C0F20003 		movt	r3, #:upper16:USBUART_1_configuration
 656 00c2 4FF00002 		mov	r2, #0
 657 00c6 1A70     		strb	r2, [r3, #0]
 579:.\Generated_Source\PSoC5/USBUART_1.c ****     USBUART_1_interfaceNumber = 0u;
 658              		.loc 1 579 0
 659 00c8 40F20003 		movw	r3, #:lower16:USBUART_1_interfaceNumber
 660 00cc C0F20003 		movt	r3, #:upper16:USBUART_1_interfaceNumber
 661 00d0 4FF00002 		mov	r2, #0
 662 00d4 1A70     		strb	r2, [r3, #0]
 580:.\Generated_Source\PSoC5/USBUART_1.c ****     USBUART_1_configurationChanged = 0u;
 663              		.loc 1 580 0
 664 00d6 40F20003 		movw	r3, #:lower16:USBUART_1_configurationChanged
 665 00da C0F20003 		movt	r3, #:upper16:USBUART_1_configurationChanged
 666 00de 4FF00002 		mov	r2, #0
 667 00e2 1A70     		strb	r2, [r3, #0]
 581:.\Generated_Source\PSoC5/USBUART_1.c ****     USBUART_1_deviceAddress  = 0u;
 668              		.loc 1 581 0
 669 00e4 40F20003 		movw	r3, #:lower16:USBUART_1_deviceAddress
ARM GAS  C:\Users\Colin\AppData\Local\Temp\ccMAPRQY.s 			page 23


 670 00e8 C0F20003 		movt	r3, #:upper16:USBUART_1_deviceAddress
 671 00ec 4FF00002 		mov	r2, #0
 672 00f0 1A70     		strb	r2, [r3, #0]
 582:.\Generated_Source\PSoC5/USBUART_1.c ****     USBUART_1_deviceStatus = 0u;
 673              		.loc 1 582 0
 674 00f2 40F20003 		movw	r3, #:lower16:USBUART_1_deviceStatus
 675 00f6 C0F20003 		movt	r3, #:upper16:USBUART_1_deviceStatus
 676 00fa 4FF00002 		mov	r2, #0
 677 00fe 1A70     		strb	r2, [r3, #0]
 583:.\Generated_Source\PSoC5/USBUART_1.c ****     USBUART_1_initVar = 0u;
 678              		.loc 1 583 0
 679 0100 40F20003 		movw	r3, #:lower16:USBUART_1_initVar
 680 0104 C0F20003 		movt	r3, #:upper16:USBUART_1_initVar
 681 0108 4FF00002 		mov	r2, #0
 682 010c 1A70     		strb	r2, [r3, #0]
 584:.\Generated_Source\PSoC5/USBUART_1.c **** 
 585:.\Generated_Source\PSoC5/USBUART_1.c **** }
 683              		.loc 1 585 0
 684 010e BD46     		mov	sp, r7
 685 0110 80BC     		pop	{r7}
 686 0112 7047     		bx	lr
 687              		.cfi_endproc
 688              	.LFE4:
 689              		.size	USBUART_1_Stop, .-USBUART_1_Stop
 690              		.section	.text.USBUART_1_CheckActivity,"ax",%progbits
 691              		.align	2
 692              		.global	USBUART_1_CheckActivity
 693              		.thumb
 694              		.thumb_func
 695              		.type	USBUART_1_CheckActivity, %function
 696              	USBUART_1_CheckActivity:
 697              	.LFB5:
 586:.\Generated_Source\PSoC5/USBUART_1.c **** 
 587:.\Generated_Source\PSoC5/USBUART_1.c **** 
 588:.\Generated_Source\PSoC5/USBUART_1.c **** /*******************************************************************************
 589:.\Generated_Source\PSoC5/USBUART_1.c **** * Function Name: USBUART_1_CheckActivity
 590:.\Generated_Source\PSoC5/USBUART_1.c **** ********************************************************************************
 591:.\Generated_Source\PSoC5/USBUART_1.c **** *
 592:.\Generated_Source\PSoC5/USBUART_1.c **** * Summary:
 593:.\Generated_Source\PSoC5/USBUART_1.c **** *  Returns the activity status of the bus.  Clears the status hardware to
 594:.\Generated_Source\PSoC5/USBUART_1.c **** *  provide fresh activity status on the next call of this routine.
 595:.\Generated_Source\PSoC5/USBUART_1.c **** *
 596:.\Generated_Source\PSoC5/USBUART_1.c **** * Parameters:
 597:.\Generated_Source\PSoC5/USBUART_1.c **** *  None.
 598:.\Generated_Source\PSoC5/USBUART_1.c **** *
 599:.\Generated_Source\PSoC5/USBUART_1.c **** * Return:
 600:.\Generated_Source\PSoC5/USBUART_1.c **** *  1 - If bus activity was detected since the last call to this function
 601:.\Generated_Source\PSoC5/USBUART_1.c **** *  0 - If bus activity not was detected since the last call to this function
 602:.\Generated_Source\PSoC5/USBUART_1.c **** *
 603:.\Generated_Source\PSoC5/USBUART_1.c **** *******************************************************************************/
 604:.\Generated_Source\PSoC5/USBUART_1.c **** uint8 USBUART_1_CheckActivity(void) 
 605:.\Generated_Source\PSoC5/USBUART_1.c **** {
 698              		.loc 1 605 0
 699              		.cfi_startproc
 700              		@ args = 0, pretend = 0, frame = 8
 701              		@ frame_needed = 1, uses_anonymous_args = 0
 702              		@ link register save eliminated.
ARM GAS  C:\Users\Colin\AppData\Local\Temp\ccMAPRQY.s 			page 24


 703 0000 80B4     		push	{r7}
 704              	.LCFI14:
 705              		.cfi_def_cfa_offset 4
 706              		.cfi_offset 7, -4
 707 0002 83B0     		sub	sp, sp, #12
 708              	.LCFI15:
 709              		.cfi_def_cfa_offset 16
 710 0004 00AF     		add	r7, sp, #0
 711              	.LCFI16:
 712              		.cfi_def_cfa_register 7
 606:.\Generated_Source\PSoC5/USBUART_1.c ****     uint8 r;
 607:.\Generated_Source\PSoC5/USBUART_1.c **** 
 608:.\Generated_Source\PSoC5/USBUART_1.c ****     r = CY_GET_REG8(USBUART_1_CR1_PTR);
 713              		.loc 1 608 0
 714 0006 46F20903 		movw	r3, #24585
 715 000a C4F20003 		movt	r3, 16384
 716 000e 1B78     		ldrb	r3, [r3, #0]
 717 0010 FB71     		strb	r3, [r7, #7]
 609:.\Generated_Source\PSoC5/USBUART_1.c ****     CY_SET_REG8(USBUART_1_CR1_PTR, (r & ((uint8)(~USBUART_1_CR1_BUS_ACTIVITY))));
 718              		.loc 1 609 0
 719 0012 46F20903 		movw	r3, #24585
 720 0016 C4F20003 		movt	r3, 16384
 721 001a FA79     		ldrb	r2, [r7, #7]
 722 001c 22F00402 		bic	r2, r2, #4
 723 0020 D2B2     		uxtb	r2, r2
 724 0022 1A70     		strb	r2, [r3, #0]
 610:.\Generated_Source\PSoC5/USBUART_1.c **** 
 611:.\Generated_Source\PSoC5/USBUART_1.c ****     return((r & USBUART_1_CR1_BUS_ACTIVITY) >> USBUART_1_CR1_BUS_ACTIVITY_SHIFT);
 725              		.loc 1 611 0
 726 0024 FB79     		ldrb	r3, [r7, #7]	@ zero_extendqisi2
 727 0026 03F00403 		and	r3, r3, #4
 728 002a 4FEAA303 		asr	r3, r3, #2
 729 002e DBB2     		uxtb	r3, r3
 612:.\Generated_Source\PSoC5/USBUART_1.c **** }
 730              		.loc 1 612 0
 731 0030 1846     		mov	r0, r3
 732 0032 07F10C07 		add	r7, r7, #12
 733 0036 BD46     		mov	sp, r7
 734 0038 80BC     		pop	{r7}
 735 003a 7047     		bx	lr
 736              		.cfi_endproc
 737              	.LFE5:
 738              		.size	USBUART_1_CheckActivity, .-USBUART_1_CheckActivity
 739              		.section	.text.USBUART_1_GetConfiguration,"ax",%progbits
 740              		.align	2
 741              		.global	USBUART_1_GetConfiguration
 742              		.thumb
 743              		.thumb_func
 744              		.type	USBUART_1_GetConfiguration, %function
 745              	USBUART_1_GetConfiguration:
 746              	.LFB6:
 613:.\Generated_Source\PSoC5/USBUART_1.c **** 
 614:.\Generated_Source\PSoC5/USBUART_1.c **** 
 615:.\Generated_Source\PSoC5/USBUART_1.c **** /*******************************************************************************
 616:.\Generated_Source\PSoC5/USBUART_1.c **** * Function Name: USBUART_1_GetConfiguration
 617:.\Generated_Source\PSoC5/USBUART_1.c **** ********************************************************************************
 618:.\Generated_Source\PSoC5/USBUART_1.c **** *
ARM GAS  C:\Users\Colin\AppData\Local\Temp\ccMAPRQY.s 			page 25


 619:.\Generated_Source\PSoC5/USBUART_1.c **** * Summary:
 620:.\Generated_Source\PSoC5/USBUART_1.c **** *  Returns the current configuration setting
 621:.\Generated_Source\PSoC5/USBUART_1.c **** *
 622:.\Generated_Source\PSoC5/USBUART_1.c **** * Parameters:
 623:.\Generated_Source\PSoC5/USBUART_1.c **** *  None.
 624:.\Generated_Source\PSoC5/USBUART_1.c **** *
 625:.\Generated_Source\PSoC5/USBUART_1.c **** * Return:
 626:.\Generated_Source\PSoC5/USBUART_1.c **** *  configuration.
 627:.\Generated_Source\PSoC5/USBUART_1.c **** *
 628:.\Generated_Source\PSoC5/USBUART_1.c **** *******************************************************************************/
 629:.\Generated_Source\PSoC5/USBUART_1.c **** uint8 USBUART_1_GetConfiguration(void) 
 630:.\Generated_Source\PSoC5/USBUART_1.c **** {
 747              		.loc 1 630 0
 748              		.cfi_startproc
 749              		@ args = 0, pretend = 0, frame = 0
 750              		@ frame_needed = 1, uses_anonymous_args = 0
 751              		@ link register save eliminated.
 752 0000 80B4     		push	{r7}
 753              	.LCFI17:
 754              		.cfi_def_cfa_offset 4
 755              		.cfi_offset 7, -4
 756 0002 00AF     		add	r7, sp, #0
 757              	.LCFI18:
 758              		.cfi_def_cfa_register 7
 631:.\Generated_Source\PSoC5/USBUART_1.c ****     return(USBUART_1_configuration);
 759              		.loc 1 631 0
 760 0004 40F20003 		movw	r3, #:lower16:USBUART_1_configuration
 761 0008 C0F20003 		movt	r3, #:upper16:USBUART_1_configuration
 762 000c 1B78     		ldrb	r3, [r3, #0]
 763 000e DBB2     		uxtb	r3, r3
 632:.\Generated_Source\PSoC5/USBUART_1.c **** }
 764              		.loc 1 632 0
 765 0010 1846     		mov	r0, r3
 766 0012 BD46     		mov	sp, r7
 767 0014 80BC     		pop	{r7}
 768 0016 7047     		bx	lr
 769              		.cfi_endproc
 770              	.LFE6:
 771              		.size	USBUART_1_GetConfiguration, .-USBUART_1_GetConfiguration
 772              		.section	.text.USBUART_1_IsConfigurationChanged,"ax",%progbits
 773              		.align	2
 774              		.global	USBUART_1_IsConfigurationChanged
 775              		.thumb
 776              		.thumb_func
 777              		.type	USBUART_1_IsConfigurationChanged, %function
 778              	USBUART_1_IsConfigurationChanged:
 779              	.LFB7:
 633:.\Generated_Source\PSoC5/USBUART_1.c **** 
 634:.\Generated_Source\PSoC5/USBUART_1.c **** 
 635:.\Generated_Source\PSoC5/USBUART_1.c **** /*******************************************************************************
 636:.\Generated_Source\PSoC5/USBUART_1.c **** * Function Name: USBUART_1_IsConfigurationChanged
 637:.\Generated_Source\PSoC5/USBUART_1.c **** ********************************************************************************
 638:.\Generated_Source\PSoC5/USBUART_1.c **** *
 639:.\Generated_Source\PSoC5/USBUART_1.c **** * Summary:
 640:.\Generated_Source\PSoC5/USBUART_1.c **** *  Returns the clear on read configuration state. It is usefull when PC send
 641:.\Generated_Source\PSoC5/USBUART_1.c **** *  double SET_CONFIGURATION request with same configuration number.
 642:.\Generated_Source\PSoC5/USBUART_1.c **** *
ARM GAS  C:\Users\Colin\AppData\Local\Temp\ccMAPRQY.s 			page 26


 643:.\Generated_Source\PSoC5/USBUART_1.c **** * Parameters:
 644:.\Generated_Source\PSoC5/USBUART_1.c **** *  None.
 645:.\Generated_Source\PSoC5/USBUART_1.c **** *
 646:.\Generated_Source\PSoC5/USBUART_1.c **** * Return:
 647:.\Generated_Source\PSoC5/USBUART_1.c **** *  Not zero value when new configuration has been changed, otherwise zero is
 648:.\Generated_Source\PSoC5/USBUART_1.c **** *  returned.
 649:.\Generated_Source\PSoC5/USBUART_1.c **** *
 650:.\Generated_Source\PSoC5/USBUART_1.c **** * Global variables:
 651:.\Generated_Source\PSoC5/USBUART_1.c **** *   USBUART_1_configurationChanged: This variable is set to one after
 652:.\Generated_Source\PSoC5/USBUART_1.c **** *       SET_CONFIGURATION request and cleared in this function.
 653:.\Generated_Source\PSoC5/USBUART_1.c **** *
 654:.\Generated_Source\PSoC5/USBUART_1.c **** *******************************************************************************/
 655:.\Generated_Source\PSoC5/USBUART_1.c **** uint8 USBUART_1_IsConfigurationChanged(void) 
 656:.\Generated_Source\PSoC5/USBUART_1.c **** {
 780              		.loc 1 656 0
 781              		.cfi_startproc
 782              		@ args = 0, pretend = 0, frame = 8
 783              		@ frame_needed = 1, uses_anonymous_args = 0
 784              		@ link register save eliminated.
 785 0000 80B4     		push	{r7}
 786              	.LCFI19:
 787              		.cfi_def_cfa_offset 4
 788              		.cfi_offset 7, -4
 789 0002 83B0     		sub	sp, sp, #12
 790              	.LCFI20:
 791              		.cfi_def_cfa_offset 16
 792 0004 00AF     		add	r7, sp, #0
 793              	.LCFI21:
 794              		.cfi_def_cfa_register 7
 657:.\Generated_Source\PSoC5/USBUART_1.c ****     uint8 res = 0u;
 795              		.loc 1 657 0
 796 0006 4FF00003 		mov	r3, #0
 797 000a FB71     		strb	r3, [r7, #7]
 658:.\Generated_Source\PSoC5/USBUART_1.c **** 
 659:.\Generated_Source\PSoC5/USBUART_1.c ****     if(USBUART_1_configurationChanged != 0u)
 798              		.loc 1 659 0
 799 000c 40F20003 		movw	r3, #:lower16:USBUART_1_configurationChanged
 800 0010 C0F20003 		movt	r3, #:upper16:USBUART_1_configurationChanged
 801 0014 1B78     		ldrb	r3, [r3, #0]
 802 0016 DBB2     		uxtb	r3, r3
 803 0018 002B     		cmp	r3, #0
 804 001a 0CD0     		beq	.L21
 660:.\Generated_Source\PSoC5/USBUART_1.c ****     {
 661:.\Generated_Source\PSoC5/USBUART_1.c ****         res = USBUART_1_configurationChanged;
 805              		.loc 1 661 0
 806 001c 40F20003 		movw	r3, #:lower16:USBUART_1_configurationChanged
 807 0020 C0F20003 		movt	r3, #:upper16:USBUART_1_configurationChanged
 808 0024 1B78     		ldrb	r3, [r3, #0]
 809 0026 FB71     		strb	r3, [r7, #7]
 662:.\Generated_Source\PSoC5/USBUART_1.c ****         USBUART_1_configurationChanged = 0u;
 810              		.loc 1 662 0
 811 0028 40F20003 		movw	r3, #:lower16:USBUART_1_configurationChanged
 812 002c C0F20003 		movt	r3, #:upper16:USBUART_1_configurationChanged
 813 0030 4FF00002 		mov	r2, #0
 814 0034 1A70     		strb	r2, [r3, #0]
 815              	.L21:
 663:.\Generated_Source\PSoC5/USBUART_1.c ****     }
ARM GAS  C:\Users\Colin\AppData\Local\Temp\ccMAPRQY.s 			page 27


 664:.\Generated_Source\PSoC5/USBUART_1.c **** 
 665:.\Generated_Source\PSoC5/USBUART_1.c ****     return(res);
 816              		.loc 1 665 0
 817 0036 FB79     		ldrb	r3, [r7, #7]	@ zero_extendqisi2
 666:.\Generated_Source\PSoC5/USBUART_1.c **** }
 818              		.loc 1 666 0
 819 0038 1846     		mov	r0, r3
 820 003a 07F10C07 		add	r7, r7, #12
 821 003e BD46     		mov	sp, r7
 822 0040 80BC     		pop	{r7}
 823 0042 7047     		bx	lr
 824              		.cfi_endproc
 825              	.LFE7:
 826              		.size	USBUART_1_IsConfigurationChanged, .-USBUART_1_IsConfigurationChanged
 827              		.section	.text.USBUART_1_GetInterfaceSetting,"ax",%progbits
 828              		.align	2
 829              		.global	USBUART_1_GetInterfaceSetting
 830              		.thumb
 831              		.thumb_func
 832              		.type	USBUART_1_GetInterfaceSetting, %function
 833              	USBUART_1_GetInterfaceSetting:
 834              	.LFB8:
 667:.\Generated_Source\PSoC5/USBUART_1.c **** 
 668:.\Generated_Source\PSoC5/USBUART_1.c **** 
 669:.\Generated_Source\PSoC5/USBUART_1.c **** /*******************************************************************************
 670:.\Generated_Source\PSoC5/USBUART_1.c **** * Function Name: USBUART_1_GetInterfaceSetting
 671:.\Generated_Source\PSoC5/USBUART_1.c **** ********************************************************************************
 672:.\Generated_Source\PSoC5/USBUART_1.c **** *
 673:.\Generated_Source\PSoC5/USBUART_1.c **** * Summary:
 674:.\Generated_Source\PSoC5/USBUART_1.c **** *  Returns the alternate setting from current interface
 675:.\Generated_Source\PSoC5/USBUART_1.c **** *
 676:.\Generated_Source\PSoC5/USBUART_1.c **** * Parameters:
 677:.\Generated_Source\PSoC5/USBUART_1.c **** *  uint8 interfaceNumber, interface number
 678:.\Generated_Source\PSoC5/USBUART_1.c **** *
 679:.\Generated_Source\PSoC5/USBUART_1.c **** * Return:
 680:.\Generated_Source\PSoC5/USBUART_1.c **** *  Alternate setting.
 681:.\Generated_Source\PSoC5/USBUART_1.c **** *
 682:.\Generated_Source\PSoC5/USBUART_1.c **** *******************************************************************************/
 683:.\Generated_Source\PSoC5/USBUART_1.c **** uint8  USBUART_1_GetInterfaceSetting(uint8 interfaceNumber)
 684:.\Generated_Source\PSoC5/USBUART_1.c ****                                                     
 685:.\Generated_Source\PSoC5/USBUART_1.c **** {
 835              		.loc 1 685 0
 836              		.cfi_startproc
 837              		@ args = 0, pretend = 0, frame = 8
 838              		@ frame_needed = 1, uses_anonymous_args = 0
 839              		@ link register save eliminated.
 840 0000 80B4     		push	{r7}
 841              	.LCFI22:
 842              		.cfi_def_cfa_offset 4
 843              		.cfi_offset 7, -4
 844 0002 83B0     		sub	sp, sp, #12
 845              	.LCFI23:
 846              		.cfi_def_cfa_offset 16
 847 0004 00AF     		add	r7, sp, #0
 848              	.LCFI24:
 849              		.cfi_def_cfa_register 7
 850 0006 0346     		mov	r3, r0
ARM GAS  C:\Users\Colin\AppData\Local\Temp\ccMAPRQY.s 			page 28


 851 0008 FB71     		strb	r3, [r7, #7]
 686:.\Generated_Source\PSoC5/USBUART_1.c ****     return(USBUART_1_interfaceSetting[interfaceNumber]);
 852              		.loc 1 686 0
 853 000a FA79     		ldrb	r2, [r7, #7]	@ zero_extendqisi2
 854 000c 40F20003 		movw	r3, #:lower16:USBUART_1_interfaceSetting
 855 0010 C0F20003 		movt	r3, #:upper16:USBUART_1_interfaceSetting
 856 0014 9B5C     		ldrb	r3, [r3, r2]
 857 0016 DBB2     		uxtb	r3, r3
 687:.\Generated_Source\PSoC5/USBUART_1.c **** }
 858              		.loc 1 687 0
 859 0018 1846     		mov	r0, r3
 860 001a 07F10C07 		add	r7, r7, #12
 861 001e BD46     		mov	sp, r7
 862 0020 80BC     		pop	{r7}
 863 0022 7047     		bx	lr
 864              		.cfi_endproc
 865              	.LFE8:
 866              		.size	USBUART_1_GetInterfaceSetting, .-USBUART_1_GetInterfaceSetting
 867              		.section	.text.USBUART_1_GetEPState,"ax",%progbits
 868              		.align	2
 869              		.global	USBUART_1_GetEPState
 870              		.thumb
 871              		.thumb_func
 872              		.type	USBUART_1_GetEPState, %function
 873              	USBUART_1_GetEPState:
 874              	.LFB9:
 688:.\Generated_Source\PSoC5/USBUART_1.c **** 
 689:.\Generated_Source\PSoC5/USBUART_1.c **** 
 690:.\Generated_Source\PSoC5/USBUART_1.c **** /*******************************************************************************
 691:.\Generated_Source\PSoC5/USBUART_1.c **** * Function Name: USBUART_1_GetEPState
 692:.\Generated_Source\PSoC5/USBUART_1.c **** ********************************************************************************
 693:.\Generated_Source\PSoC5/USBUART_1.c **** *
 694:.\Generated_Source\PSoC5/USBUART_1.c **** * Summary:
 695:.\Generated_Source\PSoC5/USBUART_1.c **** *  Returned the state of the requested endpoint.
 696:.\Generated_Source\PSoC5/USBUART_1.c **** *
 697:.\Generated_Source\PSoC5/USBUART_1.c **** * Parameters:
 698:.\Generated_Source\PSoC5/USBUART_1.c **** *  epNumber: Endpoint Number
 699:.\Generated_Source\PSoC5/USBUART_1.c **** *
 700:.\Generated_Source\PSoC5/USBUART_1.c **** * Return:
 701:.\Generated_Source\PSoC5/USBUART_1.c **** *  State of the requested endpoint.
 702:.\Generated_Source\PSoC5/USBUART_1.c **** *
 703:.\Generated_Source\PSoC5/USBUART_1.c **** *******************************************************************************/
 704:.\Generated_Source\PSoC5/USBUART_1.c **** uint8 USBUART_1_GetEPState(uint8 epNumber) 
 705:.\Generated_Source\PSoC5/USBUART_1.c **** {
 875              		.loc 1 705 0
 876              		.cfi_startproc
 877              		@ args = 0, pretend = 0, frame = 8
 878              		@ frame_needed = 1, uses_anonymous_args = 0
 879              		@ link register save eliminated.
 880 0000 80B4     		push	{r7}
 881              	.LCFI25:
 882              		.cfi_def_cfa_offset 4
 883              		.cfi_offset 7, -4
 884 0002 83B0     		sub	sp, sp, #12
 885              	.LCFI26:
 886              		.cfi_def_cfa_offset 16
 887 0004 00AF     		add	r7, sp, #0
ARM GAS  C:\Users\Colin\AppData\Local\Temp\ccMAPRQY.s 			page 29


 888              	.LCFI27:
 889              		.cfi_def_cfa_register 7
 890 0006 0346     		mov	r3, r0
 891 0008 FB71     		strb	r3, [r7, #7]
 706:.\Generated_Source\PSoC5/USBUART_1.c ****     return(USBUART_1_EP[epNumber].apiEpState);
 892              		.loc 1 706 0
 893 000a F979     		ldrb	r1, [r7, #7]	@ zero_extendqisi2
 894 000c 40F20002 		movw	r2, #:lower16:USBUART_1_EP
 895 0010 C0F20002 		movt	r2, #:upper16:USBUART_1_EP
 896 0014 0B46     		mov	r3, r1
 897 0016 4FEA4303 		lsl	r3, r3, #1
 898 001a 5B18     		adds	r3, r3, r1
 899 001c 4FEA8303 		lsl	r3, r3, #2
 900 0020 D318     		adds	r3, r2, r3
 901 0022 5B78     		ldrb	r3, [r3, #1]
 902 0024 DBB2     		uxtb	r3, r3
 707:.\Generated_Source\PSoC5/USBUART_1.c **** }
 903              		.loc 1 707 0
 904 0026 1846     		mov	r0, r3
 905 0028 07F10C07 		add	r7, r7, #12
 906 002c BD46     		mov	sp, r7
 907 002e 80BC     		pop	{r7}
 908 0030 7047     		bx	lr
 909              		.cfi_endproc
 910              	.LFE9:
 911              		.size	USBUART_1_GetEPState, .-USBUART_1_GetEPState
 912 0032 00BF     		.section	.text.USBUART_1_GetEPCount,"ax",%progbits
 913              		.align	2
 914              		.global	USBUART_1_GetEPCount
 915              		.thumb
 916              		.thumb_func
 917              		.type	USBUART_1_GetEPCount, %function
 918              	USBUART_1_GetEPCount:
 919              	.LFB10:
 708:.\Generated_Source\PSoC5/USBUART_1.c **** 
 709:.\Generated_Source\PSoC5/USBUART_1.c **** 
 710:.\Generated_Source\PSoC5/USBUART_1.c **** /*******************************************************************************
 711:.\Generated_Source\PSoC5/USBUART_1.c **** * Function Name: USBUART_1_GetEPCount
 712:.\Generated_Source\PSoC5/USBUART_1.c **** ********************************************************************************
 713:.\Generated_Source\PSoC5/USBUART_1.c **** *
 714:.\Generated_Source\PSoC5/USBUART_1.c **** * Summary:
 715:.\Generated_Source\PSoC5/USBUART_1.c **** *  This function supports Data Endpoints only(EP1-EP8).
 716:.\Generated_Source\PSoC5/USBUART_1.c **** *  Returns the transfer count for the requested endpoint.  The value from
 717:.\Generated_Source\PSoC5/USBUART_1.c **** *  the count registers includes 2 counts for the two byte checksum of the
 718:.\Generated_Source\PSoC5/USBUART_1.c **** *  packet.  This function subtracts the two counts.
 719:.\Generated_Source\PSoC5/USBUART_1.c **** *
 720:.\Generated_Source\PSoC5/USBUART_1.c **** * Parameters:
 721:.\Generated_Source\PSoC5/USBUART_1.c **** *  epNumber: Data Endpoint Number.
 722:.\Generated_Source\PSoC5/USBUART_1.c **** *            Valid values are between 1 and 8.
 723:.\Generated_Source\PSoC5/USBUART_1.c **** *
 724:.\Generated_Source\PSoC5/USBUART_1.c **** * Return:
 725:.\Generated_Source\PSoC5/USBUART_1.c **** *  Returns the current byte count from the specified endpoint or 0 for an
 726:.\Generated_Source\PSoC5/USBUART_1.c **** *  invalid endpoint.
 727:.\Generated_Source\PSoC5/USBUART_1.c **** *
 728:.\Generated_Source\PSoC5/USBUART_1.c **** *******************************************************************************/
 729:.\Generated_Source\PSoC5/USBUART_1.c **** uint16 USBUART_1_GetEPCount(uint8 epNumber) 
 730:.\Generated_Source\PSoC5/USBUART_1.c **** {
ARM GAS  C:\Users\Colin\AppData\Local\Temp\ccMAPRQY.s 			page 30


 920              		.loc 1 730 0
 921              		.cfi_startproc
 922              		@ args = 0, pretend = 0, frame = 16
 923              		@ frame_needed = 1, uses_anonymous_args = 0
 924              		@ link register save eliminated.
 925 0000 80B4     		push	{r7}
 926              	.LCFI28:
 927              		.cfi_def_cfa_offset 4
 928              		.cfi_offset 7, -4
 929 0002 85B0     		sub	sp, sp, #20
 930              	.LCFI29:
 931              		.cfi_def_cfa_offset 24
 932 0004 00AF     		add	r7, sp, #0
 933              	.LCFI30:
 934              		.cfi_def_cfa_register 7
 935 0006 0346     		mov	r3, r0
 936 0008 FB71     		strb	r3, [r7, #7]
 731:.\Generated_Source\PSoC5/USBUART_1.c ****     uint8 ri;
 732:.\Generated_Source\PSoC5/USBUART_1.c ****     uint16 result = 0u;
 937              		.loc 1 732 0
 938 000a 4FF00003 		mov	r3, #0
 939 000e FB81     		strh	r3, [r7, #14]	@ movhi
 733:.\Generated_Source\PSoC5/USBUART_1.c **** 
 734:.\Generated_Source\PSoC5/USBUART_1.c ****     if((epNumber > USBUART_1_EP0) && (epNumber < USBUART_1_MAX_EP))
 940              		.loc 1 734 0
 941 0010 FB79     		ldrb	r3, [r7, #7]	@ zero_extendqisi2
 942 0012 002B     		cmp	r3, #0
 943 0014 27D0     		beq	.L28
 944              		.loc 1 734 0 is_stmt 0 discriminator 1
 945 0016 FB79     		ldrb	r3, [r7, #7]	@ zero_extendqisi2
 946 0018 082B     		cmp	r3, #8
 947 001a 24D8     		bhi	.L28
 735:.\Generated_Source\PSoC5/USBUART_1.c ****     {
 736:.\Generated_Source\PSoC5/USBUART_1.c ****         ri = ((epNumber - USBUART_1_EP1) << USBUART_1_EPX_CNTX_ADDR_SHIFT);
 948              		.loc 1 736 0 is_stmt 1
 949 001c FB79     		ldrb	r3, [r7, #7]
 950 001e 03F1FF33 		add	r3, r3, #-1
 951 0022 DBB2     		uxtb	r3, r3
 952 0024 4FEA0313 		lsl	r3, r3, #4
 953 0028 7B73     		strb	r3, [r7, #13]
 737:.\Generated_Source\PSoC5/USBUART_1.c **** 
 738:.\Generated_Source\PSoC5/USBUART_1.c ****         result = (uint8)(CY_GET_REG8((reg8 *)(USBUART_1_SIE_EP1_CNT0_IND + ri)) &
 954              		.loc 1 738 0
 955 002a 7A7B     		ldrb	r2, [r7, #13]	@ zero_extendqisi2
 956 002c 46F20C03 		movw	r3, #24588
 957 0030 C4F20003 		movt	r3, 16384
 958 0034 D318     		adds	r3, r2, r3
 959 0036 1B78     		ldrb	r3, [r3, #0]
 960 0038 DBB2     		uxtb	r3, r3
 961 003a 03F00F03 		and	r3, r3, #15
 962 003e FB81     		strh	r3, [r7, #14]	@ movhi
 739:.\Generated_Source\PSoC5/USBUART_1.c ****                           USBUART_1_EPX_CNT0_MASK);
 740:.\Generated_Source\PSoC5/USBUART_1.c ****         result = (result << 8u) | CY_GET_REG8((reg8 *)(USBUART_1_SIE_EP1_CNT1_IND + ri));
 963              		.loc 1 740 0
 964 0040 FB89     		ldrh	r3, [r7, #14]
 965 0042 4FEA0323 		lsl	r3, r3, #8
 966 0046 9AB2     		uxth	r2, r3
ARM GAS  C:\Users\Colin\AppData\Local\Temp\ccMAPRQY.s 			page 31


 967 0048 797B     		ldrb	r1, [r7, #13]	@ zero_extendqisi2
 968 004a 46F20D03 		movw	r3, #24589
 969 004e C4F20003 		movt	r3, 16384
 970 0052 CB18     		adds	r3, r1, r3
 971 0054 1B78     		ldrb	r3, [r3, #0]
 972 0056 DBB2     		uxtb	r3, r3
 973 0058 1343     		orrs	r3, r3, r2
 974 005a 9BB2     		uxth	r3, r3
 975 005c FB81     		strh	r3, [r7, #14]	@ movhi
 741:.\Generated_Source\PSoC5/USBUART_1.c ****         result -= USBUART_1_EPX_CNTX_CRC_COUNT;
 976              		.loc 1 741 0
 977 005e FB89     		ldrh	r3, [r7, #14]	@ movhi
 978 0060 A3F10203 		sub	r3, r3, #2
 979 0064 FB81     		strh	r3, [r7, #14]	@ movhi
 980              	.L28:
 742:.\Generated_Source\PSoC5/USBUART_1.c ****     }
 743:.\Generated_Source\PSoC5/USBUART_1.c ****     return(result);
 981              		.loc 1 743 0
 982 0066 FB89     		ldrh	r3, [r7, #14]
 744:.\Generated_Source\PSoC5/USBUART_1.c **** }
 983              		.loc 1 744 0
 984 0068 1846     		mov	r0, r3
 985 006a 07F11407 		add	r7, r7, #20
 986 006e BD46     		mov	sp, r7
 987 0070 80BC     		pop	{r7}
 988 0072 7047     		bx	lr
 989              		.cfi_endproc
 990              	.LFE10:
 991              		.size	USBUART_1_GetEPCount, .-USBUART_1_GetEPCount
 992              		.section	.text.USBUART_1_LoadInEP,"ax",%progbits
 993              		.align	2
 994              		.global	USBUART_1_LoadInEP
 995              		.thumb
 996              		.thumb_func
 997              		.type	USBUART_1_LoadInEP, %function
 998              	USBUART_1_LoadInEP:
 999              	.LFB11:
 745:.\Generated_Source\PSoC5/USBUART_1.c **** 
 746:.\Generated_Source\PSoC5/USBUART_1.c **** 
 747:.\Generated_Source\PSoC5/USBUART_1.c **** #if(USBUART_1_EP_MM != USBUART_1__EP_MANUAL)
 748:.\Generated_Source\PSoC5/USBUART_1.c **** 
 749:.\Generated_Source\PSoC5/USBUART_1.c **** 
 750:.\Generated_Source\PSoC5/USBUART_1.c ****     /*******************************************************************************
 751:.\Generated_Source\PSoC5/USBUART_1.c ****     * Function Name: USBUART_1_InitEP_DMA
 752:.\Generated_Source\PSoC5/USBUART_1.c ****     ********************************************************************************
 753:.\Generated_Source\PSoC5/USBUART_1.c ****     *
 754:.\Generated_Source\PSoC5/USBUART_1.c ****     * Summary:
 755:.\Generated_Source\PSoC5/USBUART_1.c ****     *  This function allocates and initializes a DMA channel to be used by the
 756:.\Generated_Source\PSoC5/USBUART_1.c ****     *  USBUART_1_LoadInEP() or USBUART_1_ReadOutEP() APIs for data
 757:.\Generated_Source\PSoC5/USBUART_1.c ****     *  transfer.
 758:.\Generated_Source\PSoC5/USBUART_1.c ****     *
 759:.\Generated_Source\PSoC5/USBUART_1.c ****     * Parameters:
 760:.\Generated_Source\PSoC5/USBUART_1.c ****     *  epNumber: Contains the data endpoint number.
 761:.\Generated_Source\PSoC5/USBUART_1.c ****     *            Valid values are between 1 and 8.
 762:.\Generated_Source\PSoC5/USBUART_1.c ****     *  *pData: Pointer to a data array that is related to the EP transfers.
 763:.\Generated_Source\PSoC5/USBUART_1.c ****     *
 764:.\Generated_Source\PSoC5/USBUART_1.c ****     * Return:
ARM GAS  C:\Users\Colin\AppData\Local\Temp\ccMAPRQY.s 			page 32


 765:.\Generated_Source\PSoC5/USBUART_1.c ****     *  None.
 766:.\Generated_Source\PSoC5/USBUART_1.c ****     *
 767:.\Generated_Source\PSoC5/USBUART_1.c ****     * Reentrant:
 768:.\Generated_Source\PSoC5/USBUART_1.c ****     *  No.
 769:.\Generated_Source\PSoC5/USBUART_1.c ****     *
 770:.\Generated_Source\PSoC5/USBUART_1.c ****     *******************************************************************************/
 771:.\Generated_Source\PSoC5/USBUART_1.c ****     void USBUART_1_InitEP_DMA(uint8 epNumber, const uint8 *pData)
 772:.\Generated_Source\PSoC5/USBUART_1.c ****                                                                     
 773:.\Generated_Source\PSoC5/USBUART_1.c ****     {
 774:.\Generated_Source\PSoC5/USBUART_1.c ****         uint16 src;
 775:.\Generated_Source\PSoC5/USBUART_1.c ****         uint16 dst;
 776:.\Generated_Source\PSoC5/USBUART_1.c ****         #if (CY_PSOC3)                  /* PSoC 3 */
 777:.\Generated_Source\PSoC5/USBUART_1.c ****             src = HI16(CYDEV_SRAM_BASE);
 778:.\Generated_Source\PSoC5/USBUART_1.c ****             dst = HI16(CYDEV_PERIPH_BASE);
 779:.\Generated_Source\PSoC5/USBUART_1.c ****             pData = pData;
 780:.\Generated_Source\PSoC5/USBUART_1.c ****         #else                           /* PSoC 5 */
 781:.\Generated_Source\PSoC5/USBUART_1.c ****             if((USBUART_1_EP[epNumber].addr & USBUART_1_DIR_IN) != 0u )
 782:.\Generated_Source\PSoC5/USBUART_1.c ****             {   /* for the IN EP source is the SRAM memory buffer */
 783:.\Generated_Source\PSoC5/USBUART_1.c ****                 src = HI16(pData);
 784:.\Generated_Source\PSoC5/USBUART_1.c ****                 dst = HI16(CYDEV_PERIPH_BASE);
 785:.\Generated_Source\PSoC5/USBUART_1.c ****             }
 786:.\Generated_Source\PSoC5/USBUART_1.c ****             else
 787:.\Generated_Source\PSoC5/USBUART_1.c ****             {   /* for the OUT EP source is the SIE register */
 788:.\Generated_Source\PSoC5/USBUART_1.c ****                 src = HI16(CYDEV_PERIPH_BASE);
 789:.\Generated_Source\PSoC5/USBUART_1.c ****                 dst = HI16(pData);
 790:.\Generated_Source\PSoC5/USBUART_1.c ****             }
 791:.\Generated_Source\PSoC5/USBUART_1.c ****         #endif  /* End C51 */
 792:.\Generated_Source\PSoC5/USBUART_1.c ****         switch(epNumber)
 793:.\Generated_Source\PSoC5/USBUART_1.c ****         {
 794:.\Generated_Source\PSoC5/USBUART_1.c ****             case USBUART_1_EP1:
 795:.\Generated_Source\PSoC5/USBUART_1.c ****                 #if(USBUART_1_DMA1_REMOVE == 0u)
 796:.\Generated_Source\PSoC5/USBUART_1.c ****                     USBUART_1_DmaChan[epNumber] = USBUART_1_ep1_DmaInitialize(
 797:.\Generated_Source\PSoC5/USBUART_1.c ****                         USBUART_1_DMA_BYTES_PER_BURST, USBUART_1_DMA_REQUEST_PER_BURST, src, dst);
 798:.\Generated_Source\PSoC5/USBUART_1.c ****                 #endif   /* End USBUART_1_DMA1_REMOVE */
 799:.\Generated_Source\PSoC5/USBUART_1.c ****                 break;
 800:.\Generated_Source\PSoC5/USBUART_1.c ****             case USBUART_1_EP2:
 801:.\Generated_Source\PSoC5/USBUART_1.c ****                 #if(USBUART_1_DMA2_REMOVE == 0u)
 802:.\Generated_Source\PSoC5/USBUART_1.c ****                     USBUART_1_DmaChan[epNumber] = USBUART_1_ep2_DmaInitialize(
 803:.\Generated_Source\PSoC5/USBUART_1.c ****                         USBUART_1_DMA_BYTES_PER_BURST, USBUART_1_DMA_REQUEST_PER_BURST, src, dst);
 804:.\Generated_Source\PSoC5/USBUART_1.c ****                 #endif   /* End USBUART_1_DMA2_REMOVE */
 805:.\Generated_Source\PSoC5/USBUART_1.c ****                 break;
 806:.\Generated_Source\PSoC5/USBUART_1.c ****             case USBUART_1_EP3:
 807:.\Generated_Source\PSoC5/USBUART_1.c ****                 #if(USBUART_1_DMA3_REMOVE == 0u)
 808:.\Generated_Source\PSoC5/USBUART_1.c ****                     USBUART_1_DmaChan[epNumber] = USBUART_1_ep3_DmaInitialize(
 809:.\Generated_Source\PSoC5/USBUART_1.c ****                         USBUART_1_DMA_BYTES_PER_BURST, USBUART_1_DMA_REQUEST_PER_BURST, src, dst);
 810:.\Generated_Source\PSoC5/USBUART_1.c ****                 #endif   /* End USBUART_1_DMA3_REMOVE */
 811:.\Generated_Source\PSoC5/USBUART_1.c ****                 break;
 812:.\Generated_Source\PSoC5/USBUART_1.c ****             case USBUART_1_EP4:
 813:.\Generated_Source\PSoC5/USBUART_1.c ****                 #if(USBUART_1_DMA4_REMOVE == 0u)
 814:.\Generated_Source\PSoC5/USBUART_1.c ****                     USBUART_1_DmaChan[epNumber] = USBUART_1_ep4_DmaInitialize(
 815:.\Generated_Source\PSoC5/USBUART_1.c ****                         USBUART_1_DMA_BYTES_PER_BURST, USBUART_1_DMA_REQUEST_PER_BURST, src, dst);
 816:.\Generated_Source\PSoC5/USBUART_1.c ****                 #endif   /* End USBUART_1_DMA4_REMOVE */
 817:.\Generated_Source\PSoC5/USBUART_1.c ****                 break;
 818:.\Generated_Source\PSoC5/USBUART_1.c ****             case USBUART_1_EP5:
 819:.\Generated_Source\PSoC5/USBUART_1.c ****                 #if(USBUART_1_DMA5_REMOVE == 0u)
 820:.\Generated_Source\PSoC5/USBUART_1.c ****                     USBUART_1_DmaChan[epNumber] = USBUART_1_ep5_DmaInitialize(
 821:.\Generated_Source\PSoC5/USBUART_1.c ****                         USBUART_1_DMA_BYTES_PER_BURST, USBUART_1_DMA_REQUEST_PER_BURST, src, dst);
ARM GAS  C:\Users\Colin\AppData\Local\Temp\ccMAPRQY.s 			page 33


 822:.\Generated_Source\PSoC5/USBUART_1.c ****                 #endif   /* End USBUART_1_DMA5_REMOVE */
 823:.\Generated_Source\PSoC5/USBUART_1.c ****                 break;
 824:.\Generated_Source\PSoC5/USBUART_1.c ****             case USBUART_1_EP6:
 825:.\Generated_Source\PSoC5/USBUART_1.c ****                 #if(USBUART_1_DMA6_REMOVE == 0u)
 826:.\Generated_Source\PSoC5/USBUART_1.c ****                     USBUART_1_DmaChan[epNumber] = USBUART_1_ep6_DmaInitialize(
 827:.\Generated_Source\PSoC5/USBUART_1.c ****                         USBUART_1_DMA_BYTES_PER_BURST, USBUART_1_DMA_REQUEST_PER_BURST, src, dst);
 828:.\Generated_Source\PSoC5/USBUART_1.c ****                 #endif   /* End USBUART_1_DMA6_REMOVE */
 829:.\Generated_Source\PSoC5/USBUART_1.c ****                 break;
 830:.\Generated_Source\PSoC5/USBUART_1.c ****             case USBUART_1_EP7:
 831:.\Generated_Source\PSoC5/USBUART_1.c ****                 #if(USBUART_1_DMA7_REMOVE == 0u)
 832:.\Generated_Source\PSoC5/USBUART_1.c ****                     USBUART_1_DmaChan[epNumber] = USBUART_1_ep7_DmaInitialize(
 833:.\Generated_Source\PSoC5/USBUART_1.c ****                         USBUART_1_DMA_BYTES_PER_BURST, USBUART_1_DMA_REQUEST_PER_BURST, src, dst);
 834:.\Generated_Source\PSoC5/USBUART_1.c ****                 #endif   /* End USBUART_1_DMA7_REMOVE */
 835:.\Generated_Source\PSoC5/USBUART_1.c ****                 break;
 836:.\Generated_Source\PSoC5/USBUART_1.c ****             case USBUART_1_EP8:
 837:.\Generated_Source\PSoC5/USBUART_1.c ****                 #if(USBUART_1_DMA8_REMOVE == 0u)
 838:.\Generated_Source\PSoC5/USBUART_1.c ****                     USBUART_1_DmaChan[epNumber] = USBUART_1_ep8_DmaInitialize(
 839:.\Generated_Source\PSoC5/USBUART_1.c ****                         USBUART_1_DMA_BYTES_PER_BURST, USBUART_1_DMA_REQUEST_PER_BURST, src, dst);
 840:.\Generated_Source\PSoC5/USBUART_1.c ****                 #endif   /* End USBUART_1_DMA8_REMOVE */
 841:.\Generated_Source\PSoC5/USBUART_1.c ****                 break;
 842:.\Generated_Source\PSoC5/USBUART_1.c ****             default:
 843:.\Generated_Source\PSoC5/USBUART_1.c ****                 /* Do not support EP0 DMA transfers */
 844:.\Generated_Source\PSoC5/USBUART_1.c ****                 break;
 845:.\Generated_Source\PSoC5/USBUART_1.c ****         }
 846:.\Generated_Source\PSoC5/USBUART_1.c ****         if((epNumber > USBUART_1_EP0) && (epNumber < USBUART_1_MAX_EP))
 847:.\Generated_Source\PSoC5/USBUART_1.c ****         {
 848:.\Generated_Source\PSoC5/USBUART_1.c ****             USBUART_1_DmaTd[epNumber] = CyDmaTdAllocate();
 849:.\Generated_Source\PSoC5/USBUART_1.c ****         }
 850:.\Generated_Source\PSoC5/USBUART_1.c ****     }
 851:.\Generated_Source\PSoC5/USBUART_1.c **** 
 852:.\Generated_Source\PSoC5/USBUART_1.c **** 
 853:.\Generated_Source\PSoC5/USBUART_1.c ****     /*******************************************************************************
 854:.\Generated_Source\PSoC5/USBUART_1.c ****     * Function Name: USBUART_1_Stop_DMA
 855:.\Generated_Source\PSoC5/USBUART_1.c ****     ********************************************************************************
 856:.\Generated_Source\PSoC5/USBUART_1.c ****     *
 857:.\Generated_Source\PSoC5/USBUART_1.c ****     * Summary: Stops and free DMA
 858:.\Generated_Source\PSoC5/USBUART_1.c ****     *
 859:.\Generated_Source\PSoC5/USBUART_1.c ****     * Parameters:
 860:.\Generated_Source\PSoC5/USBUART_1.c ****     *  epNumber: Contains the data endpoint number or
 861:.\Generated_Source\PSoC5/USBUART_1.c ****     *           USBUART_1_MAX_EP to stop all DMAs
 862:.\Generated_Source\PSoC5/USBUART_1.c ****     *
 863:.\Generated_Source\PSoC5/USBUART_1.c ****     * Return:
 864:.\Generated_Source\PSoC5/USBUART_1.c ****     *  None.
 865:.\Generated_Source\PSoC5/USBUART_1.c ****     *
 866:.\Generated_Source\PSoC5/USBUART_1.c ****     * Reentrant:
 867:.\Generated_Source\PSoC5/USBUART_1.c ****     *  No.
 868:.\Generated_Source\PSoC5/USBUART_1.c ****     *
 869:.\Generated_Source\PSoC5/USBUART_1.c ****     *******************************************************************************/
 870:.\Generated_Source\PSoC5/USBUART_1.c ****     void USBUART_1_Stop_DMA(uint8 epNumber) 
 871:.\Generated_Source\PSoC5/USBUART_1.c ****     {
 872:.\Generated_Source\PSoC5/USBUART_1.c ****         uint8 i;
 873:.\Generated_Source\PSoC5/USBUART_1.c ****         i = (epNumber < USBUART_1_MAX_EP) ? epNumber : USBUART_1_EP1;
 874:.\Generated_Source\PSoC5/USBUART_1.c ****         do
 875:.\Generated_Source\PSoC5/USBUART_1.c ****         {
 876:.\Generated_Source\PSoC5/USBUART_1.c ****             if(USBUART_1_DmaTd[i] != DMA_INVALID_TD)
 877:.\Generated_Source\PSoC5/USBUART_1.c ****             {
 878:.\Generated_Source\PSoC5/USBUART_1.c ****                 (void) CyDmaChDisable(USBUART_1_DmaChan[i]);
ARM GAS  C:\Users\Colin\AppData\Local\Temp\ccMAPRQY.s 			page 34


 879:.\Generated_Source\PSoC5/USBUART_1.c ****                 CyDmaTdFree(USBUART_1_DmaTd[i]);
 880:.\Generated_Source\PSoC5/USBUART_1.c ****                 USBUART_1_DmaTd[i] = DMA_INVALID_TD;
 881:.\Generated_Source\PSoC5/USBUART_1.c ****             }
 882:.\Generated_Source\PSoC5/USBUART_1.c ****             i++;
 883:.\Generated_Source\PSoC5/USBUART_1.c ****         }while((i < USBUART_1_MAX_EP) && (epNumber == USBUART_1_MAX_EP));
 884:.\Generated_Source\PSoC5/USBUART_1.c ****     }
 885:.\Generated_Source\PSoC5/USBUART_1.c **** 
 886:.\Generated_Source\PSoC5/USBUART_1.c **** #endif /* End USBUART_1_EP_MM != USBUART_1__EP_MANUAL */
 887:.\Generated_Source\PSoC5/USBUART_1.c **** 
 888:.\Generated_Source\PSoC5/USBUART_1.c **** 
 889:.\Generated_Source\PSoC5/USBUART_1.c **** /*******************************************************************************
 890:.\Generated_Source\PSoC5/USBUART_1.c **** * Function Name: USBUART_1_LoadInEP
 891:.\Generated_Source\PSoC5/USBUART_1.c **** ********************************************************************************
 892:.\Generated_Source\PSoC5/USBUART_1.c **** *
 893:.\Generated_Source\PSoC5/USBUART_1.c **** * Summary:
 894:.\Generated_Source\PSoC5/USBUART_1.c **** *  Loads and enables the specified USB data endpoint for an IN interrupt or bulk
 895:.\Generated_Source\PSoC5/USBUART_1.c **** *  transfer.
 896:.\Generated_Source\PSoC5/USBUART_1.c **** *
 897:.\Generated_Source\PSoC5/USBUART_1.c **** * Parameters:
 898:.\Generated_Source\PSoC5/USBUART_1.c **** *  epNumber: Contains the data endpoint number.
 899:.\Generated_Source\PSoC5/USBUART_1.c **** *            Valid values are between 1 and 8.
 900:.\Generated_Source\PSoC5/USBUART_1.c **** *  *pData: A pointer to a data array from which the data for the endpoint space
 901:.\Generated_Source\PSoC5/USBUART_1.c **** *          is loaded.
 902:.\Generated_Source\PSoC5/USBUART_1.c **** *  length: The number of bytes to transfer from the array and then send as a
 903:.\Generated_Source\PSoC5/USBUART_1.c **** *          result of an IN request. Valid values are between 0 and 512.
 904:.\Generated_Source\PSoC5/USBUART_1.c **** *
 905:.\Generated_Source\PSoC5/USBUART_1.c **** * Return:
 906:.\Generated_Source\PSoC5/USBUART_1.c **** *  None.
 907:.\Generated_Source\PSoC5/USBUART_1.c **** *
 908:.\Generated_Source\PSoC5/USBUART_1.c **** * Reentrant:
 909:.\Generated_Source\PSoC5/USBUART_1.c **** *  No.
 910:.\Generated_Source\PSoC5/USBUART_1.c **** *
 911:.\Generated_Source\PSoC5/USBUART_1.c **** *******************************************************************************/
 912:.\Generated_Source\PSoC5/USBUART_1.c **** void USBUART_1_LoadInEP(uint8 epNumber, const uint8 pData[], uint16 length)
 913:.\Generated_Source\PSoC5/USBUART_1.c ****                                                                         
 914:.\Generated_Source\PSoC5/USBUART_1.c **** {
 1000              		.loc 1 914 0
 1001              		.cfi_startproc
 1002              		@ args = 0, pretend = 0, frame = 16
 1003              		@ frame_needed = 1, uses_anonymous_args = 0
 1004              		@ link register save eliminated.
 1005 0000 90B4     		push	{r4, r7}
 1006              	.LCFI31:
 1007              		.cfi_def_cfa_offset 8
 1008              		.cfi_offset 4, -8
 1009              		.cfi_offset 7, -4
 1010 0002 84B0     		sub	sp, sp, #16
 1011              	.LCFI32:
 1012              		.cfi_def_cfa_offset 24
 1013 0004 00AF     		add	r7, sp, #0
 1014              	.LCFI33:
 1015              		.cfi_def_cfa_register 7
 1016 0006 3960     		str	r1, [r7, #0]
 1017 0008 1346     		mov	r3, r2
 1018 000a 0246     		mov	r2, r0
 1019 000c FA71     		strb	r2, [r7, #7]
 1020 000e BB80     		strh	r3, [r7, #4]	@ movhi
ARM GAS  C:\Users\Colin\AppData\Local\Temp\ccMAPRQY.s 			page 35


 915:.\Generated_Source\PSoC5/USBUART_1.c ****     uint8 ri;
 916:.\Generated_Source\PSoC5/USBUART_1.c ****     reg8 *p;
 917:.\Generated_Source\PSoC5/USBUART_1.c ****     #if(USBUART_1_EP_MM == USBUART_1__EP_MANUAL)
 918:.\Generated_Source\PSoC5/USBUART_1.c ****         uint16 i;
 919:.\Generated_Source\PSoC5/USBUART_1.c ****     #endif /* End USBUART_1_EP_MM == USBUART_1__EP_MANUAL */
 920:.\Generated_Source\PSoC5/USBUART_1.c **** 
 921:.\Generated_Source\PSoC5/USBUART_1.c ****     if((epNumber > USBUART_1_EP0) && (epNumber < USBUART_1_MAX_EP))
 1021              		.loc 1 921 0
 1022 0010 FB79     		ldrb	r3, [r7, #7]	@ zero_extendqisi2
 1023 0012 002B     		cmp	r3, #0
 1024 0014 00F09680 		beq	.L30
 1025              		.loc 1 921 0 is_stmt 0 discriminator 1
 1026 0018 FB79     		ldrb	r3, [r7, #7]	@ zero_extendqisi2
 1027 001a 082B     		cmp	r3, #8
 1028 001c 00F29280 		bhi	.L30
 922:.\Generated_Source\PSoC5/USBUART_1.c ****     {
 923:.\Generated_Source\PSoC5/USBUART_1.c ****         ri = ((epNumber - USBUART_1_EP1) << USBUART_1_EPX_CNTX_ADDR_SHIFT);
 1029              		.loc 1 923 0 is_stmt 1
 1030 0020 FB79     		ldrb	r3, [r7, #7]
 1031 0022 03F1FF33 		add	r3, r3, #-1
 1032 0026 DBB2     		uxtb	r3, r3
 1033 0028 4FEA0313 		lsl	r3, r3, #4
 1034 002c 7B73     		strb	r3, [r7, #13]
 924:.\Generated_Source\PSoC5/USBUART_1.c ****         p = (reg8 *)(USBUART_1_ARB_RW1_DR_IND + ri);
 1035              		.loc 1 924 0
 1036 002e 7A7B     		ldrb	r2, [r7, #13]	@ zero_extendqisi2
 1037 0030 46F28803 		movw	r3, #24712
 1038 0034 C4F20003 		movt	r3, 16384
 1039 0038 D318     		adds	r3, r2, r3
 1040 003a BB60     		str	r3, [r7, #8]
 925:.\Generated_Source\PSoC5/USBUART_1.c **** 
 926:.\Generated_Source\PSoC5/USBUART_1.c ****         #if(USBUART_1_EP_MM != USBUART_1__EP_DMAAUTO)
 927:.\Generated_Source\PSoC5/USBUART_1.c ****             /* Limits length to available buffer space, auto MM could send packets up to 1024 bytes
 928:.\Generated_Source\PSoC5/USBUART_1.c ****             if(length > (USBUART_1_EPX_DATA_BUF_MAX - USBUART_1_EP[epNumber].buffOffset))
 1041              		.loc 1 928 0
 1042 003c B888     		ldrh	r0, [r7, #4]
 1043 003e F979     		ldrb	r1, [r7, #7]	@ zero_extendqisi2
 1044 0040 40F20002 		movw	r2, #:lower16:USBUART_1_EP
 1045 0044 C0F20002 		movt	r2, #:upper16:USBUART_1_EP
 1046 0048 0B46     		mov	r3, r1
 1047 004a 4FEA4303 		lsl	r3, r3, #1
 1048 004e 5B18     		adds	r3, r3, r1
 1049 0050 4FEA8303 		lsl	r3, r3, #2
 1050 0054 D318     		adds	r3, r2, r3
 1051 0056 DB88     		ldrh	r3, [r3, #6]	@ movhi
 1052 0058 9BB2     		uxth	r3, r3
 1053 005a C3F50073 		rsb	r3, r3, #512
 1054 005e 9842     		cmp	r0, r3
 1055 0060 10D9     		bls	.L32
 929:.\Generated_Source\PSoC5/USBUART_1.c ****             {
 930:.\Generated_Source\PSoC5/USBUART_1.c ****                 length = USBUART_1_EPX_DATA_BUF_MAX - USBUART_1_EP[epNumber].buffOffset;
 1056              		.loc 1 930 0
 1057 0062 F979     		ldrb	r1, [r7, #7]	@ zero_extendqisi2
 1058 0064 40F20002 		movw	r2, #:lower16:USBUART_1_EP
 1059 0068 C0F20002 		movt	r2, #:upper16:USBUART_1_EP
 1060 006c 0B46     		mov	r3, r1
 1061 006e 4FEA4303 		lsl	r3, r3, #1
ARM GAS  C:\Users\Colin\AppData\Local\Temp\ccMAPRQY.s 			page 36


 1062 0072 5B18     		adds	r3, r3, r1
 1063 0074 4FEA8303 		lsl	r3, r3, #2
 1064 0078 D318     		adds	r3, r2, r3
 1065 007a DB88     		ldrh	r3, [r3, #6]	@ movhi
 1066 007c 9BB2     		uxth	r3, r3
 1067 007e C3F50073 		rsb	r3, r3, #512
 1068 0082 BB80     		strh	r3, [r7, #4]	@ movhi
 1069              	.L32:
 931:.\Generated_Source\PSoC5/USBUART_1.c ****             }
 932:.\Generated_Source\PSoC5/USBUART_1.c ****         #endif /* End USBUART_1_EP_MM != USBUART_1__EP_DMAAUTO */
 933:.\Generated_Source\PSoC5/USBUART_1.c **** 
 934:.\Generated_Source\PSoC5/USBUART_1.c ****         /* Set the count and data toggle */
 935:.\Generated_Source\PSoC5/USBUART_1.c ****         CY_SET_REG8((reg8 *)(USBUART_1_SIE_EP1_CNT0_IND + ri),
 1070              		.loc 1 935 0
 1071 0084 7A7B     		ldrb	r2, [r7, #13]	@ zero_extendqisi2
 1072 0086 46F20C03 		movw	r3, #24588
 1073 008a C4F20003 		movt	r3, 16384
 1074 008e D318     		adds	r3, r2, r3
 1075 0090 1846     		mov	r0, r3
 1076 0092 BB88     		ldrh	r3, [r7, #4]
 1077 0094 4FEA1323 		lsr	r3, r3, #8
 1078 0098 9BB2     		uxth	r3, r3
 1079 009a DCB2     		uxtb	r4, r3
 1080 009c F979     		ldrb	r1, [r7, #7]	@ zero_extendqisi2
 1081 009e 40F20002 		movw	r2, #:lower16:USBUART_1_EP
 1082 00a2 C0F20002 		movt	r2, #:upper16:USBUART_1_EP
 1083 00a6 0B46     		mov	r3, r1
 1084 00a8 4FEA4303 		lsl	r3, r3, #1
 1085 00ac 5B18     		adds	r3, r3, r1
 1086 00ae 4FEA8303 		lsl	r3, r3, #2
 1087 00b2 D318     		adds	r3, r2, r3
 1088 00b4 DB78     		ldrb	r3, [r3, #3]
 1089 00b6 DBB2     		uxtb	r3, r3
 1090 00b8 2343     		orrs	r3, r3, r4
 1091 00ba DBB2     		uxtb	r3, r3
 1092 00bc 0370     		strb	r3, [r0, #0]
 936:.\Generated_Source\PSoC5/USBUART_1.c ****                             (length >> 8u) | (USBUART_1_EP[epNumber].epToggle));
 937:.\Generated_Source\PSoC5/USBUART_1.c ****         CY_SET_REG8((reg8 *)(USBUART_1_SIE_EP1_CNT1_IND + ri),  length & 0xFFu);
 1093              		.loc 1 937 0
 1094 00be 7A7B     		ldrb	r2, [r7, #13]	@ zero_extendqisi2
 1095 00c0 46F20D03 		movw	r3, #24589
 1096 00c4 C4F20003 		movt	r3, 16384
 1097 00c8 D318     		adds	r3, r2, r3
 1098 00ca BA88     		ldrh	r2, [r7, #4]	@ movhi
 1099 00cc D2B2     		uxtb	r2, r2
 1100 00ce 1A70     		strb	r2, [r3, #0]
 938:.\Generated_Source\PSoC5/USBUART_1.c **** 
 939:.\Generated_Source\PSoC5/USBUART_1.c ****         #if(USBUART_1_EP_MM == USBUART_1__EP_MANUAL)
 940:.\Generated_Source\PSoC5/USBUART_1.c ****             if(pData != NULL)
 1101              		.loc 1 940 0
 1102 00d0 3B68     		ldr	r3, [r7, #0]
 1103 00d2 002B     		cmp	r3, #0
 1104 00d4 11D0     		beq	.L33
 941:.\Generated_Source\PSoC5/USBUART_1.c ****             {
 942:.\Generated_Source\PSoC5/USBUART_1.c ****                 /* Copy the data using the arbiter data register */
 943:.\Generated_Source\PSoC5/USBUART_1.c ****                 for (i = 0u; i < length; i++)
 1105              		.loc 1 943 0
ARM GAS  C:\Users\Colin\AppData\Local\Temp\ccMAPRQY.s 			page 37


 1106 00d6 4FF00003 		mov	r3, #0
 1107 00da FB81     		strh	r3, [r7, #14]	@ movhi
 1108 00dc 09E0     		b	.L34
 1109              	.L35:
 944:.\Generated_Source\PSoC5/USBUART_1.c ****                 {
 945:.\Generated_Source\PSoC5/USBUART_1.c ****                     CY_SET_REG8(p, pData[i]);
 1110              		.loc 1 945 0 discriminator 2
 1111 00de FB89     		ldrh	r3, [r7, #14]
 1112 00e0 3A68     		ldr	r2, [r7, #0]
 1113 00e2 D318     		adds	r3, r2, r3
 1114 00e4 1A78     		ldrb	r2, [r3, #0]	@ zero_extendqisi2
 1115 00e6 BB68     		ldr	r3, [r7, #8]
 1116 00e8 1A70     		strb	r2, [r3, #0]
 943:.\Generated_Source\PSoC5/USBUART_1.c ****                 for (i = 0u; i < length; i++)
 1117              		.loc 1 943 0 discriminator 2
 1118 00ea FB89     		ldrh	r3, [r7, #14]	@ movhi
 1119 00ec 03F10103 		add	r3, r3, #1
 1120 00f0 FB81     		strh	r3, [r7, #14]	@ movhi
 1121              	.L34:
 943:.\Generated_Source\PSoC5/USBUART_1.c ****                 for (i = 0u; i < length; i++)
 1122              		.loc 1 943 0 is_stmt 0 discriminator 1
 1123 00f2 FA89     		ldrh	r2, [r7, #14]
 1124 00f4 BB88     		ldrh	r3, [r7, #4]
 1125 00f6 9A42     		cmp	r2, r3
 1126 00f8 F1D3     		bcc	.L35
 1127              	.L33:
 946:.\Generated_Source\PSoC5/USBUART_1.c ****                 }
 947:.\Generated_Source\PSoC5/USBUART_1.c ****             }
 948:.\Generated_Source\PSoC5/USBUART_1.c ****             USBUART_1_EP[epNumber].apiEpState = USBUART_1_NO_EVENT_PENDING;
 1128              		.loc 1 948 0 is_stmt 1
 1129 00fa F979     		ldrb	r1, [r7, #7]	@ zero_extendqisi2
 1130 00fc 40F20002 		movw	r2, #:lower16:USBUART_1_EP
 1131 0100 C0F20002 		movt	r2, #:upper16:USBUART_1_EP
 1132 0104 0B46     		mov	r3, r1
 1133 0106 4FEA4303 		lsl	r3, r3, #1
 1134 010a 5B18     		adds	r3, r3, r1
 1135 010c 4FEA8303 		lsl	r3, r3, #2
 1136 0110 D318     		adds	r3, r2, r3
 1137 0112 4FF00002 		mov	r2, #0
 1138 0116 5A70     		strb	r2, [r3, #1]
 949:.\Generated_Source\PSoC5/USBUART_1.c ****             /* Write the Mode register */
 950:.\Generated_Source\PSoC5/USBUART_1.c ****             CY_SET_REG8((reg8 *)(USBUART_1_SIE_EP1_CR0_IND + ri), USBUART_1_EP[epNumber].epMode);
 1139              		.loc 1 950 0
 1140 0118 7A7B     		ldrb	r2, [r7, #13]	@ zero_extendqisi2
 1141 011a 46F20E03 		movw	r3, #24590
 1142 011e C4F20003 		movt	r3, 16384
 1143 0122 D318     		adds	r3, r2, r3
 1144 0124 1846     		mov	r0, r3
 1145 0126 F979     		ldrb	r1, [r7, #7]	@ zero_extendqisi2
 1146 0128 40F20002 		movw	r2, #:lower16:USBUART_1_EP
 1147 012c C0F20002 		movt	r2, #:upper16:USBUART_1_EP
 1148 0130 0B46     		mov	r3, r1
 1149 0132 4FEA4303 		lsl	r3, r3, #1
 1150 0136 5B18     		adds	r3, r3, r1
 1151 0138 4FEA8303 		lsl	r3, r3, #2
 1152 013c D318     		adds	r3, r2, r3
 1153 013e 5B79     		ldrb	r3, [r3, #5]
ARM GAS  C:\Users\Colin\AppData\Local\Temp\ccMAPRQY.s 			page 38


 1154 0140 DBB2     		uxtb	r3, r3
 1155 0142 0370     		strb	r3, [r0, #0]
 1156              	.L30:
 951:.\Generated_Source\PSoC5/USBUART_1.c ****         #else
 952:.\Generated_Source\PSoC5/USBUART_1.c ****             /* Init DMA if it was not initialized */
 953:.\Generated_Source\PSoC5/USBUART_1.c ****             if(USBUART_1_DmaTd[epNumber] == DMA_INVALID_TD)
 954:.\Generated_Source\PSoC5/USBUART_1.c ****             {
 955:.\Generated_Source\PSoC5/USBUART_1.c ****                 USBUART_1_InitEP_DMA(epNumber, pData);
 956:.\Generated_Source\PSoC5/USBUART_1.c ****             }
 957:.\Generated_Source\PSoC5/USBUART_1.c ****         #endif /* End USBUART_1_EP_MM == USBUART_1__EP_MANUAL */
 958:.\Generated_Source\PSoC5/USBUART_1.c **** 
 959:.\Generated_Source\PSoC5/USBUART_1.c ****         #if(USBUART_1_EP_MM == USBUART_1__EP_DMAMANUAL)
 960:.\Generated_Source\PSoC5/USBUART_1.c ****             USBUART_1_EP[epNumber].apiEpState = USBUART_1_NO_EVENT_PENDING;
 961:.\Generated_Source\PSoC5/USBUART_1.c ****             if((pData != NULL) && (length > 0u))
 962:.\Generated_Source\PSoC5/USBUART_1.c ****             {
 963:.\Generated_Source\PSoC5/USBUART_1.c ****                 /* Enable DMA in mode2 for transferring data */
 964:.\Generated_Source\PSoC5/USBUART_1.c ****                 (void) CyDmaChDisable(USBUART_1_DmaChan[epNumber]);
 965:.\Generated_Source\PSoC5/USBUART_1.c ****                 (void) CyDmaTdSetConfiguration(USBUART_1_DmaTd[epNumber], length, CY_DMA_DISABLE_TD
 966:.\Generated_Source\PSoC5/USBUART_1.c ****                                                                                  TD_TERMIN_EN | TD_
 967:.\Generated_Source\PSoC5/USBUART_1.c ****                 (void) CyDmaTdSetAddress(USBUART_1_DmaTd[epNumber],  LO16((uint32)pData), LO16((uin
 968:.\Generated_Source\PSoC5/USBUART_1.c ****                 /* Enable the DMA */
 969:.\Generated_Source\PSoC5/USBUART_1.c ****                 (void) CyDmaChSetInitialTd(USBUART_1_DmaChan[epNumber], USBUART_1_DmaTd[epNumber]);
 970:.\Generated_Source\PSoC5/USBUART_1.c ****                 (void) CyDmaChEnable(USBUART_1_DmaChan[epNumber], 1u);
 971:.\Generated_Source\PSoC5/USBUART_1.c ****                 /* Generate DMA request */
 972:.\Generated_Source\PSoC5/USBUART_1.c ****                 * (reg8 *)(USBUART_1_ARB_EP1_CFG_IND + ri) |= USBUART_1_ARB_EPX_CFG_DMA_REQ;
 973:.\Generated_Source\PSoC5/USBUART_1.c ****                 * (reg8 *)(USBUART_1_ARB_EP1_CFG_IND + ri) &= ((uint8)(~USBUART_1_ARB_EPX_CFG_DMA_R
 974:.\Generated_Source\PSoC5/USBUART_1.c ****                 /* Mode register will be written in arb ISR after DMA transfer complete */
 975:.\Generated_Source\PSoC5/USBUART_1.c ****             }
 976:.\Generated_Source\PSoC5/USBUART_1.c ****             else
 977:.\Generated_Source\PSoC5/USBUART_1.c ****             {
 978:.\Generated_Source\PSoC5/USBUART_1.c ****                 /* When zero-length packet - write the Mode register directly */
 979:.\Generated_Source\PSoC5/USBUART_1.c ****                 CY_SET_REG8((reg8 *)(USBUART_1_SIE_EP1_CR0_IND + ri), USBUART_1_EP[epNumber].epMode
 980:.\Generated_Source\PSoC5/USBUART_1.c ****             }
 981:.\Generated_Source\PSoC5/USBUART_1.c ****         #endif /* End USBUART_1_EP_MM == USBUART_1__EP_DMAMANUAL */
 982:.\Generated_Source\PSoC5/USBUART_1.c **** 
 983:.\Generated_Source\PSoC5/USBUART_1.c ****         #if(USBUART_1_EP_MM == USBUART_1__EP_DMAAUTO)
 984:.\Generated_Source\PSoC5/USBUART_1.c ****             if(pData != NULL)
 985:.\Generated_Source\PSoC5/USBUART_1.c ****             {
 986:.\Generated_Source\PSoC5/USBUART_1.c ****                 /* Enable DMA in mode3 for transferring data */
 987:.\Generated_Source\PSoC5/USBUART_1.c ****                 (void) CyDmaChDisable(USBUART_1_DmaChan[epNumber]);
 988:.\Generated_Source\PSoC5/USBUART_1.c ****                 (void) CyDmaTdSetConfiguration(USBUART_1_DmaTd[epNumber], length,
 989:.\Generated_Source\PSoC5/USBUART_1.c ****                                                USBUART_1_DmaTd[epNumber], TD_TERMIN_EN | TD_INC_SRC
 990:.\Generated_Source\PSoC5/USBUART_1.c ****                 (void) CyDmaTdSetAddress(USBUART_1_DmaTd[epNumber],  LO16((uint32)pData), LO16((uin
 991:.\Generated_Source\PSoC5/USBUART_1.c ****                 /* Clear Any potential pending DMA requests before starting the DMA channel to tran
 992:.\Generated_Source\PSoC5/USBUART_1.c ****                 (void) CyDmaClearPendingDrq(USBUART_1_DmaChan[epNumber]);
 993:.\Generated_Source\PSoC5/USBUART_1.c ****                 /* Enable the DMA */
 994:.\Generated_Source\PSoC5/USBUART_1.c ****                 (void) CyDmaChSetInitialTd(USBUART_1_DmaChan[epNumber], USBUART_1_DmaTd[epNumber]);
 995:.\Generated_Source\PSoC5/USBUART_1.c ****                 (void) CyDmaChEnable(USBUART_1_DmaChan[epNumber], 1u);
 996:.\Generated_Source\PSoC5/USBUART_1.c ****             }
 997:.\Generated_Source\PSoC5/USBUART_1.c ****             else
 998:.\Generated_Source\PSoC5/USBUART_1.c ****             {
 999:.\Generated_Source\PSoC5/USBUART_1.c ****                 USBUART_1_EP[epNumber].apiEpState = USBUART_1_NO_EVENT_PENDING;
1000:.\Generated_Source\PSoC5/USBUART_1.c ****                 if(length > 0u)
1001:.\Generated_Source\PSoC5/USBUART_1.c ****                 {
1002:.\Generated_Source\PSoC5/USBUART_1.c ****                     /* Set Data ready status, This will generate DMA request */
1003:.\Generated_Source\PSoC5/USBUART_1.c ****                     * (reg8 *)(USBUART_1_ARB_EP1_CFG_IND + ri) |= USBUART_1_ARB_EPX_CFG_IN_DATA_RDY
1004:.\Generated_Source\PSoC5/USBUART_1.c ****                     /* Mode register will be written in arb ISR(In Buffer Full) after first DMA tra
ARM GAS  C:\Users\Colin\AppData\Local\Temp\ccMAPRQY.s 			page 39


1005:.\Generated_Source\PSoC5/USBUART_1.c ****                 }
1006:.\Generated_Source\PSoC5/USBUART_1.c ****                 else
1007:.\Generated_Source\PSoC5/USBUART_1.c ****                 {
1008:.\Generated_Source\PSoC5/USBUART_1.c ****                     /* When zero-length packet - write the Mode register directly */
1009:.\Generated_Source\PSoC5/USBUART_1.c ****                     CY_SET_REG8((reg8 *)(USBUART_1_SIE_EP1_CR0_IND + ri), USBUART_1_EP[epNumber].ep
1010:.\Generated_Source\PSoC5/USBUART_1.c ****                 }
1011:.\Generated_Source\PSoC5/USBUART_1.c ****             }
1012:.\Generated_Source\PSoC5/USBUART_1.c ****         #endif /* End USBUART_1_EP_MM == USBUART_1__EP_DMAAUTO */
1013:.\Generated_Source\PSoC5/USBUART_1.c **** 
1014:.\Generated_Source\PSoC5/USBUART_1.c ****     }
1015:.\Generated_Source\PSoC5/USBUART_1.c **** }
 1157              		.loc 1 1015 0
 1158 0144 07F11007 		add	r7, r7, #16
 1159 0148 BD46     		mov	sp, r7
 1160 014a 90BC     		pop	{r4, r7}
 1161 014c 7047     		bx	lr
 1162              		.cfi_endproc
 1163              	.LFE11:
 1164              		.size	USBUART_1_LoadInEP, .-USBUART_1_LoadInEP
 1165 014e 00BF     		.section	.text.USBUART_1_ReadOutEP,"ax",%progbits
 1166              		.align	2
 1167              		.global	USBUART_1_ReadOutEP
 1168              		.thumb
 1169              		.thumb_func
 1170              		.type	USBUART_1_ReadOutEP, %function
 1171              	USBUART_1_ReadOutEP:
 1172              	.LFB12:
1016:.\Generated_Source\PSoC5/USBUART_1.c **** 
1017:.\Generated_Source\PSoC5/USBUART_1.c **** 
1018:.\Generated_Source\PSoC5/USBUART_1.c **** /*******************************************************************************
1019:.\Generated_Source\PSoC5/USBUART_1.c **** * Function Name: USBUART_1_ReadOutEP
1020:.\Generated_Source\PSoC5/USBUART_1.c **** ********************************************************************************
1021:.\Generated_Source\PSoC5/USBUART_1.c **** *
1022:.\Generated_Source\PSoC5/USBUART_1.c **** * Summary:
1023:.\Generated_Source\PSoC5/USBUART_1.c **** *  Read data from an endpoint.  The application must call
1024:.\Generated_Source\PSoC5/USBUART_1.c **** *  USBUART_1_GetEPState to see if an event is pending.
1025:.\Generated_Source\PSoC5/USBUART_1.c **** *
1026:.\Generated_Source\PSoC5/USBUART_1.c **** * Parameters:
1027:.\Generated_Source\PSoC5/USBUART_1.c **** *  epNumber: Contains the data endpoint number.
1028:.\Generated_Source\PSoC5/USBUART_1.c **** *            Valid values are between 1 and 8.
1029:.\Generated_Source\PSoC5/USBUART_1.c **** *  pData: A pointer to a data array from which the data for the endpoint space
1030:.\Generated_Source\PSoC5/USBUART_1.c **** *         is loaded.
1031:.\Generated_Source\PSoC5/USBUART_1.c **** *  length: The number of bytes to transfer from the USB Out endpoint and loads
1032:.\Generated_Source\PSoC5/USBUART_1.c **** *          it into data array. Valid values are between 0 and 1023. The function
1033:.\Generated_Source\PSoC5/USBUART_1.c **** *          moves fewer than the requested number of bytes if the host sends
1034:.\Generated_Source\PSoC5/USBUART_1.c **** *          fewer bytes than requested.
1035:.\Generated_Source\PSoC5/USBUART_1.c **** *
1036:.\Generated_Source\PSoC5/USBUART_1.c **** * Returns:
1037:.\Generated_Source\PSoC5/USBUART_1.c **** *  Number of bytes received, 0 for an invalid endpoint.
1038:.\Generated_Source\PSoC5/USBUART_1.c **** *
1039:.\Generated_Source\PSoC5/USBUART_1.c **** * Reentrant:
1040:.\Generated_Source\PSoC5/USBUART_1.c **** *  No.
1041:.\Generated_Source\PSoC5/USBUART_1.c **** *
1042:.\Generated_Source\PSoC5/USBUART_1.c **** *******************************************************************************/
1043:.\Generated_Source\PSoC5/USBUART_1.c **** uint16 USBUART_1_ReadOutEP(uint8 epNumber, uint8 pData[], uint16 length)
1044:.\Generated_Source\PSoC5/USBUART_1.c ****                                                                         
1045:.\Generated_Source\PSoC5/USBUART_1.c **** {
ARM GAS  C:\Users\Colin\AppData\Local\Temp\ccMAPRQY.s 			page 40


 1173              		.loc 1 1045 0
 1174              		.cfi_startproc
 1175              		@ args = 0, pretend = 0, frame = 24
 1176              		@ frame_needed = 1, uses_anonymous_args = 0
 1177 0000 80B5     		push	{r7, lr}
 1178              	.LCFI34:
 1179              		.cfi_def_cfa_offset 8
 1180              		.cfi_offset 7, -8
 1181              		.cfi_offset 14, -4
 1182 0002 86B0     		sub	sp, sp, #24
 1183              	.LCFI35:
 1184              		.cfi_def_cfa_offset 32
 1185 0004 00AF     		add	r7, sp, #0
 1186              	.LCFI36:
 1187              		.cfi_def_cfa_register 7
 1188 0006 3960     		str	r1, [r7, #0]
 1189 0008 1346     		mov	r3, r2
 1190 000a 0246     		mov	r2, r0
 1191 000c FA71     		strb	r2, [r7, #7]
 1192 000e BB80     		strh	r3, [r7, #4]	@ movhi
1046:.\Generated_Source\PSoC5/USBUART_1.c ****     uint8 ri;
1047:.\Generated_Source\PSoC5/USBUART_1.c ****     reg8 *p;
1048:.\Generated_Source\PSoC5/USBUART_1.c ****     #if(USBUART_1_EP_MM == USBUART_1__EP_MANUAL)
1049:.\Generated_Source\PSoC5/USBUART_1.c ****         uint16 i;
1050:.\Generated_Source\PSoC5/USBUART_1.c ****     #endif /* End USBUART_1_EP_MM == USBUART_1__EP_MANUAL */
1051:.\Generated_Source\PSoC5/USBUART_1.c ****     #if(USBUART_1_EP_MM != USBUART_1__EP_DMAAUTO)
1052:.\Generated_Source\PSoC5/USBUART_1.c ****         uint16 xferCount;
1053:.\Generated_Source\PSoC5/USBUART_1.c ****     #endif /* End USBUART_1_EP_MM != USBUART_1__EP_DMAAUTO */
1054:.\Generated_Source\PSoC5/USBUART_1.c **** 
1055:.\Generated_Source\PSoC5/USBUART_1.c ****     if((epNumber > USBUART_1_EP0) && (epNumber < USBUART_1_MAX_EP) && (pData != NULL))
 1193              		.loc 1 1055 0
 1194 0010 FB79     		ldrb	r3, [r7, #7]	@ zero_extendqisi2
 1195 0012 002B     		cmp	r3, #0
 1196 0014 37D0     		beq	.L37
 1197              		.loc 1 1055 0 is_stmt 0 discriminator 1
 1198 0016 FB79     		ldrb	r3, [r7, #7]	@ zero_extendqisi2
 1199 0018 082B     		cmp	r3, #8
 1200 001a 34D8     		bhi	.L37
 1201 001c 3B68     		ldr	r3, [r7, #0]
 1202 001e 002B     		cmp	r3, #0
 1203 0020 31D0     		beq	.L37
1056:.\Generated_Source\PSoC5/USBUART_1.c ****     {
1057:.\Generated_Source\PSoC5/USBUART_1.c ****         ri = ((epNumber - USBUART_1_EP1) << USBUART_1_EPX_CNTX_ADDR_SHIFT);
 1204              		.loc 1 1057 0 is_stmt 1
 1205 0022 FB79     		ldrb	r3, [r7, #7]
 1206 0024 03F1FF33 		add	r3, r3, #-1
 1207 0028 DBB2     		uxtb	r3, r3
 1208 002a 4FEA0313 		lsl	r3, r3, #4
 1209 002e 7B75     		strb	r3, [r7, #21]
1058:.\Generated_Source\PSoC5/USBUART_1.c ****         p = (reg8 *)(USBUART_1_ARB_RW1_DR_IND + ri);
 1210              		.loc 1 1058 0
 1211 0030 7A7D     		ldrb	r2, [r7, #21]	@ zero_extendqisi2
 1212 0032 46F28803 		movw	r3, #24712
 1213 0036 C4F20003 		movt	r3, 16384
 1214 003a D318     		adds	r3, r2, r3
 1215 003c 3B61     		str	r3, [r7, #16]
1059:.\Generated_Source\PSoC5/USBUART_1.c **** 
ARM GAS  C:\Users\Colin\AppData\Local\Temp\ccMAPRQY.s 			page 41


1060:.\Generated_Source\PSoC5/USBUART_1.c ****         #if(USBUART_1_EP_MM != USBUART_1__EP_DMAAUTO)
1061:.\Generated_Source\PSoC5/USBUART_1.c ****             /* Determine which is smaller the requested data or the available data */
1062:.\Generated_Source\PSoC5/USBUART_1.c ****             xferCount = USBUART_1_GetEPCount(epNumber);
 1216              		.loc 1 1062 0
 1217 003e FB79     		ldrb	r3, [r7, #7]	@ zero_extendqisi2
 1218 0040 1846     		mov	r0, r3
 1219 0042 FFF7FEFF 		bl	USBUART_1_GetEPCount
 1220 0046 0346     		mov	r3, r0
 1221 0048 FB81     		strh	r3, [r7, #14]	@ movhi
1063:.\Generated_Source\PSoC5/USBUART_1.c ****             if (length > xferCount)
 1222              		.loc 1 1063 0
 1223 004a BA88     		ldrh	r2, [r7, #4]
 1224 004c FB89     		ldrh	r3, [r7, #14]
 1225 004e 9A42     		cmp	r2, r3
 1226 0050 01D9     		bls	.L38
1064:.\Generated_Source\PSoC5/USBUART_1.c ****             {
1065:.\Generated_Source\PSoC5/USBUART_1.c ****                 length = xferCount;
 1227              		.loc 1 1065 0
 1228 0052 FB89     		ldrh	r3, [r7, #14]	@ movhi
 1229 0054 BB80     		strh	r3, [r7, #4]	@ movhi
 1230              	.L38:
1066:.\Generated_Source\PSoC5/USBUART_1.c ****             }
1067:.\Generated_Source\PSoC5/USBUART_1.c ****         #endif /* End USBUART_1_EP_MM != USBUART_1__EP_DMAAUTO */
1068:.\Generated_Source\PSoC5/USBUART_1.c **** 
1069:.\Generated_Source\PSoC5/USBUART_1.c ****         #if(USBUART_1_EP_MM == USBUART_1__EP_MANUAL)
1070:.\Generated_Source\PSoC5/USBUART_1.c ****             /* Copy the data using the arbiter data register */
1071:.\Generated_Source\PSoC5/USBUART_1.c ****             for (i = 0u; i < length; i++)
 1231              		.loc 1 1071 0
 1232 0056 4FF00003 		mov	r3, #0
 1233 005a FB82     		strh	r3, [r7, #22]	@ movhi
 1234 005c 0AE0     		b	.L39
 1235              	.L40:
1072:.\Generated_Source\PSoC5/USBUART_1.c ****             {
1073:.\Generated_Source\PSoC5/USBUART_1.c ****                 pData[i] = CY_GET_REG8(p);
 1236              		.loc 1 1073 0 discriminator 2
 1237 005e FB8A     		ldrh	r3, [r7, #22]
 1238 0060 3A68     		ldr	r2, [r7, #0]
 1239 0062 D318     		adds	r3, r2, r3
 1240 0064 3A69     		ldr	r2, [r7, #16]
 1241 0066 1278     		ldrb	r2, [r2, #0]
 1242 0068 D2B2     		uxtb	r2, r2
 1243 006a 1A70     		strb	r2, [r3, #0]
1071:.\Generated_Source\PSoC5/USBUART_1.c ****             for (i = 0u; i < length; i++)
 1244              		.loc 1 1071 0 discriminator 2
 1245 006c FB8A     		ldrh	r3, [r7, #22]	@ movhi
 1246 006e 03F10103 		add	r3, r3, #1
 1247 0072 FB82     		strh	r3, [r7, #22]	@ movhi
 1248              	.L39:
1071:.\Generated_Source\PSoC5/USBUART_1.c ****             for (i = 0u; i < length; i++)
 1249              		.loc 1 1071 0 is_stmt 0 discriminator 1
 1250 0074 FA8A     		ldrh	r2, [r7, #22]
 1251 0076 BB88     		ldrh	r3, [r7, #4]
 1252 0078 9A42     		cmp	r2, r3
 1253 007a F0D3     		bcc	.L40
1074:.\Generated_Source\PSoC5/USBUART_1.c ****             }
1075:.\Generated_Source\PSoC5/USBUART_1.c **** 
1076:.\Generated_Source\PSoC5/USBUART_1.c ****             /* (re)arming of OUT endpoint */
ARM GAS  C:\Users\Colin\AppData\Local\Temp\ccMAPRQY.s 			page 42


1077:.\Generated_Source\PSoC5/USBUART_1.c ****             USBUART_1_EnableOutEP(epNumber);
 1254              		.loc 1 1077 0 is_stmt 1
 1255 007c FB79     		ldrb	r3, [r7, #7]	@ zero_extendqisi2
 1256 007e 1846     		mov	r0, r3
 1257 0080 FFF7FEFF 		bl	USBUART_1_EnableOutEP
 1258 0084 02E0     		b	.L41
 1259              	.L37:
1078:.\Generated_Source\PSoC5/USBUART_1.c ****         #else
1079:.\Generated_Source\PSoC5/USBUART_1.c ****             /*Init DMA if it was not initialized */
1080:.\Generated_Source\PSoC5/USBUART_1.c ****             if(USBUART_1_DmaTd[epNumber] == DMA_INVALID_TD)
1081:.\Generated_Source\PSoC5/USBUART_1.c ****             {
1082:.\Generated_Source\PSoC5/USBUART_1.c ****                 USBUART_1_InitEP_DMA(epNumber, pData);
1083:.\Generated_Source\PSoC5/USBUART_1.c ****             }
1084:.\Generated_Source\PSoC5/USBUART_1.c ****         #endif /* End USBUART_1_EP_MM == USBUART_1__EP_MANUAL */
1085:.\Generated_Source\PSoC5/USBUART_1.c **** 
1086:.\Generated_Source\PSoC5/USBUART_1.c ****         #if(USBUART_1_EP_MM == USBUART_1__EP_DMAMANUAL)
1087:.\Generated_Source\PSoC5/USBUART_1.c ****             /* Enable DMA in mode2 for transferring data */
1088:.\Generated_Source\PSoC5/USBUART_1.c ****             (void) CyDmaChDisable(USBUART_1_DmaChan[epNumber]);
1089:.\Generated_Source\PSoC5/USBUART_1.c ****             (void) CyDmaTdSetConfiguration(USBUART_1_DmaTd[epNumber], length, CY_DMA_DISABLE_TD,
1090:.\Generated_Source\PSoC5/USBUART_1.c ****                                                                                 TD_TERMIN_EN | TD_I
1091:.\Generated_Source\PSoC5/USBUART_1.c ****             (void) CyDmaTdSetAddress(USBUART_1_DmaTd[epNumber],  LO16((uint32)p), LO16((uint32)pDat
1092:.\Generated_Source\PSoC5/USBUART_1.c ****             /* Enable the DMA */
1093:.\Generated_Source\PSoC5/USBUART_1.c ****             (void) CyDmaChSetInitialTd(USBUART_1_DmaChan[epNumber], USBUART_1_DmaTd[epNumber]);
1094:.\Generated_Source\PSoC5/USBUART_1.c ****             (void) CyDmaChEnable(USBUART_1_DmaChan[epNumber], 1u);
1095:.\Generated_Source\PSoC5/USBUART_1.c **** 
1096:.\Generated_Source\PSoC5/USBUART_1.c ****             /* Generate DMA request */
1097:.\Generated_Source\PSoC5/USBUART_1.c ****             * (reg8 *)(USBUART_1_ARB_EP1_CFG_IND + ri) |= USBUART_1_ARB_EPX_CFG_DMA_REQ;
1098:.\Generated_Source\PSoC5/USBUART_1.c ****             * (reg8 *)(USBUART_1_ARB_EP1_CFG_IND + ri) &= ((uint8)(~USBUART_1_ARB_EPX_CFG_DMA_REQ))
1099:.\Generated_Source\PSoC5/USBUART_1.c ****             /* Out EP will be (re)armed in arb ISR after transfer complete */
1100:.\Generated_Source\PSoC5/USBUART_1.c ****         #endif /* End USBUART_1_EP_MM == USBUART_1__EP_DMAMANUAL */
1101:.\Generated_Source\PSoC5/USBUART_1.c **** 
1102:.\Generated_Source\PSoC5/USBUART_1.c ****         #if(USBUART_1_EP_MM == USBUART_1__EP_DMAAUTO)
1103:.\Generated_Source\PSoC5/USBUART_1.c ****             /* Enable DMA in mode3 for transferring data */
1104:.\Generated_Source\PSoC5/USBUART_1.c ****             (void) CyDmaChDisable(USBUART_1_DmaChan[epNumber]);
1105:.\Generated_Source\PSoC5/USBUART_1.c ****             (void) CyDmaTdSetConfiguration(USBUART_1_DmaTd[epNumber], length, USBUART_1_DmaTd[epNum
1106:.\Generated_Source\PSoC5/USBUART_1.c ****                                                                                 TD_TERMIN_EN | TD_I
1107:.\Generated_Source\PSoC5/USBUART_1.c ****             (void) CyDmaTdSetAddress(USBUART_1_DmaTd[epNumber],  LO16((uint32)p), LO16((uint32)pDat
1108:.\Generated_Source\PSoC5/USBUART_1.c **** 
1109:.\Generated_Source\PSoC5/USBUART_1.c ****             /* Clear Any potential pending DMA requests before starting the DMA channel to transfer
1110:.\Generated_Source\PSoC5/USBUART_1.c ****             (void) CyDmaClearPendingDrq(USBUART_1_DmaChan[epNumber]);
1111:.\Generated_Source\PSoC5/USBUART_1.c ****             /* Enable the DMA */
1112:.\Generated_Source\PSoC5/USBUART_1.c ****             (void) CyDmaChSetInitialTd(USBUART_1_DmaChan[epNumber], USBUART_1_DmaTd[epNumber]);
1113:.\Generated_Source\PSoC5/USBUART_1.c ****             (void) CyDmaChEnable(USBUART_1_DmaChan[epNumber], 1u);
1114:.\Generated_Source\PSoC5/USBUART_1.c ****             /* Out EP will be (re)armed in arb ISR after transfer complete */
1115:.\Generated_Source\PSoC5/USBUART_1.c ****         #endif /* End USBUART_1_EP_MM == USBUART_1__EP_DMAAUTO */
1116:.\Generated_Source\PSoC5/USBUART_1.c **** 
1117:.\Generated_Source\PSoC5/USBUART_1.c ****     }
1118:.\Generated_Source\PSoC5/USBUART_1.c ****     else
1119:.\Generated_Source\PSoC5/USBUART_1.c ****     {
1120:.\Generated_Source\PSoC5/USBUART_1.c ****         length = 0u;
 1260              		.loc 1 1120 0
 1261 0086 4FF00003 		mov	r3, #0
 1262 008a BB80     		strh	r3, [r7, #4]	@ movhi
 1263              	.L41:
1121:.\Generated_Source\PSoC5/USBUART_1.c ****     }
1122:.\Generated_Source\PSoC5/USBUART_1.c **** 
1123:.\Generated_Source\PSoC5/USBUART_1.c ****     return(length);
ARM GAS  C:\Users\Colin\AppData\Local\Temp\ccMAPRQY.s 			page 43


 1264              		.loc 1 1123 0
 1265 008c BB88     		ldrh	r3, [r7, #4]
1124:.\Generated_Source\PSoC5/USBUART_1.c **** }
 1266              		.loc 1 1124 0
 1267 008e 1846     		mov	r0, r3
 1268 0090 07F11807 		add	r7, r7, #24
 1269 0094 BD46     		mov	sp, r7
 1270 0096 80BD     		pop	{r7, pc}
 1271              		.cfi_endproc
 1272              	.LFE12:
 1273              		.size	USBUART_1_ReadOutEP, .-USBUART_1_ReadOutEP
 1274              		.section	.text.USBUART_1_EnableOutEP,"ax",%progbits
 1275              		.align	2
 1276              		.global	USBUART_1_EnableOutEP
 1277              		.thumb
 1278              		.thumb_func
 1279              		.type	USBUART_1_EnableOutEP, %function
 1280              	USBUART_1_EnableOutEP:
 1281              	.LFB13:
1125:.\Generated_Source\PSoC5/USBUART_1.c **** 
1126:.\Generated_Source\PSoC5/USBUART_1.c **** 
1127:.\Generated_Source\PSoC5/USBUART_1.c **** /*******************************************************************************
1128:.\Generated_Source\PSoC5/USBUART_1.c **** * Function Name: USBUART_1_EnableOutEP
1129:.\Generated_Source\PSoC5/USBUART_1.c **** ********************************************************************************
1130:.\Generated_Source\PSoC5/USBUART_1.c **** *
1131:.\Generated_Source\PSoC5/USBUART_1.c **** * Summary:
1132:.\Generated_Source\PSoC5/USBUART_1.c **** *  This function enables an OUT endpoint.  It should not be
1133:.\Generated_Source\PSoC5/USBUART_1.c **** *  called for an IN endpoint.
1134:.\Generated_Source\PSoC5/USBUART_1.c **** *
1135:.\Generated_Source\PSoC5/USBUART_1.c **** * Parameters:
1136:.\Generated_Source\PSoC5/USBUART_1.c **** *  epNumber: Endpoint Number
1137:.\Generated_Source\PSoC5/USBUART_1.c **** *            Valid values are between 1 and 8.
1138:.\Generated_Source\PSoC5/USBUART_1.c **** *
1139:.\Generated_Source\PSoC5/USBUART_1.c **** * Return:
1140:.\Generated_Source\PSoC5/USBUART_1.c **** *   None.
1141:.\Generated_Source\PSoC5/USBUART_1.c **** *
1142:.\Generated_Source\PSoC5/USBUART_1.c **** * Global variables:
1143:.\Generated_Source\PSoC5/USBUART_1.c **** *  USBUART_1_EP[epNumber].apiEpState - set to NO_EVENT_PENDING
1144:.\Generated_Source\PSoC5/USBUART_1.c **** *
1145:.\Generated_Source\PSoC5/USBUART_1.c **** * Reentrant:
1146:.\Generated_Source\PSoC5/USBUART_1.c **** *  No.
1147:.\Generated_Source\PSoC5/USBUART_1.c **** *
1148:.\Generated_Source\PSoC5/USBUART_1.c **** *******************************************************************************/
1149:.\Generated_Source\PSoC5/USBUART_1.c **** void USBUART_1_EnableOutEP(uint8 epNumber) 
1150:.\Generated_Source\PSoC5/USBUART_1.c **** {
 1282              		.loc 1 1150 0
 1283              		.cfi_startproc
 1284              		@ args = 0, pretend = 0, frame = 16
 1285              		@ frame_needed = 1, uses_anonymous_args = 0
 1286              		@ link register save eliminated.
 1287 0000 80B4     		push	{r7}
 1288              	.LCFI37:
 1289              		.cfi_def_cfa_offset 4
 1290              		.cfi_offset 7, -4
 1291 0002 85B0     		sub	sp, sp, #20
 1292              	.LCFI38:
 1293              		.cfi_def_cfa_offset 24
ARM GAS  C:\Users\Colin\AppData\Local\Temp\ccMAPRQY.s 			page 44


 1294 0004 00AF     		add	r7, sp, #0
 1295              	.LCFI39:
 1296              		.cfi_def_cfa_register 7
 1297 0006 0346     		mov	r3, r0
 1298 0008 FB71     		strb	r3, [r7, #7]
1151:.\Generated_Source\PSoC5/USBUART_1.c ****     uint8 ri;
1152:.\Generated_Source\PSoC5/USBUART_1.c **** 
1153:.\Generated_Source\PSoC5/USBUART_1.c ****     if((epNumber > USBUART_1_EP0) && (epNumber < USBUART_1_MAX_EP))
 1299              		.loc 1 1153 0
 1300 000a FB79     		ldrb	r3, [r7, #7]	@ zero_extendqisi2
 1301 000c 002B     		cmp	r3, #0
 1302 000e 2ED0     		beq	.L43
 1303              		.loc 1 1153 0 is_stmt 0 discriminator 1
 1304 0010 FB79     		ldrb	r3, [r7, #7]	@ zero_extendqisi2
 1305 0012 082B     		cmp	r3, #8
 1306 0014 2BD8     		bhi	.L43
1154:.\Generated_Source\PSoC5/USBUART_1.c ****     {
1155:.\Generated_Source\PSoC5/USBUART_1.c ****         ri = ((epNumber - USBUART_1_EP1) << USBUART_1_EPX_CNTX_ADDR_SHIFT);
 1307              		.loc 1 1155 0 is_stmt 1
 1308 0016 FB79     		ldrb	r3, [r7, #7]
 1309 0018 03F1FF33 		add	r3, r3, #-1
 1310 001c DBB2     		uxtb	r3, r3
 1311 001e 4FEA0313 		lsl	r3, r3, #4
 1312 0022 FB73     		strb	r3, [r7, #15]
1156:.\Generated_Source\PSoC5/USBUART_1.c ****         USBUART_1_EP[epNumber].apiEpState = USBUART_1_NO_EVENT_PENDING;
 1313              		.loc 1 1156 0
 1314 0024 F979     		ldrb	r1, [r7, #7]	@ zero_extendqisi2
 1315 0026 40F20002 		movw	r2, #:lower16:USBUART_1_EP
 1316 002a C0F20002 		movt	r2, #:upper16:USBUART_1_EP
 1317 002e 0B46     		mov	r3, r1
 1318 0030 4FEA4303 		lsl	r3, r3, #1
 1319 0034 5B18     		adds	r3, r3, r1
 1320 0036 4FEA8303 		lsl	r3, r3, #2
 1321 003a D318     		adds	r3, r2, r3
 1322 003c 4FF00002 		mov	r2, #0
 1323 0040 5A70     		strb	r2, [r3, #1]
1157:.\Generated_Source\PSoC5/USBUART_1.c ****         /* Write the Mode register */
1158:.\Generated_Source\PSoC5/USBUART_1.c ****         CY_SET_REG8((reg8 *)(USBUART_1_SIE_EP1_CR0_IND + ri), USBUART_1_EP[epNumber].epMode);
 1324              		.loc 1 1158 0
 1325 0042 FA7B     		ldrb	r2, [r7, #15]	@ zero_extendqisi2
 1326 0044 46F20E03 		movw	r3, #24590
 1327 0048 C4F20003 		movt	r3, 16384
 1328 004c D318     		adds	r3, r2, r3
 1329 004e 1846     		mov	r0, r3
 1330 0050 F979     		ldrb	r1, [r7, #7]	@ zero_extendqisi2
 1331 0052 40F20002 		movw	r2, #:lower16:USBUART_1_EP
 1332 0056 C0F20002 		movt	r2, #:upper16:USBUART_1_EP
 1333 005a 0B46     		mov	r3, r1
 1334 005c 4FEA4303 		lsl	r3, r3, #1
 1335 0060 5B18     		adds	r3, r3, r1
 1336 0062 4FEA8303 		lsl	r3, r3, #2
 1337 0066 D318     		adds	r3, r2, r3
 1338 0068 5B79     		ldrb	r3, [r3, #5]
 1339 006a DBB2     		uxtb	r3, r3
 1340 006c 0370     		strb	r3, [r0, #0]
 1341              	.L43:
1159:.\Generated_Source\PSoC5/USBUART_1.c ****     }
ARM GAS  C:\Users\Colin\AppData\Local\Temp\ccMAPRQY.s 			page 45


1160:.\Generated_Source\PSoC5/USBUART_1.c **** }
 1342              		.loc 1 1160 0
 1343 006e 07F11407 		add	r7, r7, #20
 1344 0072 BD46     		mov	sp, r7
 1345 0074 80BC     		pop	{r7}
 1346 0076 7047     		bx	lr
 1347              		.cfi_endproc
 1348              	.LFE13:
 1349              		.size	USBUART_1_EnableOutEP, .-USBUART_1_EnableOutEP
 1350              		.section	.text.USBUART_1_DisableOutEP,"ax",%progbits
 1351              		.align	2
 1352              		.global	USBUART_1_DisableOutEP
 1353              		.thumb
 1354              		.thumb_func
 1355              		.type	USBUART_1_DisableOutEP, %function
 1356              	USBUART_1_DisableOutEP:
 1357              	.LFB14:
1161:.\Generated_Source\PSoC5/USBUART_1.c **** 
1162:.\Generated_Source\PSoC5/USBUART_1.c **** 
1163:.\Generated_Source\PSoC5/USBUART_1.c **** /*******************************************************************************
1164:.\Generated_Source\PSoC5/USBUART_1.c **** * Function Name: USBUART_1_DisableOutEP
1165:.\Generated_Source\PSoC5/USBUART_1.c **** ********************************************************************************
1166:.\Generated_Source\PSoC5/USBUART_1.c **** *
1167:.\Generated_Source\PSoC5/USBUART_1.c **** * Summary:
1168:.\Generated_Source\PSoC5/USBUART_1.c **** *  This function disables an OUT endpoint.  It should not be
1169:.\Generated_Source\PSoC5/USBUART_1.c **** *  called for an IN endpoint.
1170:.\Generated_Source\PSoC5/USBUART_1.c **** *
1171:.\Generated_Source\PSoC5/USBUART_1.c **** * Parameters:
1172:.\Generated_Source\PSoC5/USBUART_1.c **** *  epNumber: Endpoint Number
1173:.\Generated_Source\PSoC5/USBUART_1.c **** *            Valid values are between 1 and 8.
1174:.\Generated_Source\PSoC5/USBUART_1.c **** *
1175:.\Generated_Source\PSoC5/USBUART_1.c **** * Return:
1176:.\Generated_Source\PSoC5/USBUART_1.c **** *  None.
1177:.\Generated_Source\PSoC5/USBUART_1.c **** *
1178:.\Generated_Source\PSoC5/USBUART_1.c **** *******************************************************************************/
1179:.\Generated_Source\PSoC5/USBUART_1.c **** void USBUART_1_DisableOutEP(uint8 epNumber) 
1180:.\Generated_Source\PSoC5/USBUART_1.c **** {
 1358              		.loc 1 1180 0
 1359              		.cfi_startproc
 1360              		@ args = 0, pretend = 0, frame = 16
 1361              		@ frame_needed = 1, uses_anonymous_args = 0
 1362              		@ link register save eliminated.
 1363 0000 80B4     		push	{r7}
 1364              	.LCFI40:
 1365              		.cfi_def_cfa_offset 4
 1366              		.cfi_offset 7, -4
 1367 0002 85B0     		sub	sp, sp, #20
 1368              	.LCFI41:
 1369              		.cfi_def_cfa_offset 24
 1370 0004 00AF     		add	r7, sp, #0
 1371              	.LCFI42:
 1372              		.cfi_def_cfa_register 7
 1373 0006 0346     		mov	r3, r0
 1374 0008 FB71     		strb	r3, [r7, #7]
1181:.\Generated_Source\PSoC5/USBUART_1.c ****     uint8 ri ;
1182:.\Generated_Source\PSoC5/USBUART_1.c **** 
1183:.\Generated_Source\PSoC5/USBUART_1.c ****     if((epNumber > USBUART_1_EP0) && (epNumber < USBUART_1_MAX_EP))
ARM GAS  C:\Users\Colin\AppData\Local\Temp\ccMAPRQY.s 			page 46


 1375              		.loc 1 1183 0
 1376 000a FB79     		ldrb	r3, [r7, #7]	@ zero_extendqisi2
 1377 000c 002B     		cmp	r3, #0
 1378 000e 12D0     		beq	.L45
 1379              		.loc 1 1183 0 is_stmt 0 discriminator 1
 1380 0010 FB79     		ldrb	r3, [r7, #7]	@ zero_extendqisi2
 1381 0012 082B     		cmp	r3, #8
 1382 0014 0FD8     		bhi	.L45
1184:.\Generated_Source\PSoC5/USBUART_1.c ****     {
1185:.\Generated_Source\PSoC5/USBUART_1.c ****         ri = ((epNumber - USBUART_1_EP1) << USBUART_1_EPX_CNTX_ADDR_SHIFT);
 1383              		.loc 1 1185 0 is_stmt 1
 1384 0016 FB79     		ldrb	r3, [r7, #7]
 1385 0018 03F1FF33 		add	r3, r3, #-1
 1386 001c DBB2     		uxtb	r3, r3
 1387 001e 4FEA0313 		lsl	r3, r3, #4
 1388 0022 FB73     		strb	r3, [r7, #15]
1186:.\Generated_Source\PSoC5/USBUART_1.c ****         /* Write the Mode register */
1187:.\Generated_Source\PSoC5/USBUART_1.c ****         CY_SET_REG8((reg8 *)(USBUART_1_SIE_EP1_CR0_IND + ri), USBUART_1_MODE_NAK_OUT);
 1389              		.loc 1 1187 0
 1390 0024 FA7B     		ldrb	r2, [r7, #15]	@ zero_extendqisi2
 1391 0026 46F20E03 		movw	r3, #24590
 1392 002a C4F20003 		movt	r3, 16384
 1393 002e D318     		adds	r3, r2, r3
 1394 0030 4FF00802 		mov	r2, #8
 1395 0034 1A70     		strb	r2, [r3, #0]
 1396              	.L45:
1188:.\Generated_Source\PSoC5/USBUART_1.c ****     }
1189:.\Generated_Source\PSoC5/USBUART_1.c **** }
 1397              		.loc 1 1189 0
 1398 0036 07F11407 		add	r7, r7, #20
 1399 003a BD46     		mov	sp, r7
 1400 003c 80BC     		pop	{r7}
 1401 003e 7047     		bx	lr
 1402              		.cfi_endproc
 1403              	.LFE14:
 1404              		.size	USBUART_1_DisableOutEP, .-USBUART_1_DisableOutEP
 1405              		.section	.text.USBUART_1_Force,"ax",%progbits
 1406              		.align	2
 1407              		.global	USBUART_1_Force
 1408              		.thumb
 1409              		.thumb_func
 1410              		.type	USBUART_1_Force, %function
 1411              	USBUART_1_Force:
 1412              	.LFB15:
1190:.\Generated_Source\PSoC5/USBUART_1.c **** 
1191:.\Generated_Source\PSoC5/USBUART_1.c **** 
1192:.\Generated_Source\PSoC5/USBUART_1.c **** /*******************************************************************************
1193:.\Generated_Source\PSoC5/USBUART_1.c **** * Function Name: USBUART_1_Force
1194:.\Generated_Source\PSoC5/USBUART_1.c **** ********************************************************************************
1195:.\Generated_Source\PSoC5/USBUART_1.c **** *
1196:.\Generated_Source\PSoC5/USBUART_1.c **** * Summary:
1197:.\Generated_Source\PSoC5/USBUART_1.c **** *  Forces the bus state
1198:.\Generated_Source\PSoC5/USBUART_1.c **** *
1199:.\Generated_Source\PSoC5/USBUART_1.c **** * Parameters:
1200:.\Generated_Source\PSoC5/USBUART_1.c **** *  bState
1201:.\Generated_Source\PSoC5/USBUART_1.c **** *    USBUART_1_FORCE_J
1202:.\Generated_Source\PSoC5/USBUART_1.c **** *    USBUART_1_FORCE_K
ARM GAS  C:\Users\Colin\AppData\Local\Temp\ccMAPRQY.s 			page 47


1203:.\Generated_Source\PSoC5/USBUART_1.c **** *    USBUART_1_FORCE_SE0
1204:.\Generated_Source\PSoC5/USBUART_1.c **** *    USBUART_1_FORCE_NONE
1205:.\Generated_Source\PSoC5/USBUART_1.c **** *
1206:.\Generated_Source\PSoC5/USBUART_1.c **** * Return:
1207:.\Generated_Source\PSoC5/USBUART_1.c **** *  None.
1208:.\Generated_Source\PSoC5/USBUART_1.c **** *
1209:.\Generated_Source\PSoC5/USBUART_1.c **** *******************************************************************************/
1210:.\Generated_Source\PSoC5/USBUART_1.c **** void USBUART_1_Force(uint8 bState) 
1211:.\Generated_Source\PSoC5/USBUART_1.c **** {
 1413              		.loc 1 1211 0
 1414              		.cfi_startproc
 1415              		@ args = 0, pretend = 0, frame = 8
 1416              		@ frame_needed = 1, uses_anonymous_args = 0
 1417              		@ link register save eliminated.
 1418 0000 80B4     		push	{r7}
 1419              	.LCFI43:
 1420              		.cfi_def_cfa_offset 4
 1421              		.cfi_offset 7, -4
 1422 0002 83B0     		sub	sp, sp, #12
 1423              	.LCFI44:
 1424              		.cfi_def_cfa_offset 16
 1425 0004 00AF     		add	r7, sp, #0
 1426              	.LCFI45:
 1427              		.cfi_def_cfa_register 7
 1428 0006 0346     		mov	r3, r0
 1429 0008 FB71     		strb	r3, [r7, #7]
1212:.\Generated_Source\PSoC5/USBUART_1.c ****     CY_SET_REG8(USBUART_1_USBIO_CR0_PTR, bState);
 1430              		.loc 1 1212 0
 1431 000a 46F21003 		movw	r3, #24592
 1432 000e C4F20003 		movt	r3, 16384
 1433 0012 FA79     		ldrb	r2, [r7, #7]
 1434 0014 1A70     		strb	r2, [r3, #0]
1213:.\Generated_Source\PSoC5/USBUART_1.c **** }
 1435              		.loc 1 1213 0
 1436 0016 07F10C07 		add	r7, r7, #12
 1437 001a BD46     		mov	sp, r7
 1438 001c 80BC     		pop	{r7}
 1439 001e 7047     		bx	lr
 1440              		.cfi_endproc
 1441              	.LFE15:
 1442              		.size	USBUART_1_Force, .-USBUART_1_Force
 1443              		.section	.text.USBUART_1_GetEPAckState,"ax",%progbits
 1444              		.align	2
 1445              		.global	USBUART_1_GetEPAckState
 1446              		.thumb
 1447              		.thumb_func
 1448              		.type	USBUART_1_GetEPAckState, %function
 1449              	USBUART_1_GetEPAckState:
 1450              	.LFB16:
1214:.\Generated_Source\PSoC5/USBUART_1.c **** 
1215:.\Generated_Source\PSoC5/USBUART_1.c **** 
1216:.\Generated_Source\PSoC5/USBUART_1.c **** /*******************************************************************************
1217:.\Generated_Source\PSoC5/USBUART_1.c **** * Function Name: USBUART_1_GetEPAckState
1218:.\Generated_Source\PSoC5/USBUART_1.c **** ********************************************************************************
1219:.\Generated_Source\PSoC5/USBUART_1.c **** *
1220:.\Generated_Source\PSoC5/USBUART_1.c **** * Summary:
1221:.\Generated_Source\PSoC5/USBUART_1.c **** *  Returns the ACK of the CR0 Register (ACKD)
ARM GAS  C:\Users\Colin\AppData\Local\Temp\ccMAPRQY.s 			page 48


1222:.\Generated_Source\PSoC5/USBUART_1.c **** *
1223:.\Generated_Source\PSoC5/USBUART_1.c **** * Parameters:
1224:.\Generated_Source\PSoC5/USBUART_1.c **** *  epNumber: Endpoint Number
1225:.\Generated_Source\PSoC5/USBUART_1.c **** *            Valid values are between 1 and 8.
1226:.\Generated_Source\PSoC5/USBUART_1.c **** *
1227:.\Generated_Source\PSoC5/USBUART_1.c **** * Returns
1228:.\Generated_Source\PSoC5/USBUART_1.c **** *  0 if nothing has been ACKD, non-=zero something has been ACKD
1229:.\Generated_Source\PSoC5/USBUART_1.c **** *
1230:.\Generated_Source\PSoC5/USBUART_1.c **** *******************************************************************************/
1231:.\Generated_Source\PSoC5/USBUART_1.c **** uint8 USBUART_1_GetEPAckState(uint8 epNumber) 
1232:.\Generated_Source\PSoC5/USBUART_1.c **** {
 1451              		.loc 1 1232 0
 1452              		.cfi_startproc
 1453              		@ args = 0, pretend = 0, frame = 16
 1454              		@ frame_needed = 1, uses_anonymous_args = 0
 1455              		@ link register save eliminated.
 1456 0000 80B4     		push	{r7}
 1457              	.LCFI46:
 1458              		.cfi_def_cfa_offset 4
 1459              		.cfi_offset 7, -4
 1460 0002 85B0     		sub	sp, sp, #20
 1461              	.LCFI47:
 1462              		.cfi_def_cfa_offset 24
 1463 0004 00AF     		add	r7, sp, #0
 1464              	.LCFI48:
 1465              		.cfi_def_cfa_register 7
 1466 0006 0346     		mov	r3, r0
 1467 0008 FB71     		strb	r3, [r7, #7]
1233:.\Generated_Source\PSoC5/USBUART_1.c ****     uint8 ri;
1234:.\Generated_Source\PSoC5/USBUART_1.c ****     uint8 cr = 0u;
 1468              		.loc 1 1234 0
 1469 000a 4FF00003 		mov	r3, #0
 1470 000e FB73     		strb	r3, [r7, #15]
1235:.\Generated_Source\PSoC5/USBUART_1.c **** 
1236:.\Generated_Source\PSoC5/USBUART_1.c ****     if((epNumber > USBUART_1_EP0) && (epNumber < USBUART_1_MAX_EP))
 1471              		.loc 1 1236 0
 1472 0010 FB79     		ldrb	r3, [r7, #7]	@ zero_extendqisi2
 1473 0012 002B     		cmp	r3, #0
 1474 0014 14D0     		beq	.L49
 1475              		.loc 1 1236 0 is_stmt 0 discriminator 1
 1476 0016 FB79     		ldrb	r3, [r7, #7]	@ zero_extendqisi2
 1477 0018 082B     		cmp	r3, #8
 1478 001a 11D8     		bhi	.L49
1237:.\Generated_Source\PSoC5/USBUART_1.c ****     {
1238:.\Generated_Source\PSoC5/USBUART_1.c ****         ri = ((epNumber - USBUART_1_EP1) << USBUART_1_EPX_CNTX_ADDR_SHIFT);
 1479              		.loc 1 1238 0 is_stmt 1
 1480 001c FB79     		ldrb	r3, [r7, #7]
 1481 001e 03F1FF33 		add	r3, r3, #-1
 1482 0022 DBB2     		uxtb	r3, r3
 1483 0024 4FEA0313 		lsl	r3, r3, #4
 1484 0028 BB73     		strb	r3, [r7, #14]
1239:.\Generated_Source\PSoC5/USBUART_1.c ****         cr = CY_GET_REG8((reg8 *)(USBUART_1_SIE_EP1_CR0_IND + ri)) & USBUART_1_MODE_ACKD;
 1485              		.loc 1 1239 0
 1486 002a BA7B     		ldrb	r2, [r7, #14]	@ zero_extendqisi2
 1487 002c 46F20E03 		movw	r3, #24590
 1488 0030 C4F20003 		movt	r3, 16384
 1489 0034 D318     		adds	r3, r2, r3
ARM GAS  C:\Users\Colin\AppData\Local\Temp\ccMAPRQY.s 			page 49


 1490 0036 1B78     		ldrb	r3, [r3, #0]
 1491 0038 DBB2     		uxtb	r3, r3
 1492 003a 03F01003 		and	r3, r3, #16
 1493 003e FB73     		strb	r3, [r7, #15]
 1494              	.L49:
1240:.\Generated_Source\PSoC5/USBUART_1.c ****     }
1241:.\Generated_Source\PSoC5/USBUART_1.c **** 
1242:.\Generated_Source\PSoC5/USBUART_1.c ****     return(cr);
 1495              		.loc 1 1242 0
 1496 0040 FB7B     		ldrb	r3, [r7, #15]	@ zero_extendqisi2
1243:.\Generated_Source\PSoC5/USBUART_1.c **** }
 1497              		.loc 1 1243 0
 1498 0042 1846     		mov	r0, r3
 1499 0044 07F11407 		add	r7, r7, #20
 1500 0048 BD46     		mov	sp, r7
 1501 004a 80BC     		pop	{r7}
 1502 004c 7047     		bx	lr
 1503              		.cfi_endproc
 1504              	.LFE16:
 1505              		.size	USBUART_1_GetEPAckState, .-USBUART_1_GetEPAckState
 1506 004e 00BF     		.section	.text.USBUART_1_SetPowerStatus,"ax",%progbits
 1507              		.align	2
 1508              		.global	USBUART_1_SetPowerStatus
 1509              		.thumb
 1510              		.thumb_func
 1511              		.type	USBUART_1_SetPowerStatus, %function
 1512              	USBUART_1_SetPowerStatus:
 1513              	.LFB17:
1244:.\Generated_Source\PSoC5/USBUART_1.c **** 
1245:.\Generated_Source\PSoC5/USBUART_1.c **** 
1246:.\Generated_Source\PSoC5/USBUART_1.c **** /*******************************************************************************
1247:.\Generated_Source\PSoC5/USBUART_1.c **** * Function Name: USBUART_1_SetPowerStatus
1248:.\Generated_Source\PSoC5/USBUART_1.c **** ********************************************************************************
1249:.\Generated_Source\PSoC5/USBUART_1.c **** *
1250:.\Generated_Source\PSoC5/USBUART_1.c **** * Summary:
1251:.\Generated_Source\PSoC5/USBUART_1.c **** *  Sets the device power status for reporting in the Get Device Status
1252:.\Generated_Source\PSoC5/USBUART_1.c **** *  request
1253:.\Generated_Source\PSoC5/USBUART_1.c **** *
1254:.\Generated_Source\PSoC5/USBUART_1.c **** * Parameters:
1255:.\Generated_Source\PSoC5/USBUART_1.c **** *  powerStatus: USBUART_1_DEVICE_STATUS_BUS_POWERED(0) - Bus Powered,
1256:.\Generated_Source\PSoC5/USBUART_1.c **** *               USBUART_1_DEVICE_STATUS_SELF_POWERED(1) - Self Powered
1257:.\Generated_Source\PSoC5/USBUART_1.c **** *
1258:.\Generated_Source\PSoC5/USBUART_1.c **** * Return:
1259:.\Generated_Source\PSoC5/USBUART_1.c **** *   None.
1260:.\Generated_Source\PSoC5/USBUART_1.c **** *
1261:.\Generated_Source\PSoC5/USBUART_1.c **** * Global variables:
1262:.\Generated_Source\PSoC5/USBUART_1.c **** *  USBUART_1_deviceStatus - set power status
1263:.\Generated_Source\PSoC5/USBUART_1.c **** *
1264:.\Generated_Source\PSoC5/USBUART_1.c **** * Reentrant:
1265:.\Generated_Source\PSoC5/USBUART_1.c **** *  No.
1266:.\Generated_Source\PSoC5/USBUART_1.c **** *
1267:.\Generated_Source\PSoC5/USBUART_1.c **** *******************************************************************************/
1268:.\Generated_Source\PSoC5/USBUART_1.c **** void USBUART_1_SetPowerStatus(uint8 powerStatus) 
1269:.\Generated_Source\PSoC5/USBUART_1.c **** {
 1514              		.loc 1 1269 0
 1515              		.cfi_startproc
 1516              		@ args = 0, pretend = 0, frame = 8
ARM GAS  C:\Users\Colin\AppData\Local\Temp\ccMAPRQY.s 			page 50


 1517              		@ frame_needed = 1, uses_anonymous_args = 0
 1518              		@ link register save eliminated.
 1519 0000 80B4     		push	{r7}
 1520              	.LCFI49:
 1521              		.cfi_def_cfa_offset 4
 1522              		.cfi_offset 7, -4
 1523 0002 83B0     		sub	sp, sp, #12
 1524              	.LCFI50:
 1525              		.cfi_def_cfa_offset 16
 1526 0004 00AF     		add	r7, sp, #0
 1527              	.LCFI51:
 1528              		.cfi_def_cfa_register 7
 1529 0006 0346     		mov	r3, r0
 1530 0008 FB71     		strb	r3, [r7, #7]
1270:.\Generated_Source\PSoC5/USBUART_1.c ****     if (powerStatus != USBUART_1_DEVICE_STATUS_BUS_POWERED)
 1531              		.loc 1 1270 0
 1532 000a FB79     		ldrb	r3, [r7, #7]	@ zero_extendqisi2
 1533 000c 002B     		cmp	r3, #0
 1534 000e 0ED0     		beq	.L52
1271:.\Generated_Source\PSoC5/USBUART_1.c ****     {
1272:.\Generated_Source\PSoC5/USBUART_1.c ****         USBUART_1_deviceStatus |=  USBUART_1_DEVICE_STATUS_SELF_POWERED;
 1535              		.loc 1 1272 0
 1536 0010 40F20003 		movw	r3, #:lower16:USBUART_1_deviceStatus
 1537 0014 C0F20003 		movt	r3, #:upper16:USBUART_1_deviceStatus
 1538 0018 1B78     		ldrb	r3, [r3, #0]
 1539 001a DBB2     		uxtb	r3, r3
 1540 001c 43F00103 		orr	r3, r3, #1
 1541 0020 DAB2     		uxtb	r2, r3
 1542 0022 40F20003 		movw	r3, #:lower16:USBUART_1_deviceStatus
 1543 0026 C0F20003 		movt	r3, #:upper16:USBUART_1_deviceStatus
 1544 002a 1A70     		strb	r2, [r3, #0]
 1545 002c 0DE0     		b	.L51
 1546              	.L52:
1273:.\Generated_Source\PSoC5/USBUART_1.c ****     }
1274:.\Generated_Source\PSoC5/USBUART_1.c ****     else
1275:.\Generated_Source\PSoC5/USBUART_1.c ****     {
1276:.\Generated_Source\PSoC5/USBUART_1.c ****         USBUART_1_deviceStatus &=  ((uint8)(~USBUART_1_DEVICE_STATUS_SELF_POWERED));
 1547              		.loc 1 1276 0
 1548 002e 40F20003 		movw	r3, #:lower16:USBUART_1_deviceStatus
 1549 0032 C0F20003 		movt	r3, #:upper16:USBUART_1_deviceStatus
 1550 0036 1B78     		ldrb	r3, [r3, #0]
 1551 0038 DBB2     		uxtb	r3, r3
 1552 003a 23F00103 		bic	r3, r3, #1
 1553 003e DAB2     		uxtb	r2, r3
 1554 0040 40F20003 		movw	r3, #:lower16:USBUART_1_deviceStatus
 1555 0044 C0F20003 		movt	r3, #:upper16:USBUART_1_deviceStatus
 1556 0048 1A70     		strb	r2, [r3, #0]
 1557              	.L51:
1277:.\Generated_Source\PSoC5/USBUART_1.c ****     }
1278:.\Generated_Source\PSoC5/USBUART_1.c **** }
 1558              		.loc 1 1278 0
 1559 004a 07F10C07 		add	r7, r7, #12
 1560 004e BD46     		mov	sp, r7
 1561 0050 80BC     		pop	{r7}
 1562 0052 7047     		bx	lr
 1563              		.cfi_endproc
 1564              	.LFE17:
ARM GAS  C:\Users\Colin\AppData\Local\Temp\ccMAPRQY.s 			page 51


 1565              		.size	USBUART_1_SetPowerStatus, .-USBUART_1_SetPowerStatus
 1566              		.section	.text.USBUART_1_RWUEnabled,"ax",%progbits
 1567              		.align	2
 1568              		.global	USBUART_1_RWUEnabled
 1569              		.thumb
 1570              		.thumb_func
 1571              		.type	USBUART_1_RWUEnabled, %function
 1572              	USBUART_1_RWUEnabled:
 1573              	.LFB18:
1279:.\Generated_Source\PSoC5/USBUART_1.c **** 
1280:.\Generated_Source\PSoC5/USBUART_1.c **** 
1281:.\Generated_Source\PSoC5/USBUART_1.c **** #if (USBUART_1_MON_VBUS == 1u)
1282:.\Generated_Source\PSoC5/USBUART_1.c **** 
1283:.\Generated_Source\PSoC5/USBUART_1.c ****     /*******************************************************************************
1284:.\Generated_Source\PSoC5/USBUART_1.c ****     * Function Name: USBUART_1_VBusPresent
1285:.\Generated_Source\PSoC5/USBUART_1.c ****     ********************************************************************************
1286:.\Generated_Source\PSoC5/USBUART_1.c ****     *
1287:.\Generated_Source\PSoC5/USBUART_1.c ****     * Summary:
1288:.\Generated_Source\PSoC5/USBUART_1.c ****     *  Determines VBUS presence for Self Powered Devices.
1289:.\Generated_Source\PSoC5/USBUART_1.c ****     *
1290:.\Generated_Source\PSoC5/USBUART_1.c ****     * Parameters:
1291:.\Generated_Source\PSoC5/USBUART_1.c ****     *  None.
1292:.\Generated_Source\PSoC5/USBUART_1.c ****     *
1293:.\Generated_Source\PSoC5/USBUART_1.c ****     * Return:
1294:.\Generated_Source\PSoC5/USBUART_1.c ****     *  1 if VBUS is present, otherwise 0.
1295:.\Generated_Source\PSoC5/USBUART_1.c ****     *
1296:.\Generated_Source\PSoC5/USBUART_1.c ****     *******************************************************************************/
1297:.\Generated_Source\PSoC5/USBUART_1.c ****     uint8 USBUART_1_VBusPresent(void) 
1298:.\Generated_Source\PSoC5/USBUART_1.c ****     {
1299:.\Generated_Source\PSoC5/USBUART_1.c ****         return((0u != (CY_GET_REG8(USBUART_1_VBUS_PS_PTR) & USBUART_1_VBUS_MASK)) ? 1u : 0u);
1300:.\Generated_Source\PSoC5/USBUART_1.c ****     }
1301:.\Generated_Source\PSoC5/USBUART_1.c **** 
1302:.\Generated_Source\PSoC5/USBUART_1.c **** #endif /* USBUART_1_MON_VBUS */
1303:.\Generated_Source\PSoC5/USBUART_1.c **** 
1304:.\Generated_Source\PSoC5/USBUART_1.c **** 
1305:.\Generated_Source\PSoC5/USBUART_1.c **** /*******************************************************************************
1306:.\Generated_Source\PSoC5/USBUART_1.c **** * Function Name: USBUART_1_RWUEnabled
1307:.\Generated_Source\PSoC5/USBUART_1.c **** ********************************************************************************
1308:.\Generated_Source\PSoC5/USBUART_1.c **** *
1309:.\Generated_Source\PSoC5/USBUART_1.c **** * Summary:
1310:.\Generated_Source\PSoC5/USBUART_1.c **** *  Returns TRUE if Remote Wake Up is enabled, otherwise FALSE
1311:.\Generated_Source\PSoC5/USBUART_1.c **** *
1312:.\Generated_Source\PSoC5/USBUART_1.c **** * Parameters:
1313:.\Generated_Source\PSoC5/USBUART_1.c **** *   None.
1314:.\Generated_Source\PSoC5/USBUART_1.c **** *
1315:.\Generated_Source\PSoC5/USBUART_1.c **** * Return:
1316:.\Generated_Source\PSoC5/USBUART_1.c **** *  TRUE -  Remote Wake Up Enabled
1317:.\Generated_Source\PSoC5/USBUART_1.c **** *  FALSE - Remote Wake Up Disabled
1318:.\Generated_Source\PSoC5/USBUART_1.c **** *
1319:.\Generated_Source\PSoC5/USBUART_1.c **** * Global variables:
1320:.\Generated_Source\PSoC5/USBUART_1.c **** *  USBUART_1_deviceStatus - checked to determine remote status
1321:.\Generated_Source\PSoC5/USBUART_1.c **** *
1322:.\Generated_Source\PSoC5/USBUART_1.c **** *******************************************************************************/
1323:.\Generated_Source\PSoC5/USBUART_1.c **** uint8 USBUART_1_RWUEnabled(void) 
1324:.\Generated_Source\PSoC5/USBUART_1.c **** {
 1574              		.loc 1 1324 0
 1575              		.cfi_startproc
ARM GAS  C:\Users\Colin\AppData\Local\Temp\ccMAPRQY.s 			page 52


 1576              		@ args = 0, pretend = 0, frame = 8
 1577              		@ frame_needed = 1, uses_anonymous_args = 0
 1578              		@ link register save eliminated.
 1579 0000 80B4     		push	{r7}
 1580              	.LCFI52:
 1581              		.cfi_def_cfa_offset 4
 1582              		.cfi_offset 7, -4
 1583 0002 83B0     		sub	sp, sp, #12
 1584              	.LCFI53:
 1585              		.cfi_def_cfa_offset 16
 1586 0004 00AF     		add	r7, sp, #0
 1587              	.LCFI54:
 1588              		.cfi_def_cfa_register 7
1325:.\Generated_Source\PSoC5/USBUART_1.c ****     uint8 result = USBUART_1_FALSE;
 1589              		.loc 1 1325 0
 1590 0006 4FF00003 		mov	r3, #0
 1591 000a FB71     		strb	r3, [r7, #7]
1326:.\Generated_Source\PSoC5/USBUART_1.c ****     if((USBUART_1_deviceStatus & USBUART_1_DEVICE_STATUS_REMOTE_WAKEUP) != 0u)
 1592              		.loc 1 1326 0
 1593 000c 40F20003 		movw	r3, #:lower16:USBUART_1_deviceStatus
 1594 0010 C0F20003 		movt	r3, #:upper16:USBUART_1_deviceStatus
 1595 0014 1B78     		ldrb	r3, [r3, #0]
 1596 0016 DBB2     		uxtb	r3, r3
 1597 0018 03F00203 		and	r3, r3, #2
 1598 001c 002B     		cmp	r3, #0
 1599 001e 02D0     		beq	.L55
1327:.\Generated_Source\PSoC5/USBUART_1.c ****     {
1328:.\Generated_Source\PSoC5/USBUART_1.c ****         result = USBUART_1_TRUE;
 1600              		.loc 1 1328 0
 1601 0020 4FF00103 		mov	r3, #1
 1602 0024 FB71     		strb	r3, [r7, #7]
 1603              	.L55:
1329:.\Generated_Source\PSoC5/USBUART_1.c ****     }
1330:.\Generated_Source\PSoC5/USBUART_1.c **** 
1331:.\Generated_Source\PSoC5/USBUART_1.c ****     return(result);
 1604              		.loc 1 1331 0
 1605 0026 FB79     		ldrb	r3, [r7, #7]	@ zero_extendqisi2
1332:.\Generated_Source\PSoC5/USBUART_1.c **** }
 1606              		.loc 1 1332 0
 1607 0028 1846     		mov	r0, r3
 1608 002a 07F10C07 		add	r7, r7, #12
 1609 002e BD46     		mov	sp, r7
 1610 0030 80BC     		pop	{r7}
 1611 0032 7047     		bx	lr
 1612              		.cfi_endproc
 1613              	.LFE18:
 1614              		.size	USBUART_1_RWUEnabled, .-USBUART_1_RWUEnabled
 1615              		.text
 1616              	.Letext0:
 1617              		.file 2 "./Generated_Source/PSoC5/cytypes.h"
 1618              		.file 3 ".\\Generated_Source\\PSoC5\\USBUART_1.h"
 1619              		.file 4 ".\\Generated_Source\\PSoC5\\USBUART_1_pvt.h"
 1620              		.section	.debug_info,"",%progbits
 1621              	.Ldebug_info0:
 1622 0000 87060000 		.4byte	0x687
 1623 0004 0200     		.2byte	0x2
 1624 0006 00000000 		.4byte	.Ldebug_abbrev0
ARM GAS  C:\Users\Colin\AppData\Local\Temp\ccMAPRQY.s 			page 53


 1625 000a 04       		.byte	0x4
 1626 000b 01       		.uleb128 0x1
 1627 000c 88030000 		.4byte	.LASF68
 1628 0010 01       		.byte	0x1
 1629 0011 BB020000 		.4byte	.LASF69
 1630 0015 AB010000 		.4byte	.LASF70
 1631 0019 00000000 		.4byte	.Ldebug_ranges0+0
 1632 001d 00000000 		.4byte	0
 1633 0021 00000000 		.4byte	0
 1634 0025 00000000 		.4byte	.Ldebug_line0
 1635 0029 02       		.uleb128 0x2
 1636 002a 01       		.byte	0x1
 1637 002b 06       		.byte	0x6
 1638 002c AA000000 		.4byte	.LASF0
 1639 0030 02       		.uleb128 0x2
 1640 0031 01       		.byte	0x1
 1641 0032 08       		.byte	0x8
 1642 0033 D6030000 		.4byte	.LASF1
 1643 0037 02       		.uleb128 0x2
 1644 0038 02       		.byte	0x2
 1645 0039 05       		.byte	0x5
 1646 003a F3030000 		.4byte	.LASF2
 1647 003e 02       		.uleb128 0x2
 1648 003f 02       		.byte	0x2
 1649 0040 07       		.byte	0x7
 1650 0041 67020000 		.4byte	.LASF3
 1651 0045 02       		.uleb128 0x2
 1652 0046 04       		.byte	0x4
 1653 0047 05       		.byte	0x5
 1654 0048 CC000000 		.4byte	.LASF4
 1655 004c 02       		.uleb128 0x2
 1656 004d 04       		.byte	0x4
 1657 004e 07       		.byte	0x7
 1658 004f 2A020000 		.4byte	.LASF5
 1659 0053 02       		.uleb128 0x2
 1660 0054 08       		.byte	0x8
 1661 0055 05       		.byte	0x5
 1662 0056 9C000000 		.4byte	.LASF6
 1663 005a 02       		.uleb128 0x2
 1664 005b 08       		.byte	0x8
 1665 005c 07       		.byte	0x7
 1666 005d 60000000 		.4byte	.LASF7
 1667 0061 03       		.uleb128 0x3
 1668 0062 04       		.byte	0x4
 1669 0063 05       		.byte	0x5
 1670 0064 696E7400 		.ascii	"int\000"
 1671 0068 02       		.uleb128 0x2
 1672 0069 04       		.byte	0x4
 1673 006a 07       		.byte	0x7
 1674 006b 9E010000 		.4byte	.LASF8
 1675 006f 04       		.uleb128 0x4
 1676 0070 D5000000 		.4byte	.LASF9
 1677 0074 02       		.byte	0x2
 1678 0075 5B       		.byte	0x5b
 1679 0076 30000000 		.4byte	0x30
 1680 007a 04       		.uleb128 0x4
 1681 007b 00000000 		.4byte	.LASF10
ARM GAS  C:\Users\Colin\AppData\Local\Temp\ccMAPRQY.s 			page 54


 1682 007f 02       		.byte	0x2
 1683 0080 5C       		.byte	0x5c
 1684 0081 3E000000 		.4byte	0x3e
 1685 0085 04       		.uleb128 0x4
 1686 0086 2E010000 		.4byte	.LASF11
 1687 008a 02       		.byte	0x2
 1688 008b 5D       		.byte	0x5d
 1689 008c 4C000000 		.4byte	0x4c
 1690 0090 02       		.uleb128 0x2
 1691 0091 04       		.byte	0x4
 1692 0092 04       		.byte	0x4
 1693 0093 52030000 		.4byte	.LASF12
 1694 0097 02       		.uleb128 0x2
 1695 0098 08       		.byte	0x8
 1696 0099 04       		.byte	0x4
 1697 009a FC000000 		.4byte	.LASF13
 1698 009e 02       		.uleb128 0x2
 1699 009f 01       		.byte	0x1
 1700 00a0 08       		.byte	0x8
 1701 00a1 0B040000 		.4byte	.LASF14
 1702 00a5 04       		.uleb128 0x4
 1703 00a6 D1030000 		.4byte	.LASF15
 1704 00aa 02       		.byte	0x2
 1705 00ab F0       		.byte	0xf0
 1706 00ac B0000000 		.4byte	0xb0
 1707 00b0 05       		.uleb128 0x5
 1708 00b1 6F000000 		.4byte	0x6f
 1709 00b5 04       		.uleb128 0x4
 1710 00b6 EA020000 		.4byte	.LASF16
 1711 00ba 02       		.byte	0x2
 1712 00bb F2       		.byte	0xf2
 1713 00bc C0000000 		.4byte	0xc0
 1714 00c0 05       		.uleb128 0x5
 1715 00c1 85000000 		.4byte	0x85
 1716 00c5 02       		.uleb128 0x2
 1717 00c6 04       		.byte	0x4
 1718 00c7 07       		.byte	0x7
 1719 00c8 FA020000 		.4byte	.LASF17
 1720 00cc 06       		.uleb128 0x6
 1721 00cd 0C       		.byte	0xc
 1722 00ce 03       		.byte	0x3
 1723 00cf 77       		.byte	0x77
 1724 00d0 53010000 		.4byte	0x153
 1725 00d4 07       		.uleb128 0x7
 1726 00d5 19030000 		.4byte	.LASF18
 1727 00d9 03       		.byte	0x3
 1728 00da 79       		.byte	0x79
 1729 00db 6F000000 		.4byte	0x6f
 1730 00df 02       		.byte	0x2
 1731 00e0 23       		.byte	0x23
 1732 00e1 00       		.uleb128 0
 1733 00e2 07       		.uleb128 0x7
 1734 00e3 58030000 		.4byte	.LASF19
 1735 00e7 03       		.byte	0x3
 1736 00e8 7A       		.byte	0x7a
 1737 00e9 6F000000 		.4byte	0x6f
 1738 00ed 02       		.byte	0x2
ARM GAS  C:\Users\Colin\AppData\Local\Temp\ccMAPRQY.s 			page 55


 1739 00ee 23       		.byte	0x23
 1740 00ef 01       		.uleb128 0x1
 1741 00f0 07       		.uleb128 0x7
 1742 00f1 F0020000 		.4byte	.LASF20
 1743 00f5 03       		.byte	0x3
 1744 00f6 7B       		.byte	0x7b
 1745 00f7 6F000000 		.4byte	0x6f
 1746 00fb 02       		.byte	0x2
 1747 00fc 23       		.byte	0x23
 1748 00fd 02       		.uleb128 0x2
 1749 00fe 07       		.uleb128 0x7
 1750 00ff DB000000 		.4byte	.LASF21
 1751 0103 03       		.byte	0x3
 1752 0104 7C       		.byte	0x7c
 1753 0105 6F000000 		.4byte	0x6f
 1754 0109 02       		.byte	0x2
 1755 010a 23       		.byte	0x23
 1756 010b 03       		.uleb128 0x3
 1757 010c 07       		.uleb128 0x7
 1758 010d 77000000 		.4byte	.LASF22
 1759 0111 03       		.byte	0x3
 1760 0112 7D       		.byte	0x7d
 1761 0113 6F000000 		.4byte	0x6f
 1762 0117 02       		.byte	0x2
 1763 0118 23       		.byte	0x23
 1764 0119 04       		.uleb128 0x4
 1765 011a 07       		.uleb128 0x7
 1766 011b 52010000 		.4byte	.LASF23
 1767 011f 03       		.byte	0x3
 1768 0120 7E       		.byte	0x7e
 1769 0121 6F000000 		.4byte	0x6f
 1770 0125 02       		.byte	0x2
 1771 0126 23       		.byte	0x23
 1772 0127 05       		.uleb128 0x5
 1773 0128 07       		.uleb128 0x7
 1774 0129 38040000 		.4byte	.LASF24
 1775 012d 03       		.byte	0x3
 1776 012e 7F       		.byte	0x7f
 1777 012f 7A000000 		.4byte	0x7a
 1778 0133 02       		.byte	0x2
 1779 0134 23       		.byte	0x23
 1780 0135 06       		.uleb128 0x6
 1781 0136 07       		.uleb128 0x7
 1782 0137 15040000 		.4byte	.LASF25
 1783 013b 03       		.byte	0x3
 1784 013c 80       		.byte	0x80
 1785 013d 7A000000 		.4byte	0x7a
 1786 0141 02       		.byte	0x2
 1787 0142 23       		.byte	0x23
 1788 0143 08       		.uleb128 0x8
 1789 0144 07       		.uleb128 0x7
 1790 0145 E0020000 		.4byte	.LASF26
 1791 0149 03       		.byte	0x3
 1792 014a 81       		.byte	0x81
 1793 014b 6F000000 		.4byte	0x6f
 1794 014f 02       		.byte	0x2
 1795 0150 23       		.byte	0x23
ARM GAS  C:\Users\Colin\AppData\Local\Temp\ccMAPRQY.s 			page 56


 1796 0151 0A       		.uleb128 0xa
 1797 0152 00       		.byte	0
 1798 0153 04       		.uleb128 0x4
 1799 0154 6E010000 		.4byte	.LASF27
 1800 0158 03       		.byte	0x3
 1801 0159 82       		.byte	0x82
 1802 015a CC000000 		.4byte	0xcc
 1803 015e 08       		.uleb128 0x8
 1804 015f 01       		.byte	0x1
 1805 0160 63030000 		.4byte	.LASF30
 1806 0164 01       		.byte	0x1
 1807 0165 6A       		.byte	0x6a
 1808 0166 01       		.byte	0x1
 1809 0167 00000000 		.4byte	.LFB0
 1810 016b 42000000 		.4byte	.LFE0
 1811 016f 00000000 		.4byte	.LLST0
 1812 0173 01       		.byte	0x1
 1813 0174 95010000 		.4byte	0x195
 1814 0178 09       		.uleb128 0x9
 1815 0179 95000000 		.4byte	.LASF28
 1816 017d 01       		.byte	0x1
 1817 017e 6A       		.byte	0x6a
 1818 017f 6F000000 		.4byte	0x6f
 1819 0183 02       		.byte	0x2
 1820 0184 91       		.byte	0x91
 1821 0185 77       		.sleb128 -9
 1822 0186 09       		.uleb128 0x9
 1823 0187 10040000 		.4byte	.LASF29
 1824 018b 01       		.byte	0x1
 1825 018c 6A       		.byte	0x6a
 1826 018d 6F000000 		.4byte	0x6f
 1827 0191 02       		.byte	0x2
 1828 0192 91       		.byte	0x91
 1829 0193 76       		.sleb128 -10
 1830 0194 00       		.byte	0
 1831 0195 08       		.uleb128 0x8
 1832 0196 01       		.byte	0x1
 1833 0197 33000000 		.4byte	.LASF31
 1834 019b 01       		.byte	0x1
 1835 019c 87       		.byte	0x87
 1836 019d 01       		.byte	0x1
 1837 019e 00000000 		.4byte	.LFB1
 1838 01a2 36020000 		.4byte	.LFE1
 1839 01a6 38000000 		.4byte	.LLST1
 1840 01aa 01       		.byte	0x1
 1841 01ab BE010000 		.4byte	0x1be
 1842 01af 0A       		.uleb128 0xa
 1843 01b0 6E040000 		.4byte	.LASF33
 1844 01b4 01       		.byte	0x1
 1845 01b5 89       		.byte	0x89
 1846 01b6 6F000000 		.4byte	0x6f
 1847 01ba 02       		.byte	0x2
 1848 01bb 91       		.byte	0x91
 1849 01bc 77       		.sleb128 -9
 1850 01bd 00       		.byte	0
 1851 01be 0B       		.uleb128 0xb
 1852 01bf 01       		.byte	0x1
ARM GAS  C:\Users\Colin\AppData\Local\Temp\ccMAPRQY.s 			page 57


 1853 01c0 43040000 		.4byte	.LASF32
 1854 01c4 01       		.byte	0x1
 1855 01c5 4201     		.2byte	0x142
 1856 01c7 01       		.byte	0x1
 1857 01c8 00000000 		.4byte	.LFB2
 1858 01cc 5E010000 		.4byte	.LFE2
 1859 01d0 70000000 		.4byte	.LLST2
 1860 01d4 01       		.byte	0x1
 1861 01d5 05020000 		.4byte	0x205
 1862 01d9 0C       		.uleb128 0xc
 1863 01da 95000000 		.4byte	.LASF28
 1864 01de 01       		.byte	0x1
 1865 01df 4201     		.2byte	0x142
 1866 01e1 6F000000 		.4byte	0x6f
 1867 01e5 02       		.byte	0x2
 1868 01e6 91       		.byte	0x91
 1869 01e7 6F       		.sleb128 -17
 1870 01e8 0C       		.uleb128 0xc
 1871 01e9 10040000 		.4byte	.LASF29
 1872 01ed 01       		.byte	0x1
 1873 01ee 4201     		.2byte	0x142
 1874 01f0 6F000000 		.4byte	0x6f
 1875 01f4 02       		.byte	0x2
 1876 01f5 91       		.byte	0x91
 1877 01f6 6E       		.sleb128 -18
 1878 01f7 0D       		.uleb128 0xd
 1879 01f8 6900     		.ascii	"i\000"
 1880 01fa 01       		.byte	0x1
 1881 01fb 4901     		.2byte	0x149
 1882 01fd 6F000000 		.4byte	0x6f
 1883 0201 02       		.byte	0x2
 1884 0202 91       		.byte	0x91
 1885 0203 77       		.sleb128 -9
 1886 0204 00       		.byte	0
 1887 0205 0E       		.uleb128 0xe
 1888 0206 01       		.byte	0x1
 1889 0207 38030000 		.4byte	.LASF34
 1890 020b 01       		.byte	0x1
 1891 020c D301     		.2byte	0x1d3
 1892 020e 01       		.byte	0x1
 1893 020f 00000000 		.4byte	.LFB3
 1894 0213 B4000000 		.4byte	.LFE3
 1895 0217 A8000000 		.4byte	.LLST3
 1896 021b 01       		.byte	0x1
 1897 021c 2E020000 		.4byte	0x22e
 1898 0220 0D       		.uleb128 0xd
 1899 0221 6900     		.ascii	"i\000"
 1900 0223 01       		.byte	0x1
 1901 0224 D901     		.2byte	0x1d9
 1902 0226 6F000000 		.4byte	0x6f
 1903 022a 02       		.byte	0x2
 1904 022b 91       		.byte	0x91
 1905 022c 77       		.sleb128 -9
 1906 022d 00       		.byte	0
 1907 022e 0F       		.uleb128 0xf
 1908 022f 01       		.byte	0x1
 1909 0230 E4030000 		.4byte	.LASF71
ARM GAS  C:\Users\Colin\AppData\Local\Temp\ccMAPRQY.s 			page 58


 1910 0234 01       		.byte	0x1
 1911 0235 1502     		.2byte	0x215
 1912 0237 01       		.byte	0x1
 1913 0238 00000000 		.4byte	.LFB4
 1914 023c 14010000 		.4byte	.LFE4
 1915 0240 E0000000 		.4byte	.LLST4
 1916 0244 01       		.byte	0x1
 1917 0245 10       		.uleb128 0x10
 1918 0246 01       		.byte	0x1
 1919 0247 E4000000 		.4byte	.LASF35
 1920 024b 01       		.byte	0x1
 1921 024c 5C02     		.2byte	0x25c
 1922 024e 01       		.byte	0x1
 1923 024f 6F000000 		.4byte	0x6f
 1924 0253 00000000 		.4byte	.LFB5
 1925 0257 3C000000 		.4byte	.LFE5
 1926 025b 0C010000 		.4byte	.LLST5
 1927 025f 01       		.byte	0x1
 1928 0260 72020000 		.4byte	0x272
 1929 0264 0D       		.uleb128 0xd
 1930 0265 7200     		.ascii	"r\000"
 1931 0267 01       		.byte	0x1
 1932 0268 5E02     		.2byte	0x25e
 1933 026a 6F000000 		.4byte	0x6f
 1934 026e 02       		.byte	0x2
 1935 026f 91       		.byte	0x91
 1936 0270 77       		.sleb128 -9
 1937 0271 00       		.byte	0
 1938 0272 11       		.uleb128 0x11
 1939 0273 01       		.byte	0x1
 1940 0274 B2040000 		.4byte	.LASF72
 1941 0278 01       		.byte	0x1
 1942 0279 7502     		.2byte	0x275
 1943 027b 01       		.byte	0x1
 1944 027c 6F000000 		.4byte	0x6f
 1945 0280 00000000 		.4byte	.LFB6
 1946 0284 18000000 		.4byte	.LFE6
 1947 0288 44010000 		.4byte	.LLST6
 1948 028c 01       		.byte	0x1
 1949 028d 10       		.uleb128 0x10
 1950 028e 01       		.byte	0x1
 1951 028f 13050000 		.4byte	.LASF36
 1952 0293 01       		.byte	0x1
 1953 0294 8F02     		.2byte	0x28f
 1954 0296 01       		.byte	0x1
 1955 0297 6F000000 		.4byte	0x6f
 1956 029b 00000000 		.4byte	.LFB7
 1957 029f 44000000 		.4byte	.LFE7
 1958 02a3 70010000 		.4byte	.LLST7
 1959 02a7 01       		.byte	0x1
 1960 02a8 BC020000 		.4byte	0x2bc
 1961 02ac 0D       		.uleb128 0xd
 1962 02ad 72657300 		.ascii	"res\000"
 1963 02b1 01       		.byte	0x1
 1964 02b2 9102     		.2byte	0x291
 1965 02b4 6F000000 		.4byte	0x6f
 1966 02b8 02       		.byte	0x2
ARM GAS  C:\Users\Colin\AppData\Local\Temp\ccMAPRQY.s 			page 59


 1967 02b9 91       		.byte	0x91
 1968 02ba 77       		.sleb128 -9
 1969 02bb 00       		.byte	0
 1970 02bc 10       		.uleb128 0x10
 1971 02bd 01       		.byte	0x1
 1972 02be 42000000 		.4byte	.LASF37
 1973 02c2 01       		.byte	0x1
 1974 02c3 AB02     		.2byte	0x2ab
 1975 02c5 01       		.byte	0x1
 1976 02c6 6F000000 		.4byte	0x6f
 1977 02ca 00000000 		.4byte	.LFB8
 1978 02ce 24000000 		.4byte	.LFE8
 1979 02d2 A8010000 		.4byte	.LLST8
 1980 02d6 01       		.byte	0x1
 1981 02d7 EB020000 		.4byte	0x2eb
 1982 02db 0C       		.uleb128 0xc
 1983 02dc 7C000000 		.4byte	.LASF38
 1984 02e0 01       		.byte	0x1
 1985 02e1 AB02     		.2byte	0x2ab
 1986 02e3 6F000000 		.4byte	0x6f
 1987 02e7 02       		.byte	0x2
 1988 02e8 91       		.byte	0x91
 1989 02e9 77       		.sleb128 -9
 1990 02ea 00       		.byte	0
 1991 02eb 10       		.uleb128 0x10
 1992 02ec 01       		.byte	0x1
 1993 02ed 59010000 		.4byte	.LASF39
 1994 02f1 01       		.byte	0x1
 1995 02f2 C002     		.2byte	0x2c0
 1996 02f4 01       		.byte	0x1
 1997 02f5 6F000000 		.4byte	0x6f
 1998 02f9 00000000 		.4byte	.LFB9
 1999 02fd 32000000 		.4byte	.LFE9
 2000 0301 E0010000 		.4byte	.LLST9
 2001 0305 01       		.byte	0x1
 2002 0306 1A030000 		.4byte	0x31a
 2003 030a 0C       		.uleb128 0xc
 2004 030b 8C000000 		.4byte	.LASF40
 2005 030f 01       		.byte	0x1
 2006 0310 C002     		.2byte	0x2c0
 2007 0312 6F000000 		.4byte	0x6f
 2008 0316 02       		.byte	0x2
 2009 0317 91       		.byte	0x91
 2010 0318 77       		.sleb128 -9
 2011 0319 00       		.byte	0
 2012 031a 10       		.uleb128 0x10
 2013 031b 01       		.byte	0x1
 2014 031c 8E020000 		.4byte	.LASF41
 2015 0320 01       		.byte	0x1
 2016 0321 D902     		.2byte	0x2d9
 2017 0323 01       		.byte	0x1
 2018 0324 7A000000 		.4byte	0x7a
 2019 0328 00000000 		.4byte	.LFB10
 2020 032c 74000000 		.4byte	.LFE10
 2021 0330 18020000 		.4byte	.LLST10
 2022 0334 01       		.byte	0x1
 2023 0335 66030000 		.4byte	0x366
ARM GAS  C:\Users\Colin\AppData\Local\Temp\ccMAPRQY.s 			page 60


 2024 0339 0C       		.uleb128 0xc
 2025 033a 8C000000 		.4byte	.LASF40
 2026 033e 01       		.byte	0x1
 2027 033f D902     		.2byte	0x2d9
 2028 0341 6F000000 		.4byte	0x6f
 2029 0345 02       		.byte	0x2
 2030 0346 91       		.byte	0x91
 2031 0347 6F       		.sleb128 -17
 2032 0348 0D       		.uleb128 0xd
 2033 0349 726900   		.ascii	"ri\000"
 2034 034c 01       		.byte	0x1
 2035 034d DB02     		.2byte	0x2db
 2036 034f 6F000000 		.4byte	0x6f
 2037 0353 02       		.byte	0x2
 2038 0354 91       		.byte	0x91
 2039 0355 75       		.sleb128 -11
 2040 0356 12       		.uleb128 0x12
 2041 0357 0C050000 		.4byte	.LASF42
 2042 035b 01       		.byte	0x1
 2043 035c DC02     		.2byte	0x2dc
 2044 035e 7A000000 		.4byte	0x7a
 2045 0362 02       		.byte	0x2
 2046 0363 91       		.byte	0x91
 2047 0364 76       		.sleb128 -10
 2048 0365 00       		.byte	0
 2049 0366 0E       		.uleb128 0xe
 2050 0367 01       		.byte	0x1
 2051 0368 5B040000 		.4byte	.LASF43
 2052 036c 01       		.byte	0x1
 2053 036d 9003     		.2byte	0x390
 2054 036f 01       		.byte	0x1
 2055 0370 00000000 		.4byte	.LFB11
 2056 0374 4E010000 		.4byte	.LFE11
 2057 0378 50020000 		.4byte	.LLST11
 2058 037c 01       		.byte	0x1
 2059 037d D7030000 		.4byte	0x3d7
 2060 0381 0C       		.uleb128 0xc
 2061 0382 8C000000 		.4byte	.LASF40
 2062 0386 01       		.byte	0x1
 2063 0387 9003     		.2byte	0x390
 2064 0389 6F000000 		.4byte	0x6f
 2065 038d 02       		.byte	0x2
 2066 038e 91       		.byte	0x91
 2067 038f 6F       		.sleb128 -17
 2068 0390 0C       		.uleb128 0xc
 2069 0391 35010000 		.4byte	.LASF44
 2070 0395 01       		.byte	0x1
 2071 0396 9003     		.2byte	0x390
 2072 0398 D7030000 		.4byte	0x3d7
 2073 039c 02       		.byte	0x2
 2074 039d 91       		.byte	0x91
 2075 039e 68       		.sleb128 -24
 2076 039f 0C       		.uleb128 0xc
 2077 03a0 04040000 		.4byte	.LASF45
 2078 03a4 01       		.byte	0x1
 2079 03a5 9003     		.2byte	0x390
 2080 03a7 7A000000 		.4byte	0x7a
ARM GAS  C:\Users\Colin\AppData\Local\Temp\ccMAPRQY.s 			page 61


 2081 03ab 02       		.byte	0x2
 2082 03ac 91       		.byte	0x91
 2083 03ad 6C       		.sleb128 -20
 2084 03ae 0D       		.uleb128 0xd
 2085 03af 726900   		.ascii	"ri\000"
 2086 03b2 01       		.byte	0x1
 2087 03b3 9303     		.2byte	0x393
 2088 03b5 6F000000 		.4byte	0x6f
 2089 03b9 02       		.byte	0x2
 2090 03ba 91       		.byte	0x91
 2091 03bb 75       		.sleb128 -11
 2092 03bc 0D       		.uleb128 0xd
 2093 03bd 7000     		.ascii	"p\000"
 2094 03bf 01       		.byte	0x1
 2095 03c0 9403     		.2byte	0x394
 2096 03c2 E2030000 		.4byte	0x3e2
 2097 03c6 02       		.byte	0x2
 2098 03c7 91       		.byte	0x91
 2099 03c8 70       		.sleb128 -16
 2100 03c9 0D       		.uleb128 0xd
 2101 03ca 6900     		.ascii	"i\000"
 2102 03cc 01       		.byte	0x1
 2103 03cd 9603     		.2byte	0x396
 2104 03cf 7A000000 		.4byte	0x7a
 2105 03d3 02       		.byte	0x2
 2106 03d4 91       		.byte	0x91
 2107 03d5 76       		.sleb128 -10
 2108 03d6 00       		.byte	0
 2109 03d7 13       		.uleb128 0x13
 2110 03d8 04       		.byte	0x4
 2111 03d9 DD030000 		.4byte	0x3dd
 2112 03dd 14       		.uleb128 0x14
 2113 03de 6F000000 		.4byte	0x6f
 2114 03e2 13       		.uleb128 0x13
 2115 03e3 04       		.byte	0x4
 2116 03e4 A5000000 		.4byte	0xa5
 2117 03e8 15       		.uleb128 0x15
 2118 03e9 01       		.byte	0x1
 2119 03ea 7A020000 		.4byte	.LASF46
 2120 03ee 01       		.byte	0x1
 2121 03ef 1304     		.2byte	0x413
 2122 03f1 01       		.byte	0x1
 2123 03f2 7A000000 		.4byte	0x7a
 2124 03f6 00000000 		.4byte	.LFB12
 2125 03fa 98000000 		.4byte	.LFE12
 2126 03fe 88020000 		.4byte	.LLST12
 2127 0402 01       		.byte	0x1
 2128 0403 6C040000 		.4byte	0x46c
 2129 0407 0C       		.uleb128 0xc
 2130 0408 8C000000 		.4byte	.LASF40
 2131 040c 01       		.byte	0x1
 2132 040d 1304     		.2byte	0x413
 2133 040f 6F000000 		.4byte	0x6f
 2134 0413 02       		.byte	0x2
 2135 0414 91       		.byte	0x91
 2136 0415 67       		.sleb128 -25
 2137 0416 0C       		.uleb128 0xc
ARM GAS  C:\Users\Colin\AppData\Local\Temp\ccMAPRQY.s 			page 62


 2138 0417 35010000 		.4byte	.LASF44
 2139 041b 01       		.byte	0x1
 2140 041c 1304     		.2byte	0x413
 2141 041e 6C040000 		.4byte	0x46c
 2142 0422 02       		.byte	0x2
 2143 0423 91       		.byte	0x91
 2144 0424 60       		.sleb128 -32
 2145 0425 0C       		.uleb128 0xc
 2146 0426 04040000 		.4byte	.LASF45
 2147 042a 01       		.byte	0x1
 2148 042b 1304     		.2byte	0x413
 2149 042d 7A000000 		.4byte	0x7a
 2150 0431 02       		.byte	0x2
 2151 0432 91       		.byte	0x91
 2152 0433 64       		.sleb128 -28
 2153 0434 0D       		.uleb128 0xd
 2154 0435 726900   		.ascii	"ri\000"
 2155 0438 01       		.byte	0x1
 2156 0439 1604     		.2byte	0x416
 2157 043b 6F000000 		.4byte	0x6f
 2158 043f 02       		.byte	0x2
 2159 0440 91       		.byte	0x91
 2160 0441 75       		.sleb128 -11
 2161 0442 0D       		.uleb128 0xd
 2162 0443 7000     		.ascii	"p\000"
 2163 0445 01       		.byte	0x1
 2164 0446 1704     		.2byte	0x417
 2165 0448 E2030000 		.4byte	0x3e2
 2166 044c 02       		.byte	0x2
 2167 044d 91       		.byte	0x91
 2168 044e 70       		.sleb128 -16
 2169 044f 0D       		.uleb128 0xd
 2170 0450 6900     		.ascii	"i\000"
 2171 0452 01       		.byte	0x1
 2172 0453 1904     		.2byte	0x419
 2173 0455 7A000000 		.4byte	0x7a
 2174 0459 02       		.byte	0x2
 2175 045a 91       		.byte	0x91
 2176 045b 76       		.sleb128 -10
 2177 045c 12       		.uleb128 0x12
 2178 045d E5040000 		.4byte	.LASF47
 2179 0461 01       		.byte	0x1
 2180 0462 1C04     		.2byte	0x41c
 2181 0464 7A000000 		.4byte	0x7a
 2182 0468 02       		.byte	0x2
 2183 0469 91       		.byte	0x91
 2184 046a 6E       		.sleb128 -18
 2185 046b 00       		.byte	0
 2186 046c 13       		.uleb128 0x13
 2187 046d 04       		.byte	0x4
 2188 046e 6F000000 		.4byte	0x6f
 2189 0472 0E       		.uleb128 0xe
 2190 0473 01       		.byte	0x1
 2191 0474 B6000000 		.4byte	.LASF48
 2192 0478 01       		.byte	0x1
 2193 0479 7D04     		.2byte	0x47d
 2194 047b 01       		.byte	0x1
ARM GAS  C:\Users\Colin\AppData\Local\Temp\ccMAPRQY.s 			page 63


 2195 047c 00000000 		.4byte	.LFB13
 2196 0480 78000000 		.4byte	.LFE13
 2197 0484 C0020000 		.4byte	.LLST13
 2198 0488 01       		.byte	0x1
 2199 0489 AB040000 		.4byte	0x4ab
 2200 048d 0C       		.uleb128 0xc
 2201 048e 8C000000 		.4byte	.LASF40
 2202 0492 01       		.byte	0x1
 2203 0493 7D04     		.2byte	0x47d
 2204 0495 6F000000 		.4byte	0x6f
 2205 0499 02       		.byte	0x2
 2206 049a 91       		.byte	0x91
 2207 049b 6F       		.sleb128 -17
 2208 049c 0D       		.uleb128 0xd
 2209 049d 726900   		.ascii	"ri\000"
 2210 04a0 01       		.byte	0x1
 2211 04a1 7F04     		.2byte	0x47f
 2212 04a3 6F000000 		.4byte	0x6f
 2213 04a7 02       		.byte	0x2
 2214 04a8 91       		.byte	0x91
 2215 04a9 77       		.sleb128 -9
 2216 04aa 00       		.byte	0
 2217 04ab 0E       		.uleb128 0xe
 2218 04ac 01       		.byte	0x1
 2219 04ad 3B010000 		.4byte	.LASF49
 2220 04b1 01       		.byte	0x1
 2221 04b2 9B04     		.2byte	0x49b
 2222 04b4 01       		.byte	0x1
 2223 04b5 00000000 		.4byte	.LFB14
 2224 04b9 40000000 		.4byte	.LFE14
 2225 04bd F8020000 		.4byte	.LLST14
 2226 04c1 01       		.byte	0x1
 2227 04c2 E4040000 		.4byte	0x4e4
 2228 04c6 0C       		.uleb128 0xc
 2229 04c7 8C000000 		.4byte	.LASF40
 2230 04cb 01       		.byte	0x1
 2231 04cc 9B04     		.2byte	0x49b
 2232 04ce 6F000000 		.4byte	0x6f
 2233 04d2 02       		.byte	0x2
 2234 04d3 91       		.byte	0x91
 2235 04d4 6F       		.sleb128 -17
 2236 04d5 0D       		.uleb128 0xd
 2237 04d6 726900   		.ascii	"ri\000"
 2238 04d9 01       		.byte	0x1
 2239 04da 9D04     		.2byte	0x49d
 2240 04dc 6F000000 		.4byte	0x6f
 2241 04e0 02       		.byte	0x2
 2242 04e1 91       		.byte	0x91
 2243 04e2 77       		.sleb128 -9
 2244 04e3 00       		.byte	0
 2245 04e4 0E       		.uleb128 0xe
 2246 04e5 01       		.byte	0x1
 2247 04e6 EF040000 		.4byte	.LASF50
 2248 04ea 01       		.byte	0x1
 2249 04eb BA04     		.2byte	0x4ba
 2250 04ed 01       		.byte	0x1
 2251 04ee 00000000 		.4byte	.LFB15
ARM GAS  C:\Users\Colin\AppData\Local\Temp\ccMAPRQY.s 			page 64


 2252 04f2 20000000 		.4byte	.LFE15
 2253 04f6 30030000 		.4byte	.LLST15
 2254 04fa 01       		.byte	0x1
 2255 04fb 0F050000 		.4byte	0x50f
 2256 04ff 0C       		.uleb128 0xc
 2257 0500 FD030000 		.4byte	.LASF51
 2258 0504 01       		.byte	0x1
 2259 0505 BA04     		.2byte	0x4ba
 2260 0507 6F000000 		.4byte	0x6f
 2261 050b 02       		.byte	0x2
 2262 050c 91       		.byte	0x91
 2263 050d 77       		.sleb128 -9
 2264 050e 00       		.byte	0
 2265 050f 10       		.uleb128 0x10
 2266 0510 01       		.byte	0x1
 2267 0511 20040000 		.4byte	.LASF52
 2268 0515 01       		.byte	0x1
 2269 0516 CF04     		.2byte	0x4cf
 2270 0518 01       		.byte	0x1
 2271 0519 6F000000 		.4byte	0x6f
 2272 051d 00000000 		.4byte	.LFB16
 2273 0521 4E000000 		.4byte	.LFE16
 2274 0525 68030000 		.4byte	.LLST16
 2275 0529 01       		.byte	0x1
 2276 052a 5A050000 		.4byte	0x55a
 2277 052e 0C       		.uleb128 0xc
 2278 052f 8C000000 		.4byte	.LASF40
 2279 0533 01       		.byte	0x1
 2280 0534 CF04     		.2byte	0x4cf
 2281 0536 6F000000 		.4byte	0x6f
 2282 053a 02       		.byte	0x2
 2283 053b 91       		.byte	0x91
 2284 053c 6F       		.sleb128 -17
 2285 053d 0D       		.uleb128 0xd
 2286 053e 726900   		.ascii	"ri\000"
 2287 0541 01       		.byte	0x1
 2288 0542 D104     		.2byte	0x4d1
 2289 0544 6F000000 		.4byte	0x6f
 2290 0548 02       		.byte	0x2
 2291 0549 91       		.byte	0x91
 2292 054a 76       		.sleb128 -10
 2293 054b 0D       		.uleb128 0xd
 2294 054c 637200   		.ascii	"cr\000"
 2295 054f 01       		.byte	0x1
 2296 0550 D204     		.2byte	0x4d2
 2297 0552 6F000000 		.4byte	0x6f
 2298 0556 02       		.byte	0x2
 2299 0557 91       		.byte	0x91
 2300 0558 77       		.sleb128 -9
 2301 0559 00       		.byte	0
 2302 055a 0E       		.uleb128 0xe
 2303 055b 01       		.byte	0x1
 2304 055c 4E020000 		.4byte	.LASF53
 2305 0560 01       		.byte	0x1
 2306 0561 F404     		.2byte	0x4f4
 2307 0563 01       		.byte	0x1
 2308 0564 00000000 		.4byte	.LFB17
ARM GAS  C:\Users\Colin\AppData\Local\Temp\ccMAPRQY.s 			page 65


 2309 0568 54000000 		.4byte	.LFE17
 2310 056c A0030000 		.4byte	.LLST17
 2311 0570 01       		.byte	0x1
 2312 0571 85050000 		.4byte	0x585
 2313 0575 0C       		.uleb128 0xc
 2314 0576 03010000 		.4byte	.LASF54
 2315 057a 01       		.byte	0x1
 2316 057b F404     		.2byte	0x4f4
 2317 057d 6F000000 		.4byte	0x6f
 2318 0581 02       		.byte	0x2
 2319 0582 91       		.byte	0x91
 2320 0583 77       		.sleb128 -9
 2321 0584 00       		.byte	0
 2322 0585 10       		.uleb128 0x10
 2323 0586 01       		.byte	0x1
 2324 0587 73030000 		.4byte	.LASF55
 2325 058b 01       		.byte	0x1
 2326 058c 2B05     		.2byte	0x52b
 2327 058e 01       		.byte	0x1
 2328 058f 6F000000 		.4byte	0x6f
 2329 0593 00000000 		.4byte	.LFB18
 2330 0597 34000000 		.4byte	.LFE18
 2331 059b D8030000 		.4byte	.LLST18
 2332 059f 01       		.byte	0x1
 2333 05a0 B4050000 		.4byte	0x5b4
 2334 05a4 12       		.uleb128 0x12
 2335 05a5 0C050000 		.4byte	.LASF42
 2336 05a9 01       		.byte	0x1
 2337 05aa 2D05     		.2byte	0x52d
 2338 05ac 6F000000 		.4byte	0x6f
 2339 05b0 02       		.byte	0x2
 2340 05b1 91       		.byte	0x91
 2341 05b2 77       		.sleb128 -9
 2342 05b3 00       		.byte	0
 2343 05b4 16       		.uleb128 0x16
 2344 05b5 3C020000 		.4byte	.LASF56
 2345 05b9 01       		.byte	0x1
 2346 05ba 36       		.byte	0x36
 2347 05bb 6F000000 		.4byte	0x6f
 2348 05bf 01       		.byte	0x1
 2349 05c0 05       		.byte	0x5
 2350 05c1 03       		.byte	0x3
 2351 05c2 00000000 		.4byte	USBUART_1_initVar
 2352 05c6 17       		.uleb128 0x17
 2353 05c7 22000000 		.4byte	.LASF57
 2354 05cb 03       		.byte	0x3
 2355 05cc 1602     		.2byte	0x216
 2356 05ce B0000000 		.4byte	0xb0
 2357 05d2 01       		.byte	0x1
 2358 05d3 01       		.byte	0x1
 2359 05d4 17       		.uleb128 0x17
 2360 05d5 CD040000 		.4byte	.LASF58
 2361 05d9 03       		.byte	0x3
 2362 05da 1702     		.2byte	0x217
 2363 05dc B0000000 		.4byte	0xb0
 2364 05e0 01       		.byte	0x1
 2365 05e1 01       		.byte	0x1
ARM GAS  C:\Users\Colin\AppData\Local\Temp\ccMAPRQY.s 			page 66


 2366 05e2 17       		.uleb128 0x17
 2367 05e3 20030000 		.4byte	.LASF59
 2368 05e7 03       		.byte	0x3
 2369 05e8 1802     		.2byte	0x218
 2370 05ea B0000000 		.4byte	0xb0
 2371 05ee 01       		.byte	0x1
 2372 05ef 01       		.byte	0x1
 2373 05f0 17       		.uleb128 0x17
 2374 05f1 0F010000 		.4byte	.LASF60
 2375 05f5 03       		.byte	0x3
 2376 05f6 1902     		.2byte	0x219
 2377 05f8 B0000000 		.4byte	0xb0
 2378 05fc 01       		.byte	0x1
 2379 05fd 01       		.byte	0x1
 2380 05fe 17       		.uleb128 0x17
 2381 05ff 87010000 		.4byte	.LASF61
 2382 0603 03       		.byte	0x3
 2383 0604 1A02     		.2byte	0x21a
 2384 0606 B0000000 		.4byte	0xb0
 2385 060a 01       		.byte	0x1
 2386 060b 01       		.byte	0x1
 2387 060c 18       		.uleb128 0x18
 2388 060d 6F000000 		.4byte	0x6f
 2389 0611 1C060000 		.4byte	0x61c
 2390 0615 19       		.uleb128 0x19
 2391 0616 C5000000 		.4byte	0xc5
 2392 061a 01       		.byte	0x1
 2393 061b 00       		.byte	0
 2394 061c 17       		.uleb128 0x17
 2395 061d 03030000 		.4byte	.LASF62
 2396 0621 03       		.byte	0x3
 2397 0622 1E02     		.2byte	0x21e
 2398 0624 2A060000 		.4byte	0x62a
 2399 0628 01       		.byte	0x1
 2400 0629 01       		.byte	0x1
 2401 062a 05       		.uleb128 0x5
 2402 062b 0C060000 		.4byte	0x60c
 2403 062f 1A       		.uleb128 0x1a
 2404 0630 7F040000 		.4byte	.LASF63
 2405 0634 04       		.byte	0x4
 2406 0635 2E       		.byte	0x2e
 2407 0636 B0000000 		.4byte	0xb0
 2408 063a 01       		.byte	0x1
 2409 063b 01       		.byte	0x1
 2410 063c 1A       		.uleb128 0x1a
 2411 063d 07000000 		.4byte	.LASF64
 2412 0641 04       		.byte	0x4
 2413 0642 2F       		.byte	0x2f
 2414 0643 49060000 		.4byte	0x649
 2415 0647 01       		.byte	0x1
 2416 0648 01       		.byte	0x1
 2417 0649 05       		.uleb128 0x5
 2418 064a 0C060000 		.4byte	0x60c
 2419 064e 1A       		.uleb128 0x1a
 2420 064f A3020000 		.4byte	.LASF65
 2421 0653 04       		.byte	0x4
 2422 0654 31       		.byte	0x31
ARM GAS  C:\Users\Colin\AppData\Local\Temp\ccMAPRQY.s 			page 67


 2423 0655 B0000000 		.4byte	0xb0
 2424 0659 01       		.byte	0x1
 2425 065a 01       		.byte	0x1
 2426 065b 18       		.uleb128 0x18
 2427 065c 53010000 		.4byte	0x153
 2428 0660 6B060000 		.4byte	0x66b
 2429 0664 19       		.uleb128 0x19
 2430 0665 C5000000 		.4byte	0xc5
 2431 0669 08       		.byte	0x8
 2432 066a 00       		.byte	0
 2433 066b 1A       		.uleb128 0x1a
 2434 066c FF040000 		.4byte	.LASF66
 2435 0670 04       		.byte	0x4
 2436 0671 35       		.byte	0x35
 2437 0672 78060000 		.4byte	0x678
 2438 0676 01       		.byte	0x1
 2439 0677 01       		.byte	0x1
 2440 0678 05       		.uleb128 0x5
 2441 0679 5B060000 		.4byte	0x65b
 2442 067d 1A       		.uleb128 0x1a
 2443 067e 99040000 		.4byte	.LASF67
 2444 0682 04       		.byte	0x4
 2445 0683 3E       		.byte	0x3e
 2446 0684 B0000000 		.4byte	0xb0
 2447 0688 01       		.byte	0x1
 2448 0689 01       		.byte	0x1
 2449 068a 00       		.byte	0
 2450              		.section	.debug_abbrev,"",%progbits
 2451              	.Ldebug_abbrev0:
 2452 0000 01       		.uleb128 0x1
 2453 0001 11       		.uleb128 0x11
 2454 0002 01       		.byte	0x1
 2455 0003 25       		.uleb128 0x25
 2456 0004 0E       		.uleb128 0xe
 2457 0005 13       		.uleb128 0x13
 2458 0006 0B       		.uleb128 0xb
 2459 0007 03       		.uleb128 0x3
 2460 0008 0E       		.uleb128 0xe
 2461 0009 1B       		.uleb128 0x1b
 2462 000a 0E       		.uleb128 0xe
 2463 000b 55       		.uleb128 0x55
 2464 000c 06       		.uleb128 0x6
 2465 000d 11       		.uleb128 0x11
 2466 000e 01       		.uleb128 0x1
 2467 000f 52       		.uleb128 0x52
 2468 0010 01       		.uleb128 0x1
 2469 0011 10       		.uleb128 0x10
 2470 0012 06       		.uleb128 0x6
 2471 0013 00       		.byte	0
 2472 0014 00       		.byte	0
 2473 0015 02       		.uleb128 0x2
 2474 0016 24       		.uleb128 0x24
 2475 0017 00       		.byte	0
 2476 0018 0B       		.uleb128 0xb
 2477 0019 0B       		.uleb128 0xb
 2478 001a 3E       		.uleb128 0x3e
 2479 001b 0B       		.uleb128 0xb
ARM GAS  C:\Users\Colin\AppData\Local\Temp\ccMAPRQY.s 			page 68


 2480 001c 03       		.uleb128 0x3
 2481 001d 0E       		.uleb128 0xe
 2482 001e 00       		.byte	0
 2483 001f 00       		.byte	0
 2484 0020 03       		.uleb128 0x3
 2485 0021 24       		.uleb128 0x24
 2486 0022 00       		.byte	0
 2487 0023 0B       		.uleb128 0xb
 2488 0024 0B       		.uleb128 0xb
 2489 0025 3E       		.uleb128 0x3e
 2490 0026 0B       		.uleb128 0xb
 2491 0027 03       		.uleb128 0x3
 2492 0028 08       		.uleb128 0x8
 2493 0029 00       		.byte	0
 2494 002a 00       		.byte	0
 2495 002b 04       		.uleb128 0x4
 2496 002c 16       		.uleb128 0x16
 2497 002d 00       		.byte	0
 2498 002e 03       		.uleb128 0x3
 2499 002f 0E       		.uleb128 0xe
 2500 0030 3A       		.uleb128 0x3a
 2501 0031 0B       		.uleb128 0xb
 2502 0032 3B       		.uleb128 0x3b
 2503 0033 0B       		.uleb128 0xb
 2504 0034 49       		.uleb128 0x49
 2505 0035 13       		.uleb128 0x13
 2506 0036 00       		.byte	0
 2507 0037 00       		.byte	0
 2508 0038 05       		.uleb128 0x5
 2509 0039 35       		.uleb128 0x35
 2510 003a 00       		.byte	0
 2511 003b 49       		.uleb128 0x49
 2512 003c 13       		.uleb128 0x13
 2513 003d 00       		.byte	0
 2514 003e 00       		.byte	0
 2515 003f 06       		.uleb128 0x6
 2516 0040 13       		.uleb128 0x13
 2517 0041 01       		.byte	0x1
 2518 0042 0B       		.uleb128 0xb
 2519 0043 0B       		.uleb128 0xb
 2520 0044 3A       		.uleb128 0x3a
 2521 0045 0B       		.uleb128 0xb
 2522 0046 3B       		.uleb128 0x3b
 2523 0047 0B       		.uleb128 0xb
 2524 0048 01       		.uleb128 0x1
 2525 0049 13       		.uleb128 0x13
 2526 004a 00       		.byte	0
 2527 004b 00       		.byte	0
 2528 004c 07       		.uleb128 0x7
 2529 004d 0D       		.uleb128 0xd
 2530 004e 00       		.byte	0
 2531 004f 03       		.uleb128 0x3
 2532 0050 0E       		.uleb128 0xe
 2533 0051 3A       		.uleb128 0x3a
 2534 0052 0B       		.uleb128 0xb
 2535 0053 3B       		.uleb128 0x3b
 2536 0054 0B       		.uleb128 0xb
ARM GAS  C:\Users\Colin\AppData\Local\Temp\ccMAPRQY.s 			page 69


 2537 0055 49       		.uleb128 0x49
 2538 0056 13       		.uleb128 0x13
 2539 0057 38       		.uleb128 0x38
 2540 0058 0A       		.uleb128 0xa
 2541 0059 00       		.byte	0
 2542 005a 00       		.byte	0
 2543 005b 08       		.uleb128 0x8
 2544 005c 2E       		.uleb128 0x2e
 2545 005d 01       		.byte	0x1
 2546 005e 3F       		.uleb128 0x3f
 2547 005f 0C       		.uleb128 0xc
 2548 0060 03       		.uleb128 0x3
 2549 0061 0E       		.uleb128 0xe
 2550 0062 3A       		.uleb128 0x3a
 2551 0063 0B       		.uleb128 0xb
 2552 0064 3B       		.uleb128 0x3b
 2553 0065 0B       		.uleb128 0xb
 2554 0066 27       		.uleb128 0x27
 2555 0067 0C       		.uleb128 0xc
 2556 0068 11       		.uleb128 0x11
 2557 0069 01       		.uleb128 0x1
 2558 006a 12       		.uleb128 0x12
 2559 006b 01       		.uleb128 0x1
 2560 006c 40       		.uleb128 0x40
 2561 006d 06       		.uleb128 0x6
 2562 006e 9642     		.uleb128 0x2116
 2563 0070 0C       		.uleb128 0xc
 2564 0071 01       		.uleb128 0x1
 2565 0072 13       		.uleb128 0x13
 2566 0073 00       		.byte	0
 2567 0074 00       		.byte	0
 2568 0075 09       		.uleb128 0x9
 2569 0076 05       		.uleb128 0x5
 2570 0077 00       		.byte	0
 2571 0078 03       		.uleb128 0x3
 2572 0079 0E       		.uleb128 0xe
 2573 007a 3A       		.uleb128 0x3a
 2574 007b 0B       		.uleb128 0xb
 2575 007c 3B       		.uleb128 0x3b
 2576 007d 0B       		.uleb128 0xb
 2577 007e 49       		.uleb128 0x49
 2578 007f 13       		.uleb128 0x13
 2579 0080 02       		.uleb128 0x2
 2580 0081 0A       		.uleb128 0xa
 2581 0082 00       		.byte	0
 2582 0083 00       		.byte	0
 2583 0084 0A       		.uleb128 0xa
 2584 0085 34       		.uleb128 0x34
 2585 0086 00       		.byte	0
 2586 0087 03       		.uleb128 0x3
 2587 0088 0E       		.uleb128 0xe
 2588 0089 3A       		.uleb128 0x3a
 2589 008a 0B       		.uleb128 0xb
 2590 008b 3B       		.uleb128 0x3b
 2591 008c 0B       		.uleb128 0xb
 2592 008d 49       		.uleb128 0x49
 2593 008e 13       		.uleb128 0x13
ARM GAS  C:\Users\Colin\AppData\Local\Temp\ccMAPRQY.s 			page 70


 2594 008f 02       		.uleb128 0x2
 2595 0090 0A       		.uleb128 0xa
 2596 0091 00       		.byte	0
 2597 0092 00       		.byte	0
 2598 0093 0B       		.uleb128 0xb
 2599 0094 2E       		.uleb128 0x2e
 2600 0095 01       		.byte	0x1
 2601 0096 3F       		.uleb128 0x3f
 2602 0097 0C       		.uleb128 0xc
 2603 0098 03       		.uleb128 0x3
 2604 0099 0E       		.uleb128 0xe
 2605 009a 3A       		.uleb128 0x3a
 2606 009b 0B       		.uleb128 0xb
 2607 009c 3B       		.uleb128 0x3b
 2608 009d 05       		.uleb128 0x5
 2609 009e 27       		.uleb128 0x27
 2610 009f 0C       		.uleb128 0xc
 2611 00a0 11       		.uleb128 0x11
 2612 00a1 01       		.uleb128 0x1
 2613 00a2 12       		.uleb128 0x12
 2614 00a3 01       		.uleb128 0x1
 2615 00a4 40       		.uleb128 0x40
 2616 00a5 06       		.uleb128 0x6
 2617 00a6 9642     		.uleb128 0x2116
 2618 00a8 0C       		.uleb128 0xc
 2619 00a9 01       		.uleb128 0x1
 2620 00aa 13       		.uleb128 0x13
 2621 00ab 00       		.byte	0
 2622 00ac 00       		.byte	0
 2623 00ad 0C       		.uleb128 0xc
 2624 00ae 05       		.uleb128 0x5
 2625 00af 00       		.byte	0
 2626 00b0 03       		.uleb128 0x3
 2627 00b1 0E       		.uleb128 0xe
 2628 00b2 3A       		.uleb128 0x3a
 2629 00b3 0B       		.uleb128 0xb
 2630 00b4 3B       		.uleb128 0x3b
 2631 00b5 05       		.uleb128 0x5
 2632 00b6 49       		.uleb128 0x49
 2633 00b7 13       		.uleb128 0x13
 2634 00b8 02       		.uleb128 0x2
 2635 00b9 0A       		.uleb128 0xa
 2636 00ba 00       		.byte	0
 2637 00bb 00       		.byte	0
 2638 00bc 0D       		.uleb128 0xd
 2639 00bd 34       		.uleb128 0x34
 2640 00be 00       		.byte	0
 2641 00bf 03       		.uleb128 0x3
 2642 00c0 08       		.uleb128 0x8
 2643 00c1 3A       		.uleb128 0x3a
 2644 00c2 0B       		.uleb128 0xb
 2645 00c3 3B       		.uleb128 0x3b
 2646 00c4 05       		.uleb128 0x5
 2647 00c5 49       		.uleb128 0x49
 2648 00c6 13       		.uleb128 0x13
 2649 00c7 02       		.uleb128 0x2
 2650 00c8 0A       		.uleb128 0xa
ARM GAS  C:\Users\Colin\AppData\Local\Temp\ccMAPRQY.s 			page 71


 2651 00c9 00       		.byte	0
 2652 00ca 00       		.byte	0
 2653 00cb 0E       		.uleb128 0xe
 2654 00cc 2E       		.uleb128 0x2e
 2655 00cd 01       		.byte	0x1
 2656 00ce 3F       		.uleb128 0x3f
 2657 00cf 0C       		.uleb128 0xc
 2658 00d0 03       		.uleb128 0x3
 2659 00d1 0E       		.uleb128 0xe
 2660 00d2 3A       		.uleb128 0x3a
 2661 00d3 0B       		.uleb128 0xb
 2662 00d4 3B       		.uleb128 0x3b
 2663 00d5 05       		.uleb128 0x5
 2664 00d6 27       		.uleb128 0x27
 2665 00d7 0C       		.uleb128 0xc
 2666 00d8 11       		.uleb128 0x11
 2667 00d9 01       		.uleb128 0x1
 2668 00da 12       		.uleb128 0x12
 2669 00db 01       		.uleb128 0x1
 2670 00dc 40       		.uleb128 0x40
 2671 00dd 06       		.uleb128 0x6
 2672 00de 9742     		.uleb128 0x2117
 2673 00e0 0C       		.uleb128 0xc
 2674 00e1 01       		.uleb128 0x1
 2675 00e2 13       		.uleb128 0x13
 2676 00e3 00       		.byte	0
 2677 00e4 00       		.byte	0
 2678 00e5 0F       		.uleb128 0xf
 2679 00e6 2E       		.uleb128 0x2e
 2680 00e7 00       		.byte	0
 2681 00e8 3F       		.uleb128 0x3f
 2682 00e9 0C       		.uleb128 0xc
 2683 00ea 03       		.uleb128 0x3
 2684 00eb 0E       		.uleb128 0xe
 2685 00ec 3A       		.uleb128 0x3a
 2686 00ed 0B       		.uleb128 0xb
 2687 00ee 3B       		.uleb128 0x3b
 2688 00ef 05       		.uleb128 0x5
 2689 00f0 27       		.uleb128 0x27
 2690 00f1 0C       		.uleb128 0xc
 2691 00f2 11       		.uleb128 0x11
 2692 00f3 01       		.uleb128 0x1
 2693 00f4 12       		.uleb128 0x12
 2694 00f5 01       		.uleb128 0x1
 2695 00f6 40       		.uleb128 0x40
 2696 00f7 06       		.uleb128 0x6
 2697 00f8 9742     		.uleb128 0x2117
 2698 00fa 0C       		.uleb128 0xc
 2699 00fb 00       		.byte	0
 2700 00fc 00       		.byte	0
 2701 00fd 10       		.uleb128 0x10
 2702 00fe 2E       		.uleb128 0x2e
 2703 00ff 01       		.byte	0x1
 2704 0100 3F       		.uleb128 0x3f
 2705 0101 0C       		.uleb128 0xc
 2706 0102 03       		.uleb128 0x3
 2707 0103 0E       		.uleb128 0xe
ARM GAS  C:\Users\Colin\AppData\Local\Temp\ccMAPRQY.s 			page 72


 2708 0104 3A       		.uleb128 0x3a
 2709 0105 0B       		.uleb128 0xb
 2710 0106 3B       		.uleb128 0x3b
 2711 0107 05       		.uleb128 0x5
 2712 0108 27       		.uleb128 0x27
 2713 0109 0C       		.uleb128 0xc
 2714 010a 49       		.uleb128 0x49
 2715 010b 13       		.uleb128 0x13
 2716 010c 11       		.uleb128 0x11
 2717 010d 01       		.uleb128 0x1
 2718 010e 12       		.uleb128 0x12
 2719 010f 01       		.uleb128 0x1
 2720 0110 40       		.uleb128 0x40
 2721 0111 06       		.uleb128 0x6
 2722 0112 9742     		.uleb128 0x2117
 2723 0114 0C       		.uleb128 0xc
 2724 0115 01       		.uleb128 0x1
 2725 0116 13       		.uleb128 0x13
 2726 0117 00       		.byte	0
 2727 0118 00       		.byte	0
 2728 0119 11       		.uleb128 0x11
 2729 011a 2E       		.uleb128 0x2e
 2730 011b 00       		.byte	0
 2731 011c 3F       		.uleb128 0x3f
 2732 011d 0C       		.uleb128 0xc
 2733 011e 03       		.uleb128 0x3
 2734 011f 0E       		.uleb128 0xe
 2735 0120 3A       		.uleb128 0x3a
 2736 0121 0B       		.uleb128 0xb
 2737 0122 3B       		.uleb128 0x3b
 2738 0123 05       		.uleb128 0x5
 2739 0124 27       		.uleb128 0x27
 2740 0125 0C       		.uleb128 0xc
 2741 0126 49       		.uleb128 0x49
 2742 0127 13       		.uleb128 0x13
 2743 0128 11       		.uleb128 0x11
 2744 0129 01       		.uleb128 0x1
 2745 012a 12       		.uleb128 0x12
 2746 012b 01       		.uleb128 0x1
 2747 012c 40       		.uleb128 0x40
 2748 012d 06       		.uleb128 0x6
 2749 012e 9742     		.uleb128 0x2117
 2750 0130 0C       		.uleb128 0xc
 2751 0131 00       		.byte	0
 2752 0132 00       		.byte	0
 2753 0133 12       		.uleb128 0x12
 2754 0134 34       		.uleb128 0x34
 2755 0135 00       		.byte	0
 2756 0136 03       		.uleb128 0x3
 2757 0137 0E       		.uleb128 0xe
 2758 0138 3A       		.uleb128 0x3a
 2759 0139 0B       		.uleb128 0xb
 2760 013a 3B       		.uleb128 0x3b
 2761 013b 05       		.uleb128 0x5
 2762 013c 49       		.uleb128 0x49
 2763 013d 13       		.uleb128 0x13
 2764 013e 02       		.uleb128 0x2
ARM GAS  C:\Users\Colin\AppData\Local\Temp\ccMAPRQY.s 			page 73


 2765 013f 0A       		.uleb128 0xa
 2766 0140 00       		.byte	0
 2767 0141 00       		.byte	0
 2768 0142 13       		.uleb128 0x13
 2769 0143 0F       		.uleb128 0xf
 2770 0144 00       		.byte	0
 2771 0145 0B       		.uleb128 0xb
 2772 0146 0B       		.uleb128 0xb
 2773 0147 49       		.uleb128 0x49
 2774 0148 13       		.uleb128 0x13
 2775 0149 00       		.byte	0
 2776 014a 00       		.byte	0
 2777 014b 14       		.uleb128 0x14
 2778 014c 26       		.uleb128 0x26
 2779 014d 00       		.byte	0
 2780 014e 49       		.uleb128 0x49
 2781 014f 13       		.uleb128 0x13
 2782 0150 00       		.byte	0
 2783 0151 00       		.byte	0
 2784 0152 15       		.uleb128 0x15
 2785 0153 2E       		.uleb128 0x2e
 2786 0154 01       		.byte	0x1
 2787 0155 3F       		.uleb128 0x3f
 2788 0156 0C       		.uleb128 0xc
 2789 0157 03       		.uleb128 0x3
 2790 0158 0E       		.uleb128 0xe
 2791 0159 3A       		.uleb128 0x3a
 2792 015a 0B       		.uleb128 0xb
 2793 015b 3B       		.uleb128 0x3b
 2794 015c 05       		.uleb128 0x5
 2795 015d 27       		.uleb128 0x27
 2796 015e 0C       		.uleb128 0xc
 2797 015f 49       		.uleb128 0x49
 2798 0160 13       		.uleb128 0x13
 2799 0161 11       		.uleb128 0x11
 2800 0162 01       		.uleb128 0x1
 2801 0163 12       		.uleb128 0x12
 2802 0164 01       		.uleb128 0x1
 2803 0165 40       		.uleb128 0x40
 2804 0166 06       		.uleb128 0x6
 2805 0167 9642     		.uleb128 0x2116
 2806 0169 0C       		.uleb128 0xc
 2807 016a 01       		.uleb128 0x1
 2808 016b 13       		.uleb128 0x13
 2809 016c 00       		.byte	0
 2810 016d 00       		.byte	0
 2811 016e 16       		.uleb128 0x16
 2812 016f 34       		.uleb128 0x34
 2813 0170 00       		.byte	0
 2814 0171 03       		.uleb128 0x3
 2815 0172 0E       		.uleb128 0xe
 2816 0173 3A       		.uleb128 0x3a
 2817 0174 0B       		.uleb128 0xb
 2818 0175 3B       		.uleb128 0x3b
 2819 0176 0B       		.uleb128 0xb
 2820 0177 49       		.uleb128 0x49
 2821 0178 13       		.uleb128 0x13
ARM GAS  C:\Users\Colin\AppData\Local\Temp\ccMAPRQY.s 			page 74


 2822 0179 3F       		.uleb128 0x3f
 2823 017a 0C       		.uleb128 0xc
 2824 017b 02       		.uleb128 0x2
 2825 017c 0A       		.uleb128 0xa
 2826 017d 00       		.byte	0
 2827 017e 00       		.byte	0
 2828 017f 17       		.uleb128 0x17
 2829 0180 34       		.uleb128 0x34
 2830 0181 00       		.byte	0
 2831 0182 03       		.uleb128 0x3
 2832 0183 0E       		.uleb128 0xe
 2833 0184 3A       		.uleb128 0x3a
 2834 0185 0B       		.uleb128 0xb
 2835 0186 3B       		.uleb128 0x3b
 2836 0187 05       		.uleb128 0x5
 2837 0188 49       		.uleb128 0x49
 2838 0189 13       		.uleb128 0x13
 2839 018a 3F       		.uleb128 0x3f
 2840 018b 0C       		.uleb128 0xc
 2841 018c 3C       		.uleb128 0x3c
 2842 018d 0C       		.uleb128 0xc
 2843 018e 00       		.byte	0
 2844 018f 00       		.byte	0
 2845 0190 18       		.uleb128 0x18
 2846 0191 01       		.uleb128 0x1
 2847 0192 01       		.byte	0x1
 2848 0193 49       		.uleb128 0x49
 2849 0194 13       		.uleb128 0x13
 2850 0195 01       		.uleb128 0x1
 2851 0196 13       		.uleb128 0x13
 2852 0197 00       		.byte	0
 2853 0198 00       		.byte	0
 2854 0199 19       		.uleb128 0x19
 2855 019a 21       		.uleb128 0x21
 2856 019b 00       		.byte	0
 2857 019c 49       		.uleb128 0x49
 2858 019d 13       		.uleb128 0x13
 2859 019e 2F       		.uleb128 0x2f
 2860 019f 0B       		.uleb128 0xb
 2861 01a0 00       		.byte	0
 2862 01a1 00       		.byte	0
 2863 01a2 1A       		.uleb128 0x1a
 2864 01a3 34       		.uleb128 0x34
 2865 01a4 00       		.byte	0
 2866 01a5 03       		.uleb128 0x3
 2867 01a6 0E       		.uleb128 0xe
 2868 01a7 3A       		.uleb128 0x3a
 2869 01a8 0B       		.uleb128 0xb
 2870 01a9 3B       		.uleb128 0x3b
 2871 01aa 0B       		.uleb128 0xb
 2872 01ab 49       		.uleb128 0x49
 2873 01ac 13       		.uleb128 0x13
 2874 01ad 3F       		.uleb128 0x3f
 2875 01ae 0C       		.uleb128 0xc
 2876 01af 3C       		.uleb128 0x3c
 2877 01b0 0C       		.uleb128 0xc
 2878 01b1 00       		.byte	0
ARM GAS  C:\Users\Colin\AppData\Local\Temp\ccMAPRQY.s 			page 75


 2879 01b2 00       		.byte	0
 2880 01b3 00       		.byte	0
 2881              		.section	.debug_loc,"",%progbits
 2882              	.Ldebug_loc0:
 2883              	.LLST0:
 2884 0000 00000000 		.4byte	.LFB0
 2885 0004 02000000 		.4byte	.LCFI0
 2886 0008 0200     		.2byte	0x2
 2887 000a 7D       		.byte	0x7d
 2888 000b 00       		.sleb128 0
 2889 000c 02000000 		.4byte	.LCFI0
 2890 0010 04000000 		.4byte	.LCFI1
 2891 0014 0200     		.2byte	0x2
 2892 0016 7D       		.byte	0x7d
 2893 0017 08       		.sleb128 8
 2894 0018 04000000 		.4byte	.LCFI1
 2895 001c 06000000 		.4byte	.LCFI2
 2896 0020 0200     		.2byte	0x2
 2897 0022 7D       		.byte	0x7d
 2898 0023 10       		.sleb128 16
 2899 0024 06000000 		.4byte	.LCFI2
 2900 0028 42000000 		.4byte	.LFE0
 2901 002c 0200     		.2byte	0x2
 2902 002e 77       		.byte	0x77
 2903 002f 10       		.sleb128 16
 2904 0030 00000000 		.4byte	0
 2905 0034 00000000 		.4byte	0
 2906              	.LLST1:
 2907 0038 00000000 		.4byte	.LFB1
 2908 003c 02000000 		.4byte	.LCFI3
 2909 0040 0200     		.2byte	0x2
 2910 0042 7D       		.byte	0x7d
 2911 0043 00       		.sleb128 0
 2912 0044 02000000 		.4byte	.LCFI3
 2913 0048 04000000 		.4byte	.LCFI4
 2914 004c 0200     		.2byte	0x2
 2915 004e 7D       		.byte	0x7d
 2916 004f 08       		.sleb128 8
 2917 0050 04000000 		.4byte	.LCFI4
 2918 0054 06000000 		.4byte	.LCFI5
 2919 0058 0200     		.2byte	0x2
 2920 005a 7D       		.byte	0x7d
 2921 005b 10       		.sleb128 16
 2922 005c 06000000 		.4byte	.LCFI5
 2923 0060 36020000 		.4byte	.LFE1
 2924 0064 0200     		.2byte	0x2
 2925 0066 77       		.byte	0x77
 2926 0067 10       		.sleb128 16
 2927 0068 00000000 		.4byte	0
 2928 006c 00000000 		.4byte	0
 2929              	.LLST2:
 2930 0070 00000000 		.4byte	.LFB2
 2931 0074 02000000 		.4byte	.LCFI6
 2932 0078 0200     		.2byte	0x2
 2933 007a 7D       		.byte	0x7d
 2934 007b 00       		.sleb128 0
 2935 007c 02000000 		.4byte	.LCFI6
ARM GAS  C:\Users\Colin\AppData\Local\Temp\ccMAPRQY.s 			page 76


 2936 0080 04000000 		.4byte	.LCFI7
 2937 0084 0200     		.2byte	0x2
 2938 0086 7D       		.byte	0x7d
 2939 0087 08       		.sleb128 8
 2940 0088 04000000 		.4byte	.LCFI7
 2941 008c 06000000 		.4byte	.LCFI8
 2942 0090 0200     		.2byte	0x2
 2943 0092 7D       		.byte	0x7d
 2944 0093 18       		.sleb128 24
 2945 0094 06000000 		.4byte	.LCFI8
 2946 0098 5E010000 		.4byte	.LFE2
 2947 009c 0200     		.2byte	0x2
 2948 009e 77       		.byte	0x77
 2949 009f 18       		.sleb128 24
 2950 00a0 00000000 		.4byte	0
 2951 00a4 00000000 		.4byte	0
 2952              	.LLST3:
 2953 00a8 00000000 		.4byte	.LFB3
 2954 00ac 02000000 		.4byte	.LCFI9
 2955 00b0 0200     		.2byte	0x2
 2956 00b2 7D       		.byte	0x7d
 2957 00b3 00       		.sleb128 0
 2958 00b4 02000000 		.4byte	.LCFI9
 2959 00b8 04000000 		.4byte	.LCFI10
 2960 00bc 0200     		.2byte	0x2
 2961 00be 7D       		.byte	0x7d
 2962 00bf 04       		.sleb128 4
 2963 00c0 04000000 		.4byte	.LCFI10
 2964 00c4 06000000 		.4byte	.LCFI11
 2965 00c8 0200     		.2byte	0x2
 2966 00ca 7D       		.byte	0x7d
 2967 00cb 10       		.sleb128 16
 2968 00cc 06000000 		.4byte	.LCFI11
 2969 00d0 B4000000 		.4byte	.LFE3
 2970 00d4 0200     		.2byte	0x2
 2971 00d6 77       		.byte	0x77
 2972 00d7 10       		.sleb128 16
 2973 00d8 00000000 		.4byte	0
 2974 00dc 00000000 		.4byte	0
 2975              	.LLST4:
 2976 00e0 00000000 		.4byte	.LFB4
 2977 00e4 02000000 		.4byte	.LCFI12
 2978 00e8 0200     		.2byte	0x2
 2979 00ea 7D       		.byte	0x7d
 2980 00eb 00       		.sleb128 0
 2981 00ec 02000000 		.4byte	.LCFI12
 2982 00f0 04000000 		.4byte	.LCFI13
 2983 00f4 0200     		.2byte	0x2
 2984 00f6 7D       		.byte	0x7d
 2985 00f7 04       		.sleb128 4
 2986 00f8 04000000 		.4byte	.LCFI13
 2987 00fc 14010000 		.4byte	.LFE4
 2988 0100 0200     		.2byte	0x2
 2989 0102 77       		.byte	0x77
 2990 0103 04       		.sleb128 4
 2991 0104 00000000 		.4byte	0
 2992 0108 00000000 		.4byte	0
ARM GAS  C:\Users\Colin\AppData\Local\Temp\ccMAPRQY.s 			page 77


 2993              	.LLST5:
 2994 010c 00000000 		.4byte	.LFB5
 2995 0110 02000000 		.4byte	.LCFI14
 2996 0114 0200     		.2byte	0x2
 2997 0116 7D       		.byte	0x7d
 2998 0117 00       		.sleb128 0
 2999 0118 02000000 		.4byte	.LCFI14
 3000 011c 04000000 		.4byte	.LCFI15
 3001 0120 0200     		.2byte	0x2
 3002 0122 7D       		.byte	0x7d
 3003 0123 04       		.sleb128 4
 3004 0124 04000000 		.4byte	.LCFI15
 3005 0128 06000000 		.4byte	.LCFI16
 3006 012c 0200     		.2byte	0x2
 3007 012e 7D       		.byte	0x7d
 3008 012f 10       		.sleb128 16
 3009 0130 06000000 		.4byte	.LCFI16
 3010 0134 3C000000 		.4byte	.LFE5
 3011 0138 0200     		.2byte	0x2
 3012 013a 77       		.byte	0x77
 3013 013b 10       		.sleb128 16
 3014 013c 00000000 		.4byte	0
 3015 0140 00000000 		.4byte	0
 3016              	.LLST6:
 3017 0144 00000000 		.4byte	.LFB6
 3018 0148 02000000 		.4byte	.LCFI17
 3019 014c 0200     		.2byte	0x2
 3020 014e 7D       		.byte	0x7d
 3021 014f 00       		.sleb128 0
 3022 0150 02000000 		.4byte	.LCFI17
 3023 0154 04000000 		.4byte	.LCFI18
 3024 0158 0200     		.2byte	0x2
 3025 015a 7D       		.byte	0x7d
 3026 015b 04       		.sleb128 4
 3027 015c 04000000 		.4byte	.LCFI18
 3028 0160 18000000 		.4byte	.LFE6
 3029 0164 0200     		.2byte	0x2
 3030 0166 77       		.byte	0x77
 3031 0167 04       		.sleb128 4
 3032 0168 00000000 		.4byte	0
 3033 016c 00000000 		.4byte	0
 3034              	.LLST7:
 3035 0170 00000000 		.4byte	.LFB7
 3036 0174 02000000 		.4byte	.LCFI19
 3037 0178 0200     		.2byte	0x2
 3038 017a 7D       		.byte	0x7d
 3039 017b 00       		.sleb128 0
 3040 017c 02000000 		.4byte	.LCFI19
 3041 0180 04000000 		.4byte	.LCFI20
 3042 0184 0200     		.2byte	0x2
 3043 0186 7D       		.byte	0x7d
 3044 0187 04       		.sleb128 4
 3045 0188 04000000 		.4byte	.LCFI20
 3046 018c 06000000 		.4byte	.LCFI21
 3047 0190 0200     		.2byte	0x2
 3048 0192 7D       		.byte	0x7d
 3049 0193 10       		.sleb128 16
ARM GAS  C:\Users\Colin\AppData\Local\Temp\ccMAPRQY.s 			page 78


 3050 0194 06000000 		.4byte	.LCFI21
 3051 0198 44000000 		.4byte	.LFE7
 3052 019c 0200     		.2byte	0x2
 3053 019e 77       		.byte	0x77
 3054 019f 10       		.sleb128 16
 3055 01a0 00000000 		.4byte	0
 3056 01a4 00000000 		.4byte	0
 3057              	.LLST8:
 3058 01a8 00000000 		.4byte	.LFB8
 3059 01ac 02000000 		.4byte	.LCFI22
 3060 01b0 0200     		.2byte	0x2
 3061 01b2 7D       		.byte	0x7d
 3062 01b3 00       		.sleb128 0
 3063 01b4 02000000 		.4byte	.LCFI22
 3064 01b8 04000000 		.4byte	.LCFI23
 3065 01bc 0200     		.2byte	0x2
 3066 01be 7D       		.byte	0x7d
 3067 01bf 04       		.sleb128 4
 3068 01c0 04000000 		.4byte	.LCFI23
 3069 01c4 06000000 		.4byte	.LCFI24
 3070 01c8 0200     		.2byte	0x2
 3071 01ca 7D       		.byte	0x7d
 3072 01cb 10       		.sleb128 16
 3073 01cc 06000000 		.4byte	.LCFI24
 3074 01d0 24000000 		.4byte	.LFE8
 3075 01d4 0200     		.2byte	0x2
 3076 01d6 77       		.byte	0x77
 3077 01d7 10       		.sleb128 16
 3078 01d8 00000000 		.4byte	0
 3079 01dc 00000000 		.4byte	0
 3080              	.LLST9:
 3081 01e0 00000000 		.4byte	.LFB9
 3082 01e4 02000000 		.4byte	.LCFI25
 3083 01e8 0200     		.2byte	0x2
 3084 01ea 7D       		.byte	0x7d
 3085 01eb 00       		.sleb128 0
 3086 01ec 02000000 		.4byte	.LCFI25
 3087 01f0 04000000 		.4byte	.LCFI26
 3088 01f4 0200     		.2byte	0x2
 3089 01f6 7D       		.byte	0x7d
 3090 01f7 04       		.sleb128 4
 3091 01f8 04000000 		.4byte	.LCFI26
 3092 01fc 06000000 		.4byte	.LCFI27
 3093 0200 0200     		.2byte	0x2
 3094 0202 7D       		.byte	0x7d
 3095 0203 10       		.sleb128 16
 3096 0204 06000000 		.4byte	.LCFI27
 3097 0208 32000000 		.4byte	.LFE9
 3098 020c 0200     		.2byte	0x2
 3099 020e 77       		.byte	0x77
 3100 020f 10       		.sleb128 16
 3101 0210 00000000 		.4byte	0
 3102 0214 00000000 		.4byte	0
 3103              	.LLST10:
 3104 0218 00000000 		.4byte	.LFB10
 3105 021c 02000000 		.4byte	.LCFI28
 3106 0220 0200     		.2byte	0x2
ARM GAS  C:\Users\Colin\AppData\Local\Temp\ccMAPRQY.s 			page 79


 3107 0222 7D       		.byte	0x7d
 3108 0223 00       		.sleb128 0
 3109 0224 02000000 		.4byte	.LCFI28
 3110 0228 04000000 		.4byte	.LCFI29
 3111 022c 0200     		.2byte	0x2
 3112 022e 7D       		.byte	0x7d
 3113 022f 04       		.sleb128 4
 3114 0230 04000000 		.4byte	.LCFI29
 3115 0234 06000000 		.4byte	.LCFI30
 3116 0238 0200     		.2byte	0x2
 3117 023a 7D       		.byte	0x7d
 3118 023b 18       		.sleb128 24
 3119 023c 06000000 		.4byte	.LCFI30
 3120 0240 74000000 		.4byte	.LFE10
 3121 0244 0200     		.2byte	0x2
 3122 0246 77       		.byte	0x77
 3123 0247 18       		.sleb128 24
 3124 0248 00000000 		.4byte	0
 3125 024c 00000000 		.4byte	0
 3126              	.LLST11:
 3127 0250 00000000 		.4byte	.LFB11
 3128 0254 02000000 		.4byte	.LCFI31
 3129 0258 0200     		.2byte	0x2
 3130 025a 7D       		.byte	0x7d
 3131 025b 00       		.sleb128 0
 3132 025c 02000000 		.4byte	.LCFI31
 3133 0260 04000000 		.4byte	.LCFI32
 3134 0264 0200     		.2byte	0x2
 3135 0266 7D       		.byte	0x7d
 3136 0267 08       		.sleb128 8
 3137 0268 04000000 		.4byte	.LCFI32
 3138 026c 06000000 		.4byte	.LCFI33
 3139 0270 0200     		.2byte	0x2
 3140 0272 7D       		.byte	0x7d
 3141 0273 18       		.sleb128 24
 3142 0274 06000000 		.4byte	.LCFI33
 3143 0278 4E010000 		.4byte	.LFE11
 3144 027c 0200     		.2byte	0x2
 3145 027e 77       		.byte	0x77
 3146 027f 18       		.sleb128 24
 3147 0280 00000000 		.4byte	0
 3148 0284 00000000 		.4byte	0
 3149              	.LLST12:
 3150 0288 00000000 		.4byte	.LFB12
 3151 028c 02000000 		.4byte	.LCFI34
 3152 0290 0200     		.2byte	0x2
 3153 0292 7D       		.byte	0x7d
 3154 0293 00       		.sleb128 0
 3155 0294 02000000 		.4byte	.LCFI34
 3156 0298 04000000 		.4byte	.LCFI35
 3157 029c 0200     		.2byte	0x2
 3158 029e 7D       		.byte	0x7d
 3159 029f 08       		.sleb128 8
 3160 02a0 04000000 		.4byte	.LCFI35
 3161 02a4 06000000 		.4byte	.LCFI36
 3162 02a8 0200     		.2byte	0x2
 3163 02aa 7D       		.byte	0x7d
ARM GAS  C:\Users\Colin\AppData\Local\Temp\ccMAPRQY.s 			page 80


 3164 02ab 20       		.sleb128 32
 3165 02ac 06000000 		.4byte	.LCFI36
 3166 02b0 98000000 		.4byte	.LFE12
 3167 02b4 0200     		.2byte	0x2
 3168 02b6 77       		.byte	0x77
 3169 02b7 20       		.sleb128 32
 3170 02b8 00000000 		.4byte	0
 3171 02bc 00000000 		.4byte	0
 3172              	.LLST13:
 3173 02c0 00000000 		.4byte	.LFB13
 3174 02c4 02000000 		.4byte	.LCFI37
 3175 02c8 0200     		.2byte	0x2
 3176 02ca 7D       		.byte	0x7d
 3177 02cb 00       		.sleb128 0
 3178 02cc 02000000 		.4byte	.LCFI37
 3179 02d0 04000000 		.4byte	.LCFI38
 3180 02d4 0200     		.2byte	0x2
 3181 02d6 7D       		.byte	0x7d
 3182 02d7 04       		.sleb128 4
 3183 02d8 04000000 		.4byte	.LCFI38
 3184 02dc 06000000 		.4byte	.LCFI39
 3185 02e0 0200     		.2byte	0x2
 3186 02e2 7D       		.byte	0x7d
 3187 02e3 18       		.sleb128 24
 3188 02e4 06000000 		.4byte	.LCFI39
 3189 02e8 78000000 		.4byte	.LFE13
 3190 02ec 0200     		.2byte	0x2
 3191 02ee 77       		.byte	0x77
 3192 02ef 18       		.sleb128 24
 3193 02f0 00000000 		.4byte	0
 3194 02f4 00000000 		.4byte	0
 3195              	.LLST14:
 3196 02f8 00000000 		.4byte	.LFB14
 3197 02fc 02000000 		.4byte	.LCFI40
 3198 0300 0200     		.2byte	0x2
 3199 0302 7D       		.byte	0x7d
 3200 0303 00       		.sleb128 0
 3201 0304 02000000 		.4byte	.LCFI40
 3202 0308 04000000 		.4byte	.LCFI41
 3203 030c 0200     		.2byte	0x2
 3204 030e 7D       		.byte	0x7d
 3205 030f 04       		.sleb128 4
 3206 0310 04000000 		.4byte	.LCFI41
 3207 0314 06000000 		.4byte	.LCFI42
 3208 0318 0200     		.2byte	0x2
 3209 031a 7D       		.byte	0x7d
 3210 031b 18       		.sleb128 24
 3211 031c 06000000 		.4byte	.LCFI42
 3212 0320 40000000 		.4byte	.LFE14
 3213 0324 0200     		.2byte	0x2
 3214 0326 77       		.byte	0x77
 3215 0327 18       		.sleb128 24
 3216 0328 00000000 		.4byte	0
 3217 032c 00000000 		.4byte	0
 3218              	.LLST15:
 3219 0330 00000000 		.4byte	.LFB15
 3220 0334 02000000 		.4byte	.LCFI43
ARM GAS  C:\Users\Colin\AppData\Local\Temp\ccMAPRQY.s 			page 81


 3221 0338 0200     		.2byte	0x2
 3222 033a 7D       		.byte	0x7d
 3223 033b 00       		.sleb128 0
 3224 033c 02000000 		.4byte	.LCFI43
 3225 0340 04000000 		.4byte	.LCFI44
 3226 0344 0200     		.2byte	0x2
 3227 0346 7D       		.byte	0x7d
 3228 0347 04       		.sleb128 4
 3229 0348 04000000 		.4byte	.LCFI44
 3230 034c 06000000 		.4byte	.LCFI45
 3231 0350 0200     		.2byte	0x2
 3232 0352 7D       		.byte	0x7d
 3233 0353 10       		.sleb128 16
 3234 0354 06000000 		.4byte	.LCFI45
 3235 0358 20000000 		.4byte	.LFE15
 3236 035c 0200     		.2byte	0x2
 3237 035e 77       		.byte	0x77
 3238 035f 10       		.sleb128 16
 3239 0360 00000000 		.4byte	0
 3240 0364 00000000 		.4byte	0
 3241              	.LLST16:
 3242 0368 00000000 		.4byte	.LFB16
 3243 036c 02000000 		.4byte	.LCFI46
 3244 0370 0200     		.2byte	0x2
 3245 0372 7D       		.byte	0x7d
 3246 0373 00       		.sleb128 0
 3247 0374 02000000 		.4byte	.LCFI46
 3248 0378 04000000 		.4byte	.LCFI47
 3249 037c 0200     		.2byte	0x2
 3250 037e 7D       		.byte	0x7d
 3251 037f 04       		.sleb128 4
 3252 0380 04000000 		.4byte	.LCFI47
 3253 0384 06000000 		.4byte	.LCFI48
 3254 0388 0200     		.2byte	0x2
 3255 038a 7D       		.byte	0x7d
 3256 038b 18       		.sleb128 24
 3257 038c 06000000 		.4byte	.LCFI48
 3258 0390 4E000000 		.4byte	.LFE16
 3259 0394 0200     		.2byte	0x2
 3260 0396 77       		.byte	0x77
 3261 0397 18       		.sleb128 24
 3262 0398 00000000 		.4byte	0
 3263 039c 00000000 		.4byte	0
 3264              	.LLST17:
 3265 03a0 00000000 		.4byte	.LFB17
 3266 03a4 02000000 		.4byte	.LCFI49
 3267 03a8 0200     		.2byte	0x2
 3268 03aa 7D       		.byte	0x7d
 3269 03ab 00       		.sleb128 0
 3270 03ac 02000000 		.4byte	.LCFI49
 3271 03b0 04000000 		.4byte	.LCFI50
 3272 03b4 0200     		.2byte	0x2
 3273 03b6 7D       		.byte	0x7d
 3274 03b7 04       		.sleb128 4
 3275 03b8 04000000 		.4byte	.LCFI50
 3276 03bc 06000000 		.4byte	.LCFI51
 3277 03c0 0200     		.2byte	0x2
ARM GAS  C:\Users\Colin\AppData\Local\Temp\ccMAPRQY.s 			page 82


 3278 03c2 7D       		.byte	0x7d
 3279 03c3 10       		.sleb128 16
 3280 03c4 06000000 		.4byte	.LCFI51
 3281 03c8 54000000 		.4byte	.LFE17
 3282 03cc 0200     		.2byte	0x2
 3283 03ce 77       		.byte	0x77
 3284 03cf 10       		.sleb128 16
 3285 03d0 00000000 		.4byte	0
 3286 03d4 00000000 		.4byte	0
 3287              	.LLST18:
 3288 03d8 00000000 		.4byte	.LFB18
 3289 03dc 02000000 		.4byte	.LCFI52
 3290 03e0 0200     		.2byte	0x2
 3291 03e2 7D       		.byte	0x7d
 3292 03e3 00       		.sleb128 0
 3293 03e4 02000000 		.4byte	.LCFI52
 3294 03e8 04000000 		.4byte	.LCFI53
 3295 03ec 0200     		.2byte	0x2
 3296 03ee 7D       		.byte	0x7d
 3297 03ef 04       		.sleb128 4
 3298 03f0 04000000 		.4byte	.LCFI53
 3299 03f4 06000000 		.4byte	.LCFI54
 3300 03f8 0200     		.2byte	0x2
 3301 03fa 7D       		.byte	0x7d
 3302 03fb 10       		.sleb128 16
 3303 03fc 06000000 		.4byte	.LCFI54
 3304 0400 34000000 		.4byte	.LFE18
 3305 0404 0200     		.2byte	0x2
 3306 0406 77       		.byte	0x77
 3307 0407 10       		.sleb128 16
 3308 0408 00000000 		.4byte	0
 3309 040c 00000000 		.4byte	0
 3310              		.section	.debug_aranges,"",%progbits
 3311 0000 AC000000 		.4byte	0xac
 3312 0004 0200     		.2byte	0x2
 3313 0006 00000000 		.4byte	.Ldebug_info0
 3314 000a 04       		.byte	0x4
 3315 000b 00       		.byte	0
 3316 000c 0000     		.2byte	0
 3317 000e 0000     		.2byte	0
 3318 0010 00000000 		.4byte	.LFB0
 3319 0014 42000000 		.4byte	.LFE0-.LFB0
 3320 0018 00000000 		.4byte	.LFB1
 3321 001c 36020000 		.4byte	.LFE1-.LFB1
 3322 0020 00000000 		.4byte	.LFB2
 3323 0024 5E010000 		.4byte	.LFE2-.LFB2
 3324 0028 00000000 		.4byte	.LFB3
 3325 002c B4000000 		.4byte	.LFE3-.LFB3
 3326 0030 00000000 		.4byte	.LFB4
 3327 0034 14010000 		.4byte	.LFE4-.LFB4
 3328 0038 00000000 		.4byte	.LFB5
 3329 003c 3C000000 		.4byte	.LFE5-.LFB5
 3330 0040 00000000 		.4byte	.LFB6
 3331 0044 18000000 		.4byte	.LFE6-.LFB6
 3332 0048 00000000 		.4byte	.LFB7
 3333 004c 44000000 		.4byte	.LFE7-.LFB7
 3334 0050 00000000 		.4byte	.LFB8
ARM GAS  C:\Users\Colin\AppData\Local\Temp\ccMAPRQY.s 			page 83


 3335 0054 24000000 		.4byte	.LFE8-.LFB8
 3336 0058 00000000 		.4byte	.LFB9
 3337 005c 32000000 		.4byte	.LFE9-.LFB9
 3338 0060 00000000 		.4byte	.LFB10
 3339 0064 74000000 		.4byte	.LFE10-.LFB10
 3340 0068 00000000 		.4byte	.LFB11
 3341 006c 4E010000 		.4byte	.LFE11-.LFB11
 3342 0070 00000000 		.4byte	.LFB12
 3343 0074 98000000 		.4byte	.LFE12-.LFB12
 3344 0078 00000000 		.4byte	.LFB13
 3345 007c 78000000 		.4byte	.LFE13-.LFB13
 3346 0080 00000000 		.4byte	.LFB14
 3347 0084 40000000 		.4byte	.LFE14-.LFB14
 3348 0088 00000000 		.4byte	.LFB15
 3349 008c 20000000 		.4byte	.LFE15-.LFB15
 3350 0090 00000000 		.4byte	.LFB16
 3351 0094 4E000000 		.4byte	.LFE16-.LFB16
 3352 0098 00000000 		.4byte	.LFB17
 3353 009c 54000000 		.4byte	.LFE17-.LFB17
 3354 00a0 00000000 		.4byte	.LFB18
 3355 00a4 34000000 		.4byte	.LFE18-.LFB18
 3356 00a8 00000000 		.4byte	0
 3357 00ac 00000000 		.4byte	0
 3358              		.section	.debug_ranges,"",%progbits
 3359              	.Ldebug_ranges0:
 3360 0000 00000000 		.4byte	.LFB0
 3361 0004 42000000 		.4byte	.LFE0
 3362 0008 00000000 		.4byte	.LFB1
 3363 000c 36020000 		.4byte	.LFE1
 3364 0010 00000000 		.4byte	.LFB2
 3365 0014 5E010000 		.4byte	.LFE2
 3366 0018 00000000 		.4byte	.LFB3
 3367 001c B4000000 		.4byte	.LFE3
 3368 0020 00000000 		.4byte	.LFB4
 3369 0024 14010000 		.4byte	.LFE4
 3370 0028 00000000 		.4byte	.LFB5
 3371 002c 3C000000 		.4byte	.LFE5
 3372 0030 00000000 		.4byte	.LFB6
 3373 0034 18000000 		.4byte	.LFE6
 3374 0038 00000000 		.4byte	.LFB7
 3375 003c 44000000 		.4byte	.LFE7
 3376 0040 00000000 		.4byte	.LFB8
 3377 0044 24000000 		.4byte	.LFE8
 3378 0048 00000000 		.4byte	.LFB9
 3379 004c 32000000 		.4byte	.LFE9
 3380 0050 00000000 		.4byte	.LFB10
 3381 0054 74000000 		.4byte	.LFE10
 3382 0058 00000000 		.4byte	.LFB11
 3383 005c 4E010000 		.4byte	.LFE11
 3384 0060 00000000 		.4byte	.LFB12
 3385 0064 98000000 		.4byte	.LFE12
 3386 0068 00000000 		.4byte	.LFB13
 3387 006c 78000000 		.4byte	.LFE13
 3388 0070 00000000 		.4byte	.LFB14
 3389 0074 40000000 		.4byte	.LFE14
 3390 0078 00000000 		.4byte	.LFB15
 3391 007c 20000000 		.4byte	.LFE15
ARM GAS  C:\Users\Colin\AppData\Local\Temp\ccMAPRQY.s 			page 84


 3392 0080 00000000 		.4byte	.LFB16
 3393 0084 4E000000 		.4byte	.LFE16
 3394 0088 00000000 		.4byte	.LFB17
 3395 008c 54000000 		.4byte	.LFE17
 3396 0090 00000000 		.4byte	.LFB18
 3397 0094 34000000 		.4byte	.LFE18
 3398 0098 00000000 		.4byte	0
 3399 009c 00000000 		.4byte	0
 3400              		.section	.debug_line,"",%progbits
 3401              	.Ldebug_line0:
 3402 0000 C6020000 		.section	.debug_str,"MS",%progbits,1
 3402      02006A00 
 3402      00000201 
 3402      FB0E0D00 
 3402      01010101 
 3403              	.LASF10:
 3404 0000 75696E74 		.ascii	"uint16\000"
 3404      313600
 3405              	.LASF64:
 3406 0007 55534255 		.ascii	"USBUART_1_interfaceSetting\000"
 3406      4152545F 
 3406      315F696E 
 3406      74657266 
 3406      61636553 
 3407              	.LASF57:
 3408 0022 55534255 		.ascii	"USBUART_1_device\000"
 3408      4152545F 
 3408      315F6465 
 3408      76696365 
 3408      00
 3409              	.LASF31:
 3410 0033 55534255 		.ascii	"USBUART_1_Init\000"
 3410      4152545F 
 3410      315F496E 
 3410      697400
 3411              	.LASF37:
 3412 0042 55534255 		.ascii	"USBUART_1_GetInterfaceSetting\000"
 3412      4152545F 
 3412      315F4765 
 3412      74496E74 
 3412      65726661 
 3413              	.LASF7:
 3414 0060 6C6F6E67 		.ascii	"long long unsigned int\000"
 3414      206C6F6E 
 3414      6720756E 
 3414      7369676E 
 3414      65642069 
 3415              	.LASF22:
 3416 0077 61646472 		.ascii	"addr\000"
 3416      00
 3417              	.LASF38:
 3418 007c 696E7465 		.ascii	"interfaceNumber\000"
 3418      72666163 
 3418      654E756D 
 3418      62657200 
 3419              	.LASF40:
 3420 008c 65704E75 		.ascii	"epNumber\000"
ARM GAS  C:\Users\Colin\AppData\Local\Temp\ccMAPRQY.s 			page 85


 3420      6D626572 
 3420      00
 3421              	.LASF28:
 3422 0095 64657669 		.ascii	"device\000"
 3422      636500
 3423              	.LASF6:
 3424 009c 6C6F6E67 		.ascii	"long long int\000"
 3424      206C6F6E 
 3424      6720696E 
 3424      7400
 3425              	.LASF0:
 3426 00aa 7369676E 		.ascii	"signed char\000"
 3426      65642063 
 3426      68617200 
 3427              	.LASF48:
 3428 00b6 55534255 		.ascii	"USBUART_1_EnableOutEP\000"
 3428      4152545F 
 3428      315F456E 
 3428      61626C65 
 3428      4F757445 
 3429              	.LASF4:
 3430 00cc 6C6F6E67 		.ascii	"long int\000"
 3430      20696E74 
 3430      00
 3431              	.LASF9:
 3432 00d5 75696E74 		.ascii	"uint8\000"
 3432      3800
 3433              	.LASF21:
 3434 00db 6570546F 		.ascii	"epToggle\000"
 3434      67676C65 
 3434      00
 3435              	.LASF35:
 3436 00e4 55534255 		.ascii	"USBUART_1_CheckActivity\000"
 3436      4152545F 
 3436      315F4368 
 3436      65636B41 
 3436      63746976 
 3437              	.LASF13:
 3438 00fc 646F7562 		.ascii	"double\000"
 3438      6C6500
 3439              	.LASF54:
 3440 0103 706F7765 		.ascii	"powerStatus\000"
 3440      72537461 
 3440      74757300 
 3441              	.LASF60:
 3442 010f 55534255 		.ascii	"USBUART_1_configurationChanged\000"
 3442      4152545F 
 3442      315F636F 
 3442      6E666967 
 3442      75726174 
 3443              	.LASF11:
 3444 012e 75696E74 		.ascii	"uint32\000"
 3444      333200
 3445              	.LASF44:
 3446 0135 70446174 		.ascii	"pData\000"
 3446      6100
 3447              	.LASF49:
ARM GAS  C:\Users\Colin\AppData\Local\Temp\ccMAPRQY.s 			page 86


 3448 013b 55534255 		.ascii	"USBUART_1_DisableOutEP\000"
 3448      4152545F 
 3448      315F4469 
 3448      7361626C 
 3448      654F7574 
 3449              	.LASF23:
 3450 0152 65704D6F 		.ascii	"epMode\000"
 3450      646500
 3451              	.LASF39:
 3452 0159 55534255 		.ascii	"USBUART_1_GetEPState\000"
 3452      4152545F 
 3452      315F4765 
 3452      74455053 
 3452      74617465 
 3453              	.LASF27:
 3454 016e 545F5553 		.ascii	"T_USBUART_1_EP_CTL_BLOCK\000"
 3454      42554152 
 3454      545F315F 
 3454      45505F43 
 3454      544C5F42 
 3455              	.LASF61:
 3456 0187 55534255 		.ascii	"USBUART_1_deviceStatus\000"
 3456      4152545F 
 3456      315F6465 
 3456      76696365 
 3456      53746174 
 3457              	.LASF8:
 3458 019e 756E7369 		.ascii	"unsigned int\000"
 3458      676E6564 
 3458      20696E74 
 3458      00
 3459              	.LASF70:
 3460 01ab 433A5C55 		.ascii	"C:\\Users\\Colin\\Dropbox\\Grad School\\Spring 2014"
 3460      73657273 
 3460      5C436F6C 
 3460      696E5C44 
 3460      726F7062 
 3461 01d9 5C4D4520 		.ascii	"\\ME 235\\Code\\USB_UART01\\Final_PSoC_Code\\USB_UA"
 3461      3233355C 
 3461      436F6465 
 3461      5C555342 
 3461      5F554152 
 3462 0207 52543031 		.ascii	"RT01-000.Bundle01\\USB_UART01.cydsn\000"
 3462      2D303030 
 3462      2E42756E 
 3462      646C6530 
 3462      315C5553 
 3463              	.LASF5:
 3464 022a 6C6F6E67 		.ascii	"long unsigned int\000"
 3464      20756E73 
 3464      69676E65 
 3464      6420696E 
 3464      7400
 3465              	.LASF56:
 3466 023c 55534255 		.ascii	"USBUART_1_initVar\000"
 3466      4152545F 
 3466      315F696E 
ARM GAS  C:\Users\Colin\AppData\Local\Temp\ccMAPRQY.s 			page 87


 3466      69745661 
 3466      7200
 3467              	.LASF53:
 3468 024e 55534255 		.ascii	"USBUART_1_SetPowerStatus\000"
 3468      4152545F 
 3468      315F5365 
 3468      74506F77 
 3468      65725374 
 3469              	.LASF3:
 3470 0267 73686F72 		.ascii	"short unsigned int\000"
 3470      7420756E 
 3470      7369676E 
 3470      65642069 
 3470      6E7400
 3471              	.LASF46:
 3472 027a 55534255 		.ascii	"USBUART_1_ReadOutEP\000"
 3472      4152545F 
 3472      315F5265 
 3472      61644F75 
 3472      74455000 
 3473              	.LASF41:
 3474 028e 55534255 		.ascii	"USBUART_1_GetEPCount\000"
 3474      4152545F 
 3474      315F4765 
 3474      74455043 
 3474      6F756E74 
 3475              	.LASF65:
 3476 02a3 55534255 		.ascii	"USBUART_1_deviceAddress\000"
 3476      4152545F 
 3476      315F6465 
 3476      76696365 
 3476      41646472 
 3477              	.LASF69:
 3478 02bb 2E5C4765 		.ascii	".\\Generated_Source\\PSoC5\\USBUART_1.c\000"
 3478      6E657261 
 3478      7465645F 
 3478      536F7572 
 3478      63655C50 
 3479              	.LASF26:
 3480 02e0 696E7465 		.ascii	"interface\000"
 3480      72666163 
 3480      6500
 3481              	.LASF16:
 3482 02ea 72656733 		.ascii	"reg32\000"
 3482      3200
 3483              	.LASF20:
 3484 02f0 68774570 		.ascii	"hwEpState\000"
 3484      53746174 
 3484      6500
 3485              	.LASF17:
 3486 02fa 73697A65 		.ascii	"sizetype\000"
 3486      74797065 
 3486      00
 3487              	.LASF62:
 3488 0303 55534255 		.ascii	"USBUART_1_hidProtocol\000"
 3488      4152545F 
 3488      315F6869 
ARM GAS  C:\Users\Colin\AppData\Local\Temp\ccMAPRQY.s 			page 88


 3488      6450726F 
 3488      746F636F 
 3489              	.LASF18:
 3490 0319 61747472 		.ascii	"attrib\000"
 3490      696200
 3491              	.LASF59:
 3492 0320 55534255 		.ascii	"USBUART_1_configuration\000"
 3492      4152545F 
 3492      315F636F 
 3492      6E666967 
 3492      75726174 
 3493              	.LASF34:
 3494 0338 55534255 		.ascii	"USBUART_1_ReInitComponent\000"
 3494      4152545F 
 3494      315F5265 
 3494      496E6974 
 3494      436F6D70 
 3495              	.LASF12:
 3496 0352 666C6F61 		.ascii	"float\000"
 3496      7400
 3497              	.LASF19:
 3498 0358 61706945 		.ascii	"apiEpState\000"
 3498      70537461 
 3498      746500
 3499              	.LASF30:
 3500 0363 55534255 		.ascii	"USBUART_1_Start\000"
 3500      4152545F 
 3500      315F5374 
 3500      61727400 
 3501              	.LASF55:
 3502 0373 55534255 		.ascii	"USBUART_1_RWUEnabled\000"
 3502      4152545F 
 3502      315F5257 
 3502      55456E61 
 3502      626C6564 
 3503              	.LASF68:
 3504 0388 474E5520 		.ascii	"GNU C 4.7.3 20130312 (release) [ARM/embedded-4_7-br"
 3504      4320342E 
 3504      372E3320 
 3504      32303133 
 3504      30333132 
 3505 03bb 616E6368 		.ascii	"anch revision 196615]\000"
 3505      20726576 
 3505      6973696F 
 3505      6E203139 
 3505      36363135 
 3506              	.LASF15:
 3507 03d1 72656738 		.ascii	"reg8\000"
 3507      00
 3508              	.LASF1:
 3509 03d6 756E7369 		.ascii	"unsigned char\000"
 3509      676E6564 
 3509      20636861 
 3509      7200
 3510              	.LASF71:
 3511 03e4 55534255 		.ascii	"USBUART_1_Stop\000"
 3511      4152545F 
ARM GAS  C:\Users\Colin\AppData\Local\Temp\ccMAPRQY.s 			page 89


 3511      315F5374 
 3511      6F7000
 3512              	.LASF2:
 3513 03f3 73686F72 		.ascii	"short int\000"
 3513      7420696E 
 3513      7400
 3514              	.LASF51:
 3515 03fd 62537461 		.ascii	"bState\000"
 3515      746500
 3516              	.LASF45:
 3517 0404 6C656E67 		.ascii	"length\000"
 3517      746800
 3518              	.LASF14:
 3519 040b 63686172 		.ascii	"char\000"
 3519      00
 3520              	.LASF29:
 3521 0410 6D6F6465 		.ascii	"mode\000"
 3521      00
 3522              	.LASF25:
 3523 0415 62756666 		.ascii	"bufferSize\000"
 3523      65725369 
 3523      7A6500
 3524              	.LASF52:
 3525 0420 55534255 		.ascii	"USBUART_1_GetEPAckState\000"
 3525      4152545F 
 3525      315F4765 
 3525      74455041 
 3525      636B5374 
 3526              	.LASF24:
 3527 0438 62756666 		.ascii	"buffOffset\000"
 3527      4F666673 
 3527      657400
 3528              	.LASF32:
 3529 0443 55534255 		.ascii	"USBUART_1_InitComponent\000"
 3529      4152545F 
 3529      315F496E 
 3529      6974436F 
 3529      6D706F6E 
 3530              	.LASF43:
 3531 045b 55534255 		.ascii	"USBUART_1_LoadInEP\000"
 3531      4152545F 
 3531      315F4C6F 
 3531      6164496E 
 3531      455000
 3532              	.LASF33:
 3533 046e 656E6162 		.ascii	"enableInterrupts\000"
 3533      6C65496E 
 3533      74657272 
 3533      75707473 
 3533      00
 3534              	.LASF63:
 3535 047f 55534255 		.ascii	"USBUART_1_interfaceNumber\000"
 3535      4152545F 
 3535      315F696E 
 3535      74657266 
 3535      6163654E 
 3536              	.LASF67:
ARM GAS  C:\Users\Colin\AppData\Local\Temp\ccMAPRQY.s 			page 90


 3537 0499 55534255 		.ascii	"USBUART_1_lastPacketSize\000"
 3537      4152545F 
 3537      315F6C61 
 3537      73745061 
 3537      636B6574 
 3538              	.LASF72:
 3539 04b2 55534255 		.ascii	"USBUART_1_GetConfiguration\000"
 3539      4152545F 
 3539      315F4765 
 3539      74436F6E 
 3539      66696775 
 3540              	.LASF58:
 3541 04cd 55534255 		.ascii	"USBUART_1_transferState\000"
 3541      4152545F 
 3541      315F7472 
 3541      616E7366 
 3541      65725374 
 3542              	.LASF47:
 3543 04e5 78666572 		.ascii	"xferCount\000"
 3543      436F756E 
 3543      7400
 3544              	.LASF50:
 3545 04ef 55534255 		.ascii	"USBUART_1_Force\000"
 3545      4152545F 
 3545      315F466F 
 3545      72636500 
 3546              	.LASF66:
 3547 04ff 55534255 		.ascii	"USBUART_1_EP\000"
 3547      4152545F 
 3547      315F4550 
 3547      00
 3548              	.LASF42:
 3549 050c 72657375 		.ascii	"result\000"
 3549      6C7400
 3550              	.LASF36:
 3551 0513 55534255 		.ascii	"USBUART_1_IsConfigurationChanged\000"
 3551      4152545F 
 3551      315F4973 
 3551      436F6E66 
 3551      69677572 
 3552              		.ident	"GCC: (GNU Tools for ARM Embedded Processors) 4.7.3 20130312 (release) [ARM/embedded-4_7-br
