ARM GAS  C:\Users\Colin\AppData\Local\Temp\ccMAPRQY.s 			page 1


   1              		.syntax unified
   2              		.cpu cortex-m3
   3              		.fpu softvfp
   4              		.eabi_attribute 20, 1
   5              		.eabi_attribute 21, 1
   6              		.eabi_attribute 23, 3
   7              		.eabi_attribute 24, 1
   8              		.eabi_attribute 25, 1
   9              		.eabi_attribute 26, 1
  10              		.eabi_attribute 30, 6
  11              		.eabi_attribute 34, 1
  12              		.eabi_attribute 18, 4
  13              		.thumb
  14              		.file	"USBUART_1.c"
  15              		.text
  16              	.Ltext0:
  17              		.cfi_sections	.debug_frame
  18              		.global	USBUART_1_initVar
  19              		.bss
  20              		.type	USBUART_1_initVar, %object
  21              		.size	USBUART_1_initVar, 1
  22              	USBUART_1_initVar:
  23 0000 00       		.space	1
  24              		.section	.text.USBUART_1_Start,"ax",%progbits
  25              		.align	2
  26              		.global	USBUART_1_Start
  27              		.thumb
  28              		.thumb_func
  29              		.type	USBUART_1_Start, %function
  30              	USBUART_1_Start:
  31              	.LFB0:
  32              		.file 1 ".\\Generated_Source\\PSoC5\\USBUART_1.c"
   1:.\Generated_Source\PSoC5/USBUART_1.c **** /*******************************************************************************
   2:.\Generated_Source\PSoC5/USBUART_1.c **** * File Name: USBUART_1.c
   3:.\Generated_Source\PSoC5/USBUART_1.c **** * Version 2.60
   4:.\Generated_Source\PSoC5/USBUART_1.c **** *
   5:.\Generated_Source\PSoC5/USBUART_1.c **** * Description:
   6:.\Generated_Source\PSoC5/USBUART_1.c **** *  API for USBFS Component.
   7:.\Generated_Source\PSoC5/USBUART_1.c **** *
   8:.\Generated_Source\PSoC5/USBUART_1.c **** * Note:
   9:.\Generated_Source\PSoC5/USBUART_1.c **** *  Many of the functions use endpoint number.  RAM arrays are sized with 9
  10:.\Generated_Source\PSoC5/USBUART_1.c **** *  elements so they are indexed directly by epNumber.  The SIE and ARB
  11:.\Generated_Source\PSoC5/USBUART_1.c **** *  registers are indexed by variations of epNumber - 1.
  12:.\Generated_Source\PSoC5/USBUART_1.c **** *
  13:.\Generated_Source\PSoC5/USBUART_1.c **** ********************************************************************************
  14:.\Generated_Source\PSoC5/USBUART_1.c **** * Copyright 2008-2013, Cypress Semiconductor Corporation.  All rights reserved.
  15:.\Generated_Source\PSoC5/USBUART_1.c **** * You may use this file only in accordance with the license, terms, conditions,
  16:.\Generated_Source\PSoC5/USBUART_1.c **** * disclaimers, and limitations in the end user license agreement accompanying
  17:.\Generated_Source\PSoC5/USBUART_1.c **** * the software package with which this file was provided.
  18:.\Generated_Source\PSoC5/USBUART_1.c **** *******************************************************************************/
  19:.\Generated_Source\PSoC5/USBUART_1.c **** 
  20:.\Generated_Source\PSoC5/USBUART_1.c **** #include <CyDmac.h>
  21:.\Generated_Source\PSoC5/USBUART_1.c **** #include "USBUART_1.h"
  22:.\Generated_Source\PSoC5/USBUART_1.c **** #include "USBUART_1_pvt.h"
  23:.\Generated_Source\PSoC5/USBUART_1.c **** #include "USBUART_1_hid.h"
  24:.\Generated_Source\PSoC5/USBUART_1.c **** #if(USBUART_1_DMA1_REMOVE == 0u)
  25:.\Generated_Source\PSoC5/USBUART_1.c ****     #include "USBUART_1_ep1_dma.h"
ARM GAS  C:\Users\Colin\AppData\Local\Temp\ccMAPRQY.s 			page 2


  26:.\Generated_Source\PSoC5/USBUART_1.c **** #endif   /* End USBUART_1_DMA1_REMOVE */
  27:.\Generated_Source\PSoC5/USBUART_1.c **** #if(USBUART_1_DMA2_REMOVE == 0u)
  28:.\Generated_Source\PSoC5/USBUART_1.c ****     #include "USBUART_1_ep2_dma.h"
  29:.\Generated_Source\PSoC5/USBUART_1.c **** #endif   /* End USBUART_1_DMA2_REMOVE */
  30:.\Generated_Source\PSoC5/USBUART_1.c **** #if(USBUART_1_DMA3_REMOVE == 0u)
  31:.\Generated_Source\PSoC5/USBUART_1.c ****     #include "USBUART_1_ep3_dma.h"
  32:.\Generated_Source\PSoC5/USBUART_1.c **** #endif   /* End USBUART_1_DMA3_REMOVE */
  33:.\Generated_Source\PSoC5/USBUART_1.c **** #if(USBUART_1_DMA4_REMOVE == 0u)
  34:.\Generated_Source\PSoC5/USBUART_1.c ****     #include "USBUART_1_ep4_dma.h"
  35:.\Generated_Source\PSoC5/USBUART_1.c **** #endif   /* End USBUART_1_DMA4_REMOVE */
  36:.\Generated_Source\PSoC5/USBUART_1.c **** #if(USBUART_1_DMA5_REMOVE == 0u)
  37:.\Generated_Source\PSoC5/USBUART_1.c ****     #include "USBUART_1_ep5_dma.h"
  38:.\Generated_Source\PSoC5/USBUART_1.c **** #endif   /* End USBUART_1_DMA5_REMOVE */
  39:.\Generated_Source\PSoC5/USBUART_1.c **** #if(USBUART_1_DMA6_REMOVE == 0u)
  40:.\Generated_Source\PSoC5/USBUART_1.c ****     #include "USBUART_1_ep6_dma.h"
  41:.\Generated_Source\PSoC5/USBUART_1.c **** #endif   /* End USBUART_1_DMA6_REMOVE */
  42:.\Generated_Source\PSoC5/USBUART_1.c **** #if(USBUART_1_DMA7_REMOVE == 0u)
  43:.\Generated_Source\PSoC5/USBUART_1.c ****     #include "USBUART_1_ep7_dma.h"
  44:.\Generated_Source\PSoC5/USBUART_1.c **** #endif   /* End USBUART_1_DMA7_REMOVE */
  45:.\Generated_Source\PSoC5/USBUART_1.c **** #if(USBUART_1_DMA8_REMOVE == 0u)
  46:.\Generated_Source\PSoC5/USBUART_1.c ****     #include "USBUART_1_ep8_dma.h"
  47:.\Generated_Source\PSoC5/USBUART_1.c **** #endif   /* End USBUART_1_DMA8_REMOVE */
  48:.\Generated_Source\PSoC5/USBUART_1.c **** 
  49:.\Generated_Source\PSoC5/USBUART_1.c **** 
  50:.\Generated_Source\PSoC5/USBUART_1.c **** /***************************************
  51:.\Generated_Source\PSoC5/USBUART_1.c **** * Global data allocation
  52:.\Generated_Source\PSoC5/USBUART_1.c **** ***************************************/
  53:.\Generated_Source\PSoC5/USBUART_1.c **** 
  54:.\Generated_Source\PSoC5/USBUART_1.c **** uint8 USBUART_1_initVar = 0u;
  55:.\Generated_Source\PSoC5/USBUART_1.c **** #if(USBUART_1_EP_MM != USBUART_1__EP_MANUAL)
  56:.\Generated_Source\PSoC5/USBUART_1.c ****     uint8 USBUART_1_DmaChan[USBUART_1_MAX_EP];
  57:.\Generated_Source\PSoC5/USBUART_1.c ****     uint8 USBUART_1_DmaTd[USBUART_1_MAX_EP];
  58:.\Generated_Source\PSoC5/USBUART_1.c **** #endif /* End USBUART_1_EP_MM */
  59:.\Generated_Source\PSoC5/USBUART_1.c **** 
  60:.\Generated_Source\PSoC5/USBUART_1.c **** 
  61:.\Generated_Source\PSoC5/USBUART_1.c **** /*******************************************************************************
  62:.\Generated_Source\PSoC5/USBUART_1.c **** * Function Name: USBUART_1_Start
  63:.\Generated_Source\PSoC5/USBUART_1.c **** ********************************************************************************
  64:.\Generated_Source\PSoC5/USBUART_1.c **** *
  65:.\Generated_Source\PSoC5/USBUART_1.c **** * Summary:
  66:.\Generated_Source\PSoC5/USBUART_1.c **** *  This function initialize the USB SIE, arbiter and the
  67:.\Generated_Source\PSoC5/USBUART_1.c **** *  endpoint APIs, including setting the D+ Pullup
  68:.\Generated_Source\PSoC5/USBUART_1.c **** *
  69:.\Generated_Source\PSoC5/USBUART_1.c **** * Parameters:
  70:.\Generated_Source\PSoC5/USBUART_1.c **** *  device: Contains the device number of the desired device descriptor.
  71:.\Generated_Source\PSoC5/USBUART_1.c **** *          The device number can be found in the Device Descriptor Tab of
  72:.\Generated_Source\PSoC5/USBUART_1.c **** *          "Configure" dialog, under the settings of desired Device Descriptor,
  73:.\Generated_Source\PSoC5/USBUART_1.c **** *          in the "Device Number" field.
  74:.\Generated_Source\PSoC5/USBUART_1.c **** *  mode: The operating voltage. This determines whether the voltage regulator
  75:.\Generated_Source\PSoC5/USBUART_1.c **** *        is enabled for 5V operation or if pass through mode is used for 3.3V
  76:.\Generated_Source\PSoC5/USBUART_1.c **** *        operation. Symbolic names and their associated values are given in the
  77:.\Generated_Source\PSoC5/USBUART_1.c **** *        following table.
  78:.\Generated_Source\PSoC5/USBUART_1.c **** *       USBUART_1_3V_OPERATION - Disable voltage regulator and pass-thru
  79:.\Generated_Source\PSoC5/USBUART_1.c **** *                                       Vcc for pull-up
  80:.\Generated_Source\PSoC5/USBUART_1.c **** *       USBUART_1_5V_OPERATION - Enable voltage regulator and use
  81:.\Generated_Source\PSoC5/USBUART_1.c **** *                                       regulator for pull-up
  82:.\Generated_Source\PSoC5/USBUART_1.c **** *       USBUART_1_DWR_VDDD_OPERATION - Enable or Disable voltage
ARM GAS  C:\Users\Colin\AppData\Local\Temp\ccMAPRQY.s 			page 3


  83:.\Generated_Source\PSoC5/USBUART_1.c **** *                         regulator depend on Vddd Voltage configuration in DWR.
  84:.\Generated_Source\PSoC5/USBUART_1.c **** *
  85:.\Generated_Source\PSoC5/USBUART_1.c **** * Return:
  86:.\Generated_Source\PSoC5/USBUART_1.c **** *   None.
  87:.\Generated_Source\PSoC5/USBUART_1.c **** *
  88:.\Generated_Source\PSoC5/USBUART_1.c **** * Global variables:
  89:.\Generated_Source\PSoC5/USBUART_1.c **** *  The USBUART_1_intiVar variable is used to indicate initial
  90:.\Generated_Source\PSoC5/USBUART_1.c **** *  configuration of this component. The variable is initialized to zero (0u)
  91:.\Generated_Source\PSoC5/USBUART_1.c **** *  and set to one (1u) the first time USBUART_1_Start() is called.
  92:.\Generated_Source\PSoC5/USBUART_1.c **** *  This allows for component Re-Start without unnecessary re-initialization
  93:.\Generated_Source\PSoC5/USBUART_1.c **** *  in all subsequent calls to the USBUART_1_Start() routine.
  94:.\Generated_Source\PSoC5/USBUART_1.c **** *  If re-initialization of the component is required the variable should be set
  95:.\Generated_Source\PSoC5/USBUART_1.c **** *  to zero before call of UART_Start() routine, or the user may call
  96:.\Generated_Source\PSoC5/USBUART_1.c **** *  USBUART_1_Init() and USBUART_1_InitComponent() as done
  97:.\Generated_Source\PSoC5/USBUART_1.c **** *  in the USBUART_1_Start() routine.
  98:.\Generated_Source\PSoC5/USBUART_1.c **** *
  99:.\Generated_Source\PSoC5/USBUART_1.c **** * Side Effects:
 100:.\Generated_Source\PSoC5/USBUART_1.c **** *   This function will reset all communication states to default.
 101:.\Generated_Source\PSoC5/USBUART_1.c **** *
 102:.\Generated_Source\PSoC5/USBUART_1.c **** * Reentrant:
 103:.\Generated_Source\PSoC5/USBUART_1.c **** *  No.
 104:.\Generated_Source\PSoC5/USBUART_1.c **** *
 105:.\Generated_Source\PSoC5/USBUART_1.c **** *******************************************************************************/
 106:.\Generated_Source\PSoC5/USBUART_1.c **** void USBUART_1_Start(uint8 device, uint8 mode) 
 107:.\Generated_Source\PSoC5/USBUART_1.c **** {
  33              		.loc 1 107 0
  34              		.cfi_startproc
  35              		@ args = 0, pretend = 0, frame = 8
  36              		@ frame_needed = 1, uses_anonymous_args = 0
  37 0000 80B5     		push	{r7, lr}
  38              	.LCFI0:
  39              		.cfi_def_cfa_offset 8
  40              		.cfi_offset 7, -8
  41              		.cfi_offset 14, -4
  42 0002 82B0     		sub	sp, sp, #8
  43              	.LCFI1:
  44              		.cfi_def_cfa_offset 16
  45 0004 00AF     		add	r7, sp, #0
  46              	.LCFI2:
  47              		.cfi_def_cfa_register 7
  48 0006 0246     		mov	r2, r0
  49 0008 0B46     		mov	r3, r1
  50 000a FA71     		strb	r2, [r7, #7]
  51 000c BB71     		strb	r3, [r7, #6]
 108:.\Generated_Source\PSoC5/USBUART_1.c ****     /* If not Initialized then initialize all required hardware and software */
 109:.\Generated_Source\PSoC5/USBUART_1.c ****     if(USBUART_1_initVar == 0u)
  52              		.loc 1 109 0
  53 000e 40F20003 		movw	r3, #:lower16:USBUART_1_initVar
  54 0012 C0F20003 		movt	r3, #:upper16:USBUART_1_initVar
  55 0016 1B78     		ldrb	r3, [r3, #0]	@ zero_extendqisi2
  56 0018 002B     		cmp	r3, #0
  57 001a 08D1     		bne	.L2
 110:.\Generated_Source\PSoC5/USBUART_1.c ****     {
 111:.\Generated_Source\PSoC5/USBUART_1.c ****         USBUART_1_Init();
  58              		.loc 1 111 0
  59 001c FFF7FEFF 		bl	USBUART_1_Init
 112:.\Generated_Source\PSoC5/USBUART_1.c ****         USBUART_1_initVar = 1u;
ARM GAS  C:\Users\Colin\AppData\Local\Temp\ccMAPRQY.s 			page 4


  60              		.loc 1 112 0
  61 0020 40F20003 		movw	r3, #:lower16:USBUART_1_initVar
  62 0024 C0F20003 		movt	r3, #:upper16:USBUART_1_initVar
  63 0028 4FF00102 		mov	r2, #1
  64 002c 1A70     		strb	r2, [r3, #0]
  65              	.L2:
 113:.\Generated_Source\PSoC5/USBUART_1.c ****     }
 114:.\Generated_Source\PSoC5/USBUART_1.c ****     USBUART_1_InitComponent(device, mode);
  66              		.loc 1 114 0
  67 002e FA79     		ldrb	r2, [r7, #7]	@ zero_extendqisi2
  68 0030 BB79     		ldrb	r3, [r7, #6]	@ zero_extendqisi2
  69 0032 1046     		mov	r0, r2
  70 0034 1946     		mov	r1, r3
  71 0036 FFF7FEFF 		bl	USBUART_1_InitComponent
 115:.\Generated_Source\PSoC5/USBUART_1.c **** }
  72              		.loc 1 115 0
  73 003a 07F10807 		add	r7, r7, #8
  74 003e BD46     		mov	sp, r7
  75 0040 80BD     		pop	{r7, pc}
  76              		.cfi_endproc
  77              	.LFE0:
  78              		.size	USBUART_1_Start, .-USBUART_1_Start
  79 0042 00BF     		.section	.text.USBUART_1_Init,"ax",%progbits
  80              		.align	2
  81              		.global	USBUART_1_Init
  82              		.thumb
  83              		.thumb_func
  84              		.type	USBUART_1_Init, %function
  85              	USBUART_1_Init:
  86              	.LFB1:
 116:.\Generated_Source\PSoC5/USBUART_1.c **** 
 117:.\Generated_Source\PSoC5/USBUART_1.c **** 
 118:.\Generated_Source\PSoC5/USBUART_1.c **** /*******************************************************************************
 119:.\Generated_Source\PSoC5/USBUART_1.c **** * Function Name: USBUART_1_Init
 120:.\Generated_Source\PSoC5/USBUART_1.c **** ********************************************************************************
 121:.\Generated_Source\PSoC5/USBUART_1.c **** *
 122:.\Generated_Source\PSoC5/USBUART_1.c **** * Summary:
 123:.\Generated_Source\PSoC5/USBUART_1.c **** *  Initialize component's hardware. Usually called in USBUART_1_Start().
 124:.\Generated_Source\PSoC5/USBUART_1.c **** *
 125:.\Generated_Source\PSoC5/USBUART_1.c **** * Parameters:
 126:.\Generated_Source\PSoC5/USBUART_1.c **** *  None.
 127:.\Generated_Source\PSoC5/USBUART_1.c **** *
 128:.\Generated_Source\PSoC5/USBUART_1.c **** * Return:
 129:.\Generated_Source\PSoC5/USBUART_1.c **** *  None.
 130:.\Generated_Source\PSoC5/USBUART_1.c **** *
 131:.\Generated_Source\PSoC5/USBUART_1.c **** * Reentrant:
 132:.\Generated_Source\PSoC5/USBUART_1.c **** *  No.
 133:.\Generated_Source\PSoC5/USBUART_1.c **** *
 134:.\Generated_Source\PSoC5/USBUART_1.c **** *******************************************************************************/
 135:.\Generated_Source\PSoC5/USBUART_1.c **** void USBUART_1_Init(void) 
 136:.\Generated_Source\PSoC5/USBUART_1.c **** {
  87              		.loc 1 136 0
  88              		.cfi_startproc
  89              		@ args = 0, pretend = 0, frame = 8
  90              		@ frame_needed = 1, uses_anonymous_args = 0
  91 0000 80B5     		push	{r7, lr}
  92              	.LCFI3:
ARM GAS  C:\Users\Colin\AppData\Local\Temp\ccMAPRQY.s 			page 5


  93              		.cfi_def_cfa_offset 8
  94              		.cfi_offset 7, -8
  95              		.cfi_offset 14, -4
  96 0002 82B0     		sub	sp, sp, #8
  97              	.LCFI4:
  98              		.cfi_def_cfa_offset 16
  99 0004 00AF     		add	r7, sp, #0
 100              	.LCFI5:
 101              		.cfi_def_cfa_register 7
 137:.\Generated_Source\PSoC5/USBUART_1.c ****     uint8 enableInterrupts;
 138:.\Generated_Source\PSoC5/USBUART_1.c ****     #if(USBUART_1_EP_MM != USBUART_1__EP_MANUAL)
 139:.\Generated_Source\PSoC5/USBUART_1.c ****         uint16 i;
 140:.\Generated_Source\PSoC5/USBUART_1.c ****     #endif   /* End USBUART_1_EP_MM != USBUART_1__EP_MANUAL */
 141:.\Generated_Source\PSoC5/USBUART_1.c **** 
 142:.\Generated_Source\PSoC5/USBUART_1.c ****     enableInterrupts = CyEnterCriticalSection();
 102              		.loc 1 142 0
 103 0006 FFF7FEFF 		bl	CyEnterCriticalSection
 104 000a 0346     		mov	r3, r0
 105 000c FB71     		strb	r3, [r7, #7]
 143:.\Generated_Source\PSoC5/USBUART_1.c **** 
 144:.\Generated_Source\PSoC5/USBUART_1.c ****     /* Enable USB block  */
 145:.\Generated_Source\PSoC5/USBUART_1.c ****     USBUART_1_PM_ACT_CFG_REG |= USBUART_1_PM_ACT_EN_FSUSB;
 106              		.loc 1 145 0
 107 000e 44F2A533 		movw	r3, #17317
 108 0012 C4F20003 		movt	r3, 16384
 109 0016 44F2A532 		movw	r2, #17317
 110 001a C4F20002 		movt	r2, 16384
 111 001e 1278     		ldrb	r2, [r2, #0]
 112 0020 D2B2     		uxtb	r2, r2
 113 0022 42F00102 		orr	r2, r2, #1
 114 0026 D2B2     		uxtb	r2, r2
 115 0028 1A70     		strb	r2, [r3, #0]
 146:.\Generated_Source\PSoC5/USBUART_1.c ****     /* Enable USB block for Standby Power Mode */
 147:.\Generated_Source\PSoC5/USBUART_1.c ****     USBUART_1_PM_STBY_CFG_REG |= USBUART_1_PM_STBY_EN_FSUSB;
 116              		.loc 1 147 0
 117 002a 44F2B533 		movw	r3, #17333
 118 002e C4F20003 		movt	r3, 16384
 119 0032 44F2B532 		movw	r2, #17333
 120 0036 C4F20002 		movt	r2, 16384
 121 003a 1278     		ldrb	r2, [r2, #0]
 122 003c D2B2     		uxtb	r2, r2
 123 003e 42F00102 		orr	r2, r2, #1
 124 0042 D2B2     		uxtb	r2, r2
 125 0044 1A70     		strb	r2, [r3, #0]
 148:.\Generated_Source\PSoC5/USBUART_1.c **** 
 149:.\Generated_Source\PSoC5/USBUART_1.c ****     /* Enable core clock */
 150:.\Generated_Source\PSoC5/USBUART_1.c ****     USBUART_1_USB_CLK_EN_REG = USBUART_1_USB_CLK_ENABLE;
 126              		.loc 1 150 0
 127 0046 46F29D03 		movw	r3, #24733
 128 004a C4F20003 		movt	r3, 16384
 129 004e 4FF00102 		mov	r2, #1
 130 0052 1A70     		strb	r2, [r3, #0]
 151:.\Generated_Source\PSoC5/USBUART_1.c **** 
 152:.\Generated_Source\PSoC5/USBUART_1.c ****     USBUART_1_CR1_REG = USBUART_1_CR1_ENABLE_LOCK;
 131              		.loc 1 152 0
 132 0054 46F20903 		movw	r3, #24585
 133 0058 C4F20003 		movt	r3, 16384
ARM GAS  C:\Users\Colin\AppData\Local\Temp\ccMAPRQY.s 			page 6


 134 005c 4FF00202 		mov	r2, #2
 135 0060 1A70     		strb	r2, [r3, #0]
 153:.\Generated_Source\PSoC5/USBUART_1.c **** 
 154:.\Generated_Source\PSoC5/USBUART_1.c ****     /* ENABLING USBIO PADS IN USB MODE FROM I/O MODE */
 155:.\Generated_Source\PSoC5/USBUART_1.c ****     /* Ensure USB transmit enable is low (USB_USBIO_CR0.ten). - Manual Transmission - Disabled */
 156:.\Generated_Source\PSoC5/USBUART_1.c ****     USBUART_1_USBIO_CR0_REG &= ((uint8)(~USBUART_1_USBIO_CR0_TEN));
 136              		.loc 1 156 0
 137 0062 46F21003 		movw	r3, #24592
 138 0066 C4F20003 		movt	r3, 16384
 139 006a 46F21002 		movw	r2, #24592
 140 006e C4F20002 		movt	r2, 16384
 141 0072 1278     		ldrb	r2, [r2, #0]
 142 0074 D2B2     		uxtb	r2, r2
 143 0076 02F07F02 		and	r2, r2, #127
 144 007a D2B2     		uxtb	r2, r2
 145 007c 1A70     		strb	r2, [r3, #0]
 157:.\Generated_Source\PSoC5/USBUART_1.c ****     CyDelayUs(0u);  /*~50ns delay */
 146              		.loc 1 157 0
 147 007e 4FF00000 		mov	r0, #0
 148 0082 FFF7FEFF 		bl	CyDelayUs
 158:.\Generated_Source\PSoC5/USBUART_1.c ****     /* Disable the USBIO by asserting PM.USB_CR0.fsusbio_pd_n(Inverted)
 159:.\Generated_Source\PSoC5/USBUART_1.c ****     *  high. This will have been set low by the power manger out of reset.
 160:.\Generated_Source\PSoC5/USBUART_1.c ****     *  Also confirm USBIO pull-up disabled
 161:.\Generated_Source\PSoC5/USBUART_1.c ****     */
 162:.\Generated_Source\PSoC5/USBUART_1.c ****     USBUART_1_PM_USB_CR0_REG &= ((uint8)(~(USBUART_1_PM_USB_CR0_PD_N |
 149              		.loc 1 162 0
 150 0086 44F29433 		movw	r3, #17300
 151 008a C4F20003 		movt	r3, 16384
 152 008e 44F29432 		movw	r2, #17300
 153 0092 C4F20002 		movt	r2, 16384
 154 0096 1278     		ldrb	r2, [r2, #0]
 155 0098 D2B2     		uxtb	r2, r2
 156 009a 22F00602 		bic	r2, r2, #6
 157 009e D2B2     		uxtb	r2, r2
 158 00a0 1A70     		strb	r2, [r3, #0]
 163:.\Generated_Source\PSoC5/USBUART_1.c ****                                                   USBUART_1_PM_USB_CR0_PD_PULLUP_N)));
 164:.\Generated_Source\PSoC5/USBUART_1.c **** 
 165:.\Generated_Source\PSoC5/USBUART_1.c ****     /* Select iomode to USB mode*/
 166:.\Generated_Source\PSoC5/USBUART_1.c ****     USBUART_1_USBIO_CR1_REG &= ((uint8)(~USBUART_1_USBIO_CR1_IOMODE));
 159              		.loc 1 166 0
 160 00a2 46F21203 		movw	r3, #24594
 161 00a6 C4F20003 		movt	r3, 16384
 162 00aa 46F21202 		movw	r2, #24594
 163 00ae C4F20002 		movt	r2, 16384
 164 00b2 1278     		ldrb	r2, [r2, #0]
 165 00b4 D2B2     		uxtb	r2, r2
 166 00b6 22F02002 		bic	r2, r2, #32
 167 00ba D2B2     		uxtb	r2, r2
 168 00bc 1A70     		strb	r2, [r3, #0]
 167:.\Generated_Source\PSoC5/USBUART_1.c **** 
 168:.\Generated_Source\PSoC5/USBUART_1.c ****     /* Enable the USBIO reference by setting PM.USB_CR0.fsusbio_ref_en.*/
 169:.\Generated_Source\PSoC5/USBUART_1.c ****     USBUART_1_PM_USB_CR0_REG |= USBUART_1_PM_USB_CR0_REF_EN;
 169              		.loc 1 169 0
 170 00be 44F29433 		movw	r3, #17300
 171 00c2 C4F20003 		movt	r3, 16384
 172 00c6 44F29432 		movw	r2, #17300
 173 00ca C4F20002 		movt	r2, 16384
ARM GAS  C:\Users\Colin\AppData\Local\Temp\ccMAPRQY.s 			page 7


 174 00ce 1278     		ldrb	r2, [r2, #0]
 175 00d0 D2B2     		uxtb	r2, r2
 176 00d2 42F00102 		orr	r2, r2, #1
 177 00d6 D2B2     		uxtb	r2, r2
 178 00d8 1A70     		strb	r2, [r3, #0]
 170:.\Generated_Source\PSoC5/USBUART_1.c ****     /* The reference will be available 1 us after the regulator is enabled */
 171:.\Generated_Source\PSoC5/USBUART_1.c ****     CyDelayUs(1u);
 179              		.loc 1 171 0
 180 00da 4FF00100 		mov	r0, #1
 181 00de FFF7FEFF 		bl	CyDelayUs
 172:.\Generated_Source\PSoC5/USBUART_1.c ****     /* OR 40us after power restored */
 173:.\Generated_Source\PSoC5/USBUART_1.c ****     CyDelayUs(40u);
 182              		.loc 1 173 0
 183 00e2 4FF02800 		mov	r0, #40
 184 00e6 FFF7FEFF 		bl	CyDelayUs
 174:.\Generated_Source\PSoC5/USBUART_1.c ****     /* Ensure the single ended disable bits are low (PRT15.INP_DIS[7:6])(input receiver enabled). *
 175:.\Generated_Source\PSoC5/USBUART_1.c ****     USBUART_1_DM_INP_DIS_REG &= ((uint8)(~USBUART_1_DM_MASK));
 185              		.loc 1 175 0
 186 00ea 45F2F813 		movw	r3, #20984
 187 00ee C4F20003 		movt	r3, 16384
 188 00f2 45F2F812 		movw	r2, #20984
 189 00f6 C4F20002 		movt	r2, 16384
 190 00fa 1278     		ldrb	r2, [r2, #0]
 191 00fc D2B2     		uxtb	r2, r2
 192 00fe 02F07F02 		and	r2, r2, #127
 193 0102 D2B2     		uxtb	r2, r2
 194 0104 1A70     		strb	r2, [r3, #0]
 176:.\Generated_Source\PSoC5/USBUART_1.c ****     USBUART_1_DP_INP_DIS_REG &= ((uint8)(~USBUART_1_DP_MASK));
 195              		.loc 1 176 0
 196 0106 45F2F813 		movw	r3, #20984
 197 010a C4F20003 		movt	r3, 16384
 198 010e 45F2F812 		movw	r2, #20984
 199 0112 C4F20002 		movt	r2, 16384
 200 0116 1278     		ldrb	r2, [r2, #0]
 201 0118 D2B2     		uxtb	r2, r2
 202 011a 22F04002 		bic	r2, r2, #64
 203 011e D2B2     		uxtb	r2, r2
 204 0120 1A70     		strb	r2, [r3, #0]
 177:.\Generated_Source\PSoC5/USBUART_1.c **** 
 178:.\Generated_Source\PSoC5/USBUART_1.c ****     /* Enable USBIO */
 179:.\Generated_Source\PSoC5/USBUART_1.c ****     USBUART_1_PM_USB_CR0_REG |= USBUART_1_PM_USB_CR0_PD_N;
 205              		.loc 1 179 0
 206 0122 44F29433 		movw	r3, #17300
 207 0126 C4F20003 		movt	r3, 16384
 208 012a 44F29432 		movw	r2, #17300
 209 012e C4F20002 		movt	r2, 16384
 210 0132 1278     		ldrb	r2, [r2, #0]
 211 0134 D2B2     		uxtb	r2, r2
 212 0136 42F00202 		orr	r2, r2, #2
 213 013a D2B2     		uxtb	r2, r2
 214 013c 1A70     		strb	r2, [r3, #0]
 180:.\Generated_Source\PSoC5/USBUART_1.c ****     CyDelayUs(2u);
 215              		.loc 1 180 0
 216 013e 4FF00200 		mov	r0, #2
 217 0142 FFF7FEFF 		bl	CyDelayUs
 181:.\Generated_Source\PSoC5/USBUART_1.c ****     /* Set the USBIO pull-up enable */
 182:.\Generated_Source\PSoC5/USBUART_1.c ****     USBUART_1_PM_USB_CR0_REG |= USBUART_1_PM_USB_CR0_PD_PULLUP_N;
ARM GAS  C:\Users\Colin\AppData\Local\Temp\ccMAPRQY.s 			page 8


 218              		.loc 1 182 0
 219 0146 44F29433 		movw	r3, #17300
 220 014a C4F20003 		movt	r3, 16384
 221 014e 44F29432 		movw	r2, #17300
 222 0152 C4F20002 		movt	r2, 16384
 223 0156 1278     		ldrb	r2, [r2, #0]
 224 0158 D2B2     		uxtb	r2, r2
 225 015a 42F00402 		orr	r2, r2, #4
 226 015e D2B2     		uxtb	r2, r2
 227 0160 1A70     		strb	r2, [r3, #0]
 183:.\Generated_Source\PSoC5/USBUART_1.c **** 
 184:.\Generated_Source\PSoC5/USBUART_1.c ****     /* Write WAx */
 185:.\Generated_Source\PSoC5/USBUART_1.c ****     CY_SET_REG8(USBUART_1_ARB_RW1_WA_PTR,     0u);
 228              		.loc 1 185 0
 229 0162 46F28403 		movw	r3, #24708
 230 0166 C4F20003 		movt	r3, 16384
 231 016a 4FF00002 		mov	r2, #0
 232 016e 1A70     		strb	r2, [r3, #0]
 186:.\Generated_Source\PSoC5/USBUART_1.c ****     CY_SET_REG8(USBUART_1_ARB_RW1_WA_MSB_PTR, 0u);
 233              		.loc 1 186 0
 234 0170 46F28503 		movw	r3, #24709
 235 0174 C4F20003 		movt	r3, 16384
 236 0178 4FF00002 		mov	r2, #0
 237 017c 1A70     		strb	r2, [r3, #0]
 187:.\Generated_Source\PSoC5/USBUART_1.c **** 
 188:.\Generated_Source\PSoC5/USBUART_1.c ****     #if(USBUART_1_EP_MM != USBUART_1__EP_MANUAL)
 189:.\Generated_Source\PSoC5/USBUART_1.c ****         /* Init transfer descriptor. This will be used to detect the DMA state - initialized or not
 190:.\Generated_Source\PSoC5/USBUART_1.c ****         for (i = 0u; i < USBUART_1_MAX_EP; i++)
 191:.\Generated_Source\PSoC5/USBUART_1.c ****         {
 192:.\Generated_Source\PSoC5/USBUART_1.c ****             USBUART_1_DmaTd[i] = DMA_INVALID_TD;
 193:.\Generated_Source\PSoC5/USBUART_1.c ****         }
 194:.\Generated_Source\PSoC5/USBUART_1.c ****     #endif   /* End USBUART_1_EP_MM != USBUART_1__EP_MANUAL */
 195:.\Generated_Source\PSoC5/USBUART_1.c **** 
 196:.\Generated_Source\PSoC5/USBUART_1.c ****     CyExitCriticalSection(enableInterrupts);
 238              		.loc 1 196 0
 239 017e FB79     		ldrb	r3, [r7, #7]	@ zero_extendqisi2
 240 0180 1846     		mov	r0, r3
 241 0182 FFF7FEFF 		bl	CyExitCriticalSection
 197:.\Generated_Source\PSoC5/USBUART_1.c **** 
 198:.\Generated_Source\PSoC5/USBUART_1.c **** 
 199:.\Generated_Source\PSoC5/USBUART_1.c ****     /* Set the bus reset Interrupt. */
 200:.\Generated_Source\PSoC5/USBUART_1.c ****     (void) CyIntSetVector(USBUART_1_BUS_RESET_VECT_NUM,   &USBUART_1_BUS_RESET_ISR);
 242              		.loc 1 200 0
 243 0186 4FF01700 		mov	r0, #23
 244 018a 40F20001 		movw	r1, #:lower16:USBUART_1_BUS_RESET_ISR
 245 018e C0F20001 		movt	r1, #:upper16:USBUART_1_BUS_RESET_ISR
 246 0192 FFF7FEFF 		bl	CyIntSetVector
 201:.\Generated_Source\PSoC5/USBUART_1.c ****     CyIntSetPriority(USBUART_1_BUS_RESET_VECT_NUM, USBUART_1_BUS_RESET_PRIOR);
 247              		.loc 1 201 0
 248 0196 4FF01700 		mov	r0, #23
 249 019a 4FF00701 		mov	r1, #7
 250 019e FFF7FEFF 		bl	CyIntSetPriority
 202:.\Generated_Source\PSoC5/USBUART_1.c **** 
 203:.\Generated_Source\PSoC5/USBUART_1.c ****     /* Set the SOF Interrupt. */
 204:.\Generated_Source\PSoC5/USBUART_1.c ****     #if(USBUART_1_SOF_ISR_REMOVE == 0u)
 205:.\Generated_Source\PSoC5/USBUART_1.c ****         (void) CyIntSetVector(USBUART_1_SOF_VECT_NUM,   &USBUART_1_SOF_ISR);
 251              		.loc 1 205 0
ARM GAS  C:\Users\Colin\AppData\Local\Temp\ccMAPRQY.s 			page 9


 252 01a2 4FF01500 		mov	r0, #21
 253 01a6 40F20001 		movw	r1, #:lower16:USBUART_1_SOF_ISR
 254 01aa C0F20001 		movt	r1, #:upper16:USBUART_1_SOF_ISR
 255 01ae FFF7FEFF 		bl	CyIntSetVector
 206:.\Generated_Source\PSoC5/USBUART_1.c ****         CyIntSetPriority(USBUART_1_SOF_VECT_NUM, USBUART_1_SOF_PRIOR);
 256              		.loc 1 206 0
 257 01b2 4FF01500 		mov	r0, #21
 258 01b6 4FF00701 		mov	r1, #7
 259 01ba FFF7FEFF 		bl	CyIntSetPriority
 207:.\Generated_Source\PSoC5/USBUART_1.c ****     #endif   /* End USBUART_1_SOF_ISR_REMOVE */
 208:.\Generated_Source\PSoC5/USBUART_1.c **** 
 209:.\Generated_Source\PSoC5/USBUART_1.c ****     /* Set the Control Endpoint Interrupt. */
 210:.\Generated_Source\PSoC5/USBUART_1.c ****     (void) CyIntSetVector(USBUART_1_EP_0_VECT_NUM,   &USBUART_1_EP_0_ISR);
 260              		.loc 1 210 0
 261 01be 4FF01800 		mov	r0, #24
 262 01c2 40F20001 		movw	r1, #:lower16:USBUART_1_EP_0_ISR
 263 01c6 C0F20001 		movt	r1, #:upper16:USBUART_1_EP_0_ISR
 264 01ca FFF7FEFF 		bl	CyIntSetVector
 211:.\Generated_Source\PSoC5/USBUART_1.c ****     CyIntSetPriority(USBUART_1_EP_0_VECT_NUM, USBUART_1_EP_0_PRIOR);
 265              		.loc 1 211 0
 266 01ce 4FF01800 		mov	r0, #24
 267 01d2 4FF00701 		mov	r1, #7
 268 01d6 FFF7FEFF 		bl	CyIntSetPriority
 212:.\Generated_Source\PSoC5/USBUART_1.c **** 
 213:.\Generated_Source\PSoC5/USBUART_1.c ****     /* Set the Data Endpoint 1 Interrupt. */
 214:.\Generated_Source\PSoC5/USBUART_1.c ****     #if(USBUART_1_EP1_ISR_REMOVE == 0u)
 215:.\Generated_Source\PSoC5/USBUART_1.c ****         (void) CyIntSetVector(USBUART_1_EP_1_VECT_NUM,   &USBUART_1_EP_1_ISR);
 269              		.loc 1 215 0
 270 01da 4FF00300 		mov	r0, #3
 271 01de 40F20001 		movw	r1, #:lower16:USBUART_1_EP_1_ISR
 272 01e2 C0F20001 		movt	r1, #:upper16:USBUART_1_EP_1_ISR
 273 01e6 FFF7FEFF 		bl	CyIntSetVector
 216:.\Generated_Source\PSoC5/USBUART_1.c ****         CyIntSetPriority(USBUART_1_EP_1_VECT_NUM, USBUART_1_EP_1_PRIOR);
 274              		.loc 1 216 0
 275 01ea 4FF00300 		mov	r0, #3
 276 01ee 4FF00701 		mov	r1, #7
 277 01f2 FFF7FEFF 		bl	CyIntSetPriority
 217:.\Generated_Source\PSoC5/USBUART_1.c ****     #endif   /* End USBUART_1_EP1_ISR_REMOVE */
 218:.\Generated_Source\PSoC5/USBUART_1.c **** 
 219:.\Generated_Source\PSoC5/USBUART_1.c ****     /* Set the Data Endpoint 2 Interrupt. */
 220:.\Generated_Source\PSoC5/USBUART_1.c ****     #if(USBUART_1_EP2_ISR_REMOVE == 0u)
 221:.\Generated_Source\PSoC5/USBUART_1.c ****         (void) CyIntSetVector(USBUART_1_EP_2_VECT_NUM,   &USBUART_1_EP_2_ISR);
 278              		.loc 1 221 0
 279 01f6 4FF00400 		mov	r0, #4
 280 01fa 40F20001 		movw	r1, #:lower16:USBUART_1_EP_2_ISR
 281 01fe C0F20001 		movt	r1, #:upper16:USBUART_1_EP_2_ISR
 282 0202 FFF7FEFF 		bl	CyIntSetVector
 222:.\Generated_Source\PSoC5/USBUART_1.c ****         CyIntSetPriority(USBUART_1_EP_2_VECT_NUM, USBUART_1_EP_2_PRIOR);
 283              		.loc 1 222 0
 284 0206 4FF00400 		mov	r0, #4
 285 020a 4FF00701 		mov	r1, #7
 286 020e FFF7FEFF 		bl	CyIntSetPriority
 223:.\Generated_Source\PSoC5/USBUART_1.c ****     #endif   /* End USBUART_1_EP2_ISR_REMOVE */
 224:.\Generated_Source\PSoC5/USBUART_1.c **** 
 225:.\Generated_Source\PSoC5/USBUART_1.c ****     /* Set the Data Endpoint 3 Interrupt. */
 226:.\Generated_Source\PSoC5/USBUART_1.c ****     #if(USBUART_1_EP3_ISR_REMOVE == 0u)
 227:.\Generated_Source\PSoC5/USBUART_1.c ****         (void) CyIntSetVector(USBUART_1_EP_3_VECT_NUM,   &USBUART_1_EP_3_ISR);
ARM GAS  C:\Users\Colin\AppData\Local\Temp\ccMAPRQY.s 			page 10


 287              		.loc 1 227 0
 288 0212 4FF00500 		mov	r0, #5
 289 0216 40F20001 		movw	r1, #:lower16:USBUART_1_EP_3_ISR
 290 021a C0F20001 		movt	r1, #:upper16:USBUART_1_EP_3_ISR
 291 021e FFF7FEFF 		bl	CyIntSetVector
 228:.\Generated_Source\PSoC5/USBUART_1.c ****         CyIntSetPriority(USBUART_1_EP_3_VECT_NUM, USBUART_1_EP_3_PRIOR);
 292              		.loc 1 228 0
 293 0222 4FF00500 		mov	r0, #5
 294 0226 4FF00701 		mov	r1, #7
 295 022a FFF7FEFF 		bl	CyIntSetPriority
 229:.\Generated_Source\PSoC5/USBUART_1.c ****     #endif   /* End USBUART_1_EP3_ISR_REMOVE */
 230:.\Generated_Source\PSoC5/USBUART_1.c **** 
 231:.\Generated_Source\PSoC5/USBUART_1.c ****     /* Set the Data Endpoint 4 Interrupt. */
 232:.\Generated_Source\PSoC5/USBUART_1.c ****     #if(USBUART_1_EP4_ISR_REMOVE == 0u)
 233:.\Generated_Source\PSoC5/USBUART_1.c ****         (void) CyIntSetVector(USBUART_1_EP_4_VECT_NUM,   &USBUART_1_EP_4_ISR);
 234:.\Generated_Source\PSoC5/USBUART_1.c ****         CyIntSetPriority(USBUART_1_EP_4_VECT_NUM, USBUART_1_EP_4_PRIOR);
 235:.\Generated_Source\PSoC5/USBUART_1.c ****     #endif   /* End USBUART_1_EP4_ISR_REMOVE */
 236:.\Generated_Source\PSoC5/USBUART_1.c **** 
 237:.\Generated_Source\PSoC5/USBUART_1.c ****     /* Set the Data Endpoint 5 Interrupt. */
 238:.\Generated_Source\PSoC5/USBUART_1.c ****     #if(USBUART_1_EP5_ISR_REMOVE == 0u)
 239:.\Generated_Source\PSoC5/USBUART_1.c ****         (void) CyIntSetVector(USBUART_1_EP_5_VECT_NUM,   &USBUART_1_EP_5_ISR);
 240:.\Generated_Source\PSoC5/USBUART_1.c ****         CyIntSetPriority(USBUART_1_EP_5_VECT_NUM, USBUART_1_EP_5_PRIOR);
 241:.\Generated_Source\PSoC5/USBUART_1.c ****     #endif   /* End USBUART_1_EP5_ISR_REMOVE */
 242:.\Generated_Source\PSoC5/USBUART_1.c **** 
 243:.\Generated_Source\PSoC5/USBUART_1.c ****     /* Set the Data Endpoint 6 Interrupt. */
 244:.\Generated_Source\PSoC5/USBUART_1.c ****     #if(USBUART_1_EP6_ISR_REMOVE == 0u)
 245:.\Generated_Source\PSoC5/USBUART_1.c ****         (void) CyIntSetVector(USBUART_1_EP_6_VECT_NUM,   &USBUART_1_EP_6_ISR);
 246:.\Generated_Source\PSoC5/USBUART_1.c ****         CyIntSetPriority(USBUART_1_EP_6_VECT_NUM, USBUART_1_EP_6_PRIOR);
 247:.\Generated_Source\PSoC5/USBUART_1.c ****     #endif   /* End USBUART_1_EP6_ISR_REMOVE */
 248:.\Generated_Source\PSoC5/USBUART_1.c **** 
 249:.\Generated_Source\PSoC5/USBUART_1.c ****      /* Set the Data Endpoint 7 Interrupt. */
 250:.\Generated_Source\PSoC5/USBUART_1.c ****     #if(USBUART_1_EP7_ISR_REMOVE == 0u)
 251:.\Generated_Source\PSoC5/USBUART_1.c ****         (void) CyIntSetVector(USBUART_1_EP_7_VECT_NUM,   &USBUART_1_EP_7_ISR);
 252:.\Generated_Source\PSoC5/USBUART_1.c ****         CyIntSetPriority(USBUART_1_EP_7_VECT_NUM, USBUART_1_EP_7_PRIOR);
 253:.\Generated_Source\PSoC5/USBUART_1.c ****     #endif   /* End USBUART_1_EP7_ISR_REMOVE */
 254:.\Generated_Source\PSoC5/USBUART_1.c **** 
 255:.\Generated_Source\PSoC5/USBUART_1.c ****     /* Set the Data Endpoint 8 Interrupt. */
 256:.\Generated_Source\PSoC5/USBUART_1.c ****     #if(USBUART_1_EP8_ISR_REMOVE == 0u)
 257:.\Generated_Source\PSoC5/USBUART_1.c ****         (void) CyIntSetVector(USBUART_1_EP_8_VECT_NUM,   &USBUART_1_EP_8_ISR);
 258:.\Generated_Source\PSoC5/USBUART_1.c ****         CyIntSetPriority(USBUART_1_EP_8_VECT_NUM, USBUART_1_EP_8_PRIOR);
 259:.\Generated_Source\PSoC5/USBUART_1.c ****     #endif   /* End USBUART_1_EP8_ISR_REMOVE */
 260:.\Generated_Source\PSoC5/USBUART_1.c **** 
 261:.\Generated_Source\PSoC5/USBUART_1.c ****     #if((USBUART_1_EP_MM != USBUART_1__EP_MANUAL) && (USBUART_1_ARB_ISR_REMOVE == 0u))
 262:.\Generated_Source\PSoC5/USBUART_1.c ****         /* Set the ARB Interrupt. */
 263:.\Generated_Source\PSoC5/USBUART_1.c ****         (void) CyIntSetVector(USBUART_1_ARB_VECT_NUM,   &USBUART_1_ARB_ISR);
 264:.\Generated_Source\PSoC5/USBUART_1.c ****         CyIntSetPriority(USBUART_1_ARB_VECT_NUM, USBUART_1_ARB_PRIOR);
 265:.\Generated_Source\PSoC5/USBUART_1.c ****     #endif   /* End USBUART_1_EP_MM != USBUART_1__EP_MANUAL */
 266:.\Generated_Source\PSoC5/USBUART_1.c **** 
 267:.\Generated_Source\PSoC5/USBUART_1.c **** }
 296              		.loc 1 267 0
 297 022e 07F10807 		add	r7, r7, #8
 298 0232 BD46     		mov	sp, r7
 299 0234 80BD     		pop	{r7, pc}
 300              		.cfi_endproc
 301              	.LFE1:
 302              		.size	USBUART_1_Init, .-USBUART_1_Init
 303 0236 00BF     		.section	.text.USBUART_1_InitComponent,"ax",%progbits
ARM GAS  C:\Users\Colin\AppData\Local\Temp\ccMAPRQY.s 			page 11


 304              		.align	2
 305              		.global	USBUART_1_InitComponent
 306              		.thumb
 307              		.thumb_func
 308              		.type	USBUART_1_InitComponent, %function
 309              	USBUART_1_InitComponent:
 310              	.LFB2:
 268:.\Generated_Source\PSoC5/USBUART_1.c **** 
 269:.\Generated_Source\PSoC5/USBUART_1.c **** 
 270:.\Generated_Source\PSoC5/USBUART_1.c **** /*******************************************************************************
 271:.\Generated_Source\PSoC5/USBUART_1.c **** * Function Name: USBUART_1_InitComponent
 272:.\Generated_Source\PSoC5/USBUART_1.c **** ********************************************************************************
 273:.\Generated_Source\PSoC5/USBUART_1.c **** *
 274:.\Generated_Source\PSoC5/USBUART_1.c **** * Summary:
 275:.\Generated_Source\PSoC5/USBUART_1.c **** *  Initialize the component, except for the HW which is done one time in
 276:.\Generated_Source\PSoC5/USBUART_1.c **** *  the Start function.  This function pulls up D+.
 277:.\Generated_Source\PSoC5/USBUART_1.c **** *
 278:.\Generated_Source\PSoC5/USBUART_1.c **** * Parameters:
 279:.\Generated_Source\PSoC5/USBUART_1.c **** *  device: Contains the device number of the desired device descriptor.
 280:.\Generated_Source\PSoC5/USBUART_1.c **** *          The device number can be found in the Device Descriptor Tab of
 281:.\Generated_Source\PSoC5/USBUART_1.c **** *          "Configure" dialog, under the settings of desired Device Descriptor,
 282:.\Generated_Source\PSoC5/USBUART_1.c **** *          in the "Device Number" field.
 283:.\Generated_Source\PSoC5/USBUART_1.c **** *  mode: The operating voltage. This determines whether the voltage regulator
 284:.\Generated_Source\PSoC5/USBUART_1.c **** *        is enabled for 5V operation or if pass through mode is used for 3.3V
 285:.\Generated_Source\PSoC5/USBUART_1.c **** *        operation. Symbolic names and their associated values are given in the
 286:.\Generated_Source\PSoC5/USBUART_1.c **** *        following table.
 287:.\Generated_Source\PSoC5/USBUART_1.c **** *       USBUART_1_3V_OPERATION - Disable voltage regulator and pass-thru
 288:.\Generated_Source\PSoC5/USBUART_1.c **** *                                       Vcc for pull-up
 289:.\Generated_Source\PSoC5/USBUART_1.c **** *       USBUART_1_5V_OPERATION - Enable voltage regulator and use
 290:.\Generated_Source\PSoC5/USBUART_1.c **** *                                       regulator for pull-up
 291:.\Generated_Source\PSoC5/USBUART_1.c **** *       USBUART_1_DWR_VDDD_OPERATION - Enable or Disable voltage
 292:.\Generated_Source\PSoC5/USBUART_1.c **** *                         regulator depend on Vddd Voltage configuration in DWR.
 293:.\Generated_Source\PSoC5/USBUART_1.c **** *
 294:.\Generated_Source\PSoC5/USBUART_1.c **** * Return:
 295:.\Generated_Source\PSoC5/USBUART_1.c **** *   None.
 296:.\Generated_Source\PSoC5/USBUART_1.c **** *
 297:.\Generated_Source\PSoC5/USBUART_1.c **** * Global variables:
 298:.\Generated_Source\PSoC5/USBUART_1.c **** *   USBUART_1_device: Contains the device number of the desired device
 299:.\Generated_Source\PSoC5/USBUART_1.c **** *       descriptor. The device number can be found in the Device Descriptor Tab
 300:.\Generated_Source\PSoC5/USBUART_1.c **** *       of "Configure" dialog, under the settings of desired Device Descriptor,
 301:.\Generated_Source\PSoC5/USBUART_1.c **** *       in the "Device Number" field.
 302:.\Generated_Source\PSoC5/USBUART_1.c **** *   USBUART_1_transferState: This variable used by the communication
 303:.\Generated_Source\PSoC5/USBUART_1.c **** *       functions to handle current transfer state. Initialized to
 304:.\Generated_Source\PSoC5/USBUART_1.c **** *       TRANS_STATE_IDLE in this API.
 305:.\Generated_Source\PSoC5/USBUART_1.c **** *   USBUART_1_configuration: Contains current configuration number
 306:.\Generated_Source\PSoC5/USBUART_1.c **** *       which is set by the Host using SET_CONFIGURATION request.
 307:.\Generated_Source\PSoC5/USBUART_1.c **** *       Initialized to zero in this API.
 308:.\Generated_Source\PSoC5/USBUART_1.c **** *   USBUART_1_deviceAddress: Contains current device address. This
 309:.\Generated_Source\PSoC5/USBUART_1.c **** *       variable is initialized to zero in this API. Host starts to communicate
 310:.\Generated_Source\PSoC5/USBUART_1.c **** *      to device with address 0 and then set it to whatever value using
 311:.\Generated_Source\PSoC5/USBUART_1.c **** *      SET_ADDRESS request.
 312:.\Generated_Source\PSoC5/USBUART_1.c **** *   USBUART_1_deviceStatus: initialized to 0.
 313:.\Generated_Source\PSoC5/USBUART_1.c **** *       This is two bit variable which contain power status in first bit
 314:.\Generated_Source\PSoC5/USBUART_1.c **** *       (DEVICE_STATUS_BUS_POWERED or DEVICE_STATUS_SELF_POWERED) and remote
 315:.\Generated_Source\PSoC5/USBUART_1.c **** *       wakeup status (DEVICE_STATUS_REMOTE_WAKEUP) in second bit.
 316:.\Generated_Source\PSoC5/USBUART_1.c **** *   USBUART_1_lastPacketSize initialized to 0;
 317:.\Generated_Source\PSoC5/USBUART_1.c **** *
ARM GAS  C:\Users\Colin\AppData\Local\Temp\ccMAPRQY.s 			page 12


 318:.\Generated_Source\PSoC5/USBUART_1.c **** * Reentrant:
 319:.\Generated_Source\PSoC5/USBUART_1.c **** *  No.
 320:.\Generated_Source\PSoC5/USBUART_1.c **** *
 321:.\Generated_Source\PSoC5/USBUART_1.c **** *******************************************************************************/
 322:.\Generated_Source\PSoC5/USBUART_1.c **** void USBUART_1_InitComponent(uint8 device, uint8 mode) 
 323:.\Generated_Source\PSoC5/USBUART_1.c **** {
 311              		.loc 1 323 0
 312              		.cfi_startproc
 313              		@ args = 0, pretend = 0, frame = 16
 314              		@ frame_needed = 1, uses_anonymous_args = 0
 315 0000 80B5     		push	{r7, lr}
 316              	.LCFI6:
 317              		.cfi_def_cfa_offset 8
 318              		.cfi_offset 7, -8
 319              		.cfi_offset 14, -4
 320 0002 84B0     		sub	sp, sp, #16
 321              	.LCFI7:
 322              		.cfi_def_cfa_offset 24
 323 0004 00AF     		add	r7, sp, #0
 324              	.LCFI8:
 325              		.cfi_def_cfa_register 7
 326 0006 0246     		mov	r2, r0
 327 0008 0B46     		mov	r3, r1
 328 000a FA71     		strb	r2, [r7, #7]
 329 000c BB71     		strb	r3, [r7, #6]
 324:.\Generated_Source\PSoC5/USBUART_1.c ****     /* Initialize _hidProtocol variable to comply with
 325:.\Generated_Source\PSoC5/USBUART_1.c ****     *  HID 7.2.6 Set_Protocol Request:
 326:.\Generated_Source\PSoC5/USBUART_1.c ****     *  "When initialized, all devices default to report protocol."
 327:.\Generated_Source\PSoC5/USBUART_1.c ****     */
 328:.\Generated_Source\PSoC5/USBUART_1.c ****     #if defined(USBUART_1_ENABLE_HID_CLASS)
 329:.\Generated_Source\PSoC5/USBUART_1.c ****         uint8 i;
 330:.\Generated_Source\PSoC5/USBUART_1.c **** 
 331:.\Generated_Source\PSoC5/USBUART_1.c ****         for (i = 0u; i < USBUART_1_MAX_INTERFACES_NUMBER; i++)
 330              		.loc 1 331 0
 331 000e 4FF00003 		mov	r3, #0
 332 0012 FB73     		strb	r3, [r7, #15]
 333 0014 0BE0     		b	.L5
 334              	.L6:
 332:.\Generated_Source\PSoC5/USBUART_1.c ****         {
 333:.\Generated_Source\PSoC5/USBUART_1.c ****             USBUART_1_hidProtocol[i] = USBUART_1_PROTOCOL_REPORT;
 335              		.loc 1 333 0 discriminator 2
 336 0016 FA7B     		ldrb	r2, [r7, #15]	@ zero_extendqisi2
 337 0018 40F20003 		movw	r3, #:lower16:USBUART_1_hidProtocol
 338 001c C0F20003 		movt	r3, #:upper16:USBUART_1_hidProtocol
 339 0020 4FF00101 		mov	r1, #1
 340 0024 9954     		strb	r1, [r3, r2]
 331:.\Generated_Source\PSoC5/USBUART_1.c ****         for (i = 0u; i < USBUART_1_MAX_INTERFACES_NUMBER; i++)
 341              		.loc 1 331 0 discriminator 2
 342 0026 FB7B     		ldrb	r3, [r7, #15]
 343 0028 03F10103 		add	r3, r3, #1
 344 002c FB73     		strb	r3, [r7, #15]
 345              	.L5:
 331:.\Generated_Source\PSoC5/USBUART_1.c ****         for (i = 0u; i < USBUART_1_MAX_INTERFACES_NUMBER; i++)
 346              		.loc 1 331 0 is_stmt 0 discriminator 1
 347 002e FB7B     		ldrb	r3, [r7, #15]	@ zero_extendqisi2
 348 0030 012B     		cmp	r3, #1
 349 0032 F0D9     		bls	.L6
ARM GAS  C:\Users\Colin\AppData\Local\Temp\ccMAPRQY.s 			page 13


 334:.\Generated_Source\PSoC5/USBUART_1.c ****         }
 335:.\Generated_Source\PSoC5/USBUART_1.c ****     #endif /* USBUART_1_ENABLE_HID_CLASS */
 336:.\Generated_Source\PSoC5/USBUART_1.c **** 
 337:.\Generated_Source\PSoC5/USBUART_1.c ****     /* Enable Interrupts. */
 338:.\Generated_Source\PSoC5/USBUART_1.c ****     CyIntEnable(USBUART_1_BUS_RESET_VECT_NUM);
 350              		.loc 1 338 0 is_stmt 1
 351 0034 4FF46143 		mov	r3, #57600
 352 0038 CEF20003 		movt	r3, 57344
 353 003c 4FF40002 		mov	r2, #8388608
 354 0040 1A60     		str	r2, [r3, #0]
 339:.\Generated_Source\PSoC5/USBUART_1.c ****     CyIntEnable(USBUART_1_EP_0_VECT_NUM);
 355              		.loc 1 339 0
 356 0042 4FF46143 		mov	r3, #57600
 357 0046 CEF20003 		movt	r3, 57344
 358 004a 4FF08072 		mov	r2, #16777216
 359 004e 1A60     		str	r2, [r3, #0]
 340:.\Generated_Source\PSoC5/USBUART_1.c ****     #if(USBUART_1_EP1_ISR_REMOVE == 0u)
 341:.\Generated_Source\PSoC5/USBUART_1.c ****         CyIntEnable(USBUART_1_EP_1_VECT_NUM);
 360              		.loc 1 341 0
 361 0050 4FF46143 		mov	r3, #57600
 362 0054 CEF20003 		movt	r3, 57344
 363 0058 4FF00802 		mov	r2, #8
 364 005c 1A60     		str	r2, [r3, #0]
 342:.\Generated_Source\PSoC5/USBUART_1.c ****     #endif   /* End USBUART_1_EP1_ISR_REMOVE */
 343:.\Generated_Source\PSoC5/USBUART_1.c ****     #if(USBUART_1_EP2_ISR_REMOVE == 0u)
 344:.\Generated_Source\PSoC5/USBUART_1.c ****         CyIntEnable(USBUART_1_EP_2_VECT_NUM);
 365              		.loc 1 344 0
 366 005e 4FF46143 		mov	r3, #57600
 367 0062 CEF20003 		movt	r3, 57344
 368 0066 4FF01002 		mov	r2, #16
 369 006a 1A60     		str	r2, [r3, #0]
 345:.\Generated_Source\PSoC5/USBUART_1.c ****     #endif   /* End USBUART_1_EP2_ISR_REMOVE */
 346:.\Generated_Source\PSoC5/USBUART_1.c ****     #if(USBUART_1_EP3_ISR_REMOVE == 0u)
 347:.\Generated_Source\PSoC5/USBUART_1.c ****         CyIntEnable(USBUART_1_EP_3_VECT_NUM);
 370              		.loc 1 347 0
 371 006c 4FF46143 		mov	r3, #57600
 372 0070 CEF20003 		movt	r3, 57344
 373 0074 4FF02002 		mov	r2, #32
 374 0078 1A60     		str	r2, [r3, #0]
 348:.\Generated_Source\PSoC5/USBUART_1.c ****     #endif   /* End USBUART_1_EP3_ISR_REMOVE */
 349:.\Generated_Source\PSoC5/USBUART_1.c ****     #if(USBUART_1_EP4_ISR_REMOVE == 0u)
 350:.\Generated_Source\PSoC5/USBUART_1.c ****         CyIntEnable(USBUART_1_EP_4_VECT_NUM);
 351:.\Generated_Source\PSoC5/USBUART_1.c ****     #endif   /* End USBUART_1_EP4_ISR_REMOVE */
 352:.\Generated_Source\PSoC5/USBUART_1.c ****     #if(USBUART_1_EP5_ISR_REMOVE == 0u)
 353:.\Generated_Source\PSoC5/USBUART_1.c ****         CyIntEnable(USBUART_1_EP_5_VECT_NUM);
 354:.\Generated_Source\PSoC5/USBUART_1.c ****     #endif   /* End USBUART_1_EP5_ISR_REMOVE */
 355:.\Generated_Source\PSoC5/USBUART_1.c ****     #if(USBUART_1_EP6_ISR_REMOVE == 0u)
 356:.\Generated_Source\PSoC5/USBUART_1.c ****         CyIntEnable(USBUART_1_EP_6_VECT_NUM);
 357:.\Generated_Source\PSoC5/USBUART_1.c ****     #endif   /* End USBUART_1_EP6_ISR_REMOVE */
 358:.\Generated_Source\PSoC5/USBUART_1.c ****     #if(USBUART_1_EP7_ISR_REMOVE == 0u)
 359:.\Generated_Source\PSoC5/USBUART_1.c ****         CyIntEnable(USBUART_1_EP_7_VECT_NUM);
 360:.\Generated_Source\PSoC5/USBUART_1.c ****     #endif   /* End USBUART_1_EP7_ISR_REMOVE */
 361:.\Generated_Source\PSoC5/USBUART_1.c ****     #if(USBUART_1_EP8_ISR_REMOVE == 0u)
 362:.\Generated_Source\PSoC5/USBUART_1.c ****         CyIntEnable(USBUART_1_EP_8_VECT_NUM);
 363:.\Generated_Source\PSoC5/USBUART_1.c ****     #endif   /* End USBUART_1_EP8_ISR_REMOVE */
 364:.\Generated_Source\PSoC5/USBUART_1.c ****     #if((USBUART_1_EP_MM != USBUART_1__EP_MANUAL) && (USBUART_1_ARB_ISR_REMOVE == 0u))
 365:.\Generated_Source\PSoC5/USBUART_1.c ****         /* usb arb interrupt enable */
ARM GAS  C:\Users\Colin\AppData\Local\Temp\ccMAPRQY.s 			page 14


 366:.\Generated_Source\PSoC5/USBUART_1.c ****         USBUART_1_ARB_INT_EN_REG = USBUART_1_ARB_INT_MASK;
 367:.\Generated_Source\PSoC5/USBUART_1.c ****         CyIntEnable(USBUART_1_ARB_VECT_NUM);
 368:.\Generated_Source\PSoC5/USBUART_1.c ****     #endif   /* End USBUART_1_EP_MM != USBUART_1__EP_MANUAL */
 369:.\Generated_Source\PSoC5/USBUART_1.c **** 
 370:.\Generated_Source\PSoC5/USBUART_1.c ****     /* Arbiter configuration for DMA transfers */
 371:.\Generated_Source\PSoC5/USBUART_1.c ****     #if(USBUART_1_EP_MM != USBUART_1__EP_MANUAL)
 372:.\Generated_Source\PSoC5/USBUART_1.c **** 
 373:.\Generated_Source\PSoC5/USBUART_1.c ****         #if(USBUART_1_EP_MM == USBUART_1__EP_DMAMANUAL)
 374:.\Generated_Source\PSoC5/USBUART_1.c ****             USBUART_1_ARB_CFG_REG = USBUART_1_ARB_CFG_MANUAL_DMA;
 375:.\Generated_Source\PSoC5/USBUART_1.c ****         #endif   /* End USBUART_1_EP_MM == USBUART_1__EP_DMAMANUAL */
 376:.\Generated_Source\PSoC5/USBUART_1.c ****         #if(USBUART_1_EP_MM == USBUART_1__EP_DMAAUTO)
 377:.\Generated_Source\PSoC5/USBUART_1.c ****             /*Set cfg cmplt this rises DMA request when the full configuration is done */
 378:.\Generated_Source\PSoC5/USBUART_1.c ****             USBUART_1_ARB_CFG_REG = USBUART_1_ARB_CFG_AUTO_DMA | USBUART_1_ARB_CFG_AUTO_MEM;
 379:.\Generated_Source\PSoC5/USBUART_1.c ****         #endif   /* End USBUART_1_EP_MM == USBUART_1__EP_DMAAUTO */
 380:.\Generated_Source\PSoC5/USBUART_1.c ****     #endif   /* End USBUART_1_EP_MM != USBUART_1__EP_MANUAL */
 381:.\Generated_Source\PSoC5/USBUART_1.c **** 
 382:.\Generated_Source\PSoC5/USBUART_1.c ****     USBUART_1_transferState = USBUART_1_TRANS_STATE_IDLE;
 375              		.loc 1 382 0
 376 007a 40F20003 		movw	r3, #:lower16:USBUART_1_transferState
 377 007e C0F20003 		movt	r3, #:upper16:USBUART_1_transferState
 378 0082 4FF00002 		mov	r2, #0
 379 0086 1A70     		strb	r2, [r3, #0]
 383:.\Generated_Source\PSoC5/USBUART_1.c **** 
 384:.\Generated_Source\PSoC5/USBUART_1.c ****     /* USB Locking: Enabled, VRegulator: depend on mode or DWR Voltage configuration*/
 385:.\Generated_Source\PSoC5/USBUART_1.c ****     switch(mode)
 380              		.loc 1 385 0
 381 0088 BB79     		ldrb	r3, [r7, #6]	@ zero_extendqisi2
 382 008a 002B     		cmp	r3, #0
 383 008c 02D0     		beq	.L8
 384 008e 012B     		cmp	r3, #1
 385 0090 08D0     		beq	.L9
 386 0092 0FE0     		b	.L11
 387              	.L8:
 386:.\Generated_Source\PSoC5/USBUART_1.c ****     {
 387:.\Generated_Source\PSoC5/USBUART_1.c ****         case USBUART_1_3V_OPERATION:
 388:.\Generated_Source\PSoC5/USBUART_1.c ****             USBUART_1_CR1_REG = USBUART_1_CR1_ENABLE_LOCK;
 388              		.loc 1 388 0
 389 0094 46F20903 		movw	r3, #24585
 390 0098 C4F20003 		movt	r3, 16384
 391 009c 4FF00202 		mov	r2, #2
 392 00a0 1A70     		strb	r2, [r3, #0]
 389:.\Generated_Source\PSoC5/USBUART_1.c ****             break;
 393              		.loc 1 389 0
 394 00a2 0FE0     		b	.L10
 395              	.L9:
 390:.\Generated_Source\PSoC5/USBUART_1.c ****         case USBUART_1_5V_OPERATION:
 391:.\Generated_Source\PSoC5/USBUART_1.c ****             USBUART_1_CR1_REG = USBUART_1_CR1_ENABLE_LOCK | USBUART_1_CR1_REG_ENABLE;
 396              		.loc 1 391 0
 397 00a4 46F20903 		movw	r3, #24585
 398 00a8 C4F20003 		movt	r3, 16384
 399 00ac 4FF00302 		mov	r2, #3
 400 00b0 1A70     		strb	r2, [r3, #0]
 392:.\Generated_Source\PSoC5/USBUART_1.c ****             break;
 401              		.loc 1 392 0
 402 00b2 07E0     		b	.L10
 403              	.L11:
 393:.\Generated_Source\PSoC5/USBUART_1.c ****         default:   /*USBUART_1_DWR_VDDD_OPERATION */
ARM GAS  C:\Users\Colin\AppData\Local\Temp\ccMAPRQY.s 			page 15


 394:.\Generated_Source\PSoC5/USBUART_1.c ****             #if(USBUART_1_VDDD_MV < USBUART_1_3500MV)
 395:.\Generated_Source\PSoC5/USBUART_1.c ****                 USBUART_1_CR1_REG = USBUART_1_CR1_ENABLE_LOCK;
 404              		.loc 1 395 0
 405 00b4 46F20903 		movw	r3, #24585
 406 00b8 C4F20003 		movt	r3, 16384
 407 00bc 4FF00202 		mov	r2, #2
 408 00c0 1A70     		strb	r2, [r3, #0]
 396:.\Generated_Source\PSoC5/USBUART_1.c ****             #else
 397:.\Generated_Source\PSoC5/USBUART_1.c ****                 USBUART_1_CR1_REG = USBUART_1_CR1_ENABLE_LOCK | USBUART_1_CR1_REG_ENABLE;
 398:.\Generated_Source\PSoC5/USBUART_1.c ****             #endif /* End USBUART_1_VDDD_MV < USBUART_1_3500MV */
 399:.\Generated_Source\PSoC5/USBUART_1.c ****             break;
 409              		.loc 1 399 0
 410 00c2 00BF     		nop
 411              	.L10:
 400:.\Generated_Source\PSoC5/USBUART_1.c ****     }
 401:.\Generated_Source\PSoC5/USBUART_1.c **** 
 402:.\Generated_Source\PSoC5/USBUART_1.c ****     /* Record the descriptor selection */
 403:.\Generated_Source\PSoC5/USBUART_1.c ****     USBUART_1_device = device;
 412              		.loc 1 403 0
 413 00c4 40F20003 		movw	r3, #:lower16:USBUART_1_device
 414 00c8 C0F20003 		movt	r3, #:upper16:USBUART_1_device
 415 00cc FA79     		ldrb	r2, [r7, #7]
 416 00ce 1A70     		strb	r2, [r3, #0]
 404:.\Generated_Source\PSoC5/USBUART_1.c **** 
 405:.\Generated_Source\PSoC5/USBUART_1.c ****     /* Clear all of the component data */
 406:.\Generated_Source\PSoC5/USBUART_1.c ****     USBUART_1_configuration = 0u;
 417              		.loc 1 406 0
 418 00d0 40F20003 		movw	r3, #:lower16:USBUART_1_configuration
 419 00d4 C0F20003 		movt	r3, #:upper16:USBUART_1_configuration
 420 00d8 4FF00002 		mov	r2, #0
 421 00dc 1A70     		strb	r2, [r3, #0]
 407:.\Generated_Source\PSoC5/USBUART_1.c ****     USBUART_1_interfaceNumber = 0u;
 422              		.loc 1 407 0
 423 00de 40F20003 		movw	r3, #:lower16:USBUART_1_interfaceNumber
 424 00e2 C0F20003 		movt	r3, #:upper16:USBUART_1_interfaceNumber
 425 00e6 4FF00002 		mov	r2, #0
 426 00ea 1A70     		strb	r2, [r3, #0]
 408:.\Generated_Source\PSoC5/USBUART_1.c ****     USBUART_1_configurationChanged = 0u;
 427              		.loc 1 408 0
 428 00ec 40F20003 		movw	r3, #:lower16:USBUART_1_configurationChanged
 429 00f0 C0F20003 		movt	r3, #:upper16:USBUART_1_configurationChanged
 430 00f4 4FF00002 		mov	r2, #0
 431 00f8 1A70     		strb	r2, [r3, #0]
 409:.\Generated_Source\PSoC5/USBUART_1.c ****     USBUART_1_deviceAddress  = 0u;
 432              		.loc 1 409 0
 433 00fa 40F20003 		movw	r3, #:lower16:USBUART_1_deviceAddress
 434 00fe C0F20003 		movt	r3, #:upper16:USBUART_1_deviceAddress
 435 0102 4FF00002 		mov	r2, #0
 436 0106 1A70     		strb	r2, [r3, #0]
 410:.\Generated_Source\PSoC5/USBUART_1.c ****     USBUART_1_deviceStatus = 0u;
 437              		.loc 1 410 0
 438 0108 40F20003 		movw	r3, #:lower16:USBUART_1_deviceStatus
 439 010c C0F20003 		movt	r3, #:upper16:USBUART_1_deviceStatus
 440 0110 4FF00002 		mov	r2, #0
 441 0114 1A70     		strb	r2, [r3, #0]
 411:.\Generated_Source\PSoC5/USBUART_1.c **** 
 412:.\Generated_Source\PSoC5/USBUART_1.c ****     USBUART_1_lastPacketSize = 0u;
ARM GAS  C:\Users\Colin\AppData\Local\Temp\ccMAPRQY.s 			page 16


 442              		.loc 1 412 0
 443 0116 40F20003 		movw	r3, #:lower16:USBUART_1_lastPacketSize
 444 011a C0F20003 		movt	r3, #:upper16:USBUART_1_lastPacketSize
 445 011e 4FF00002 		mov	r2, #0
 446 0122 1A70     		strb	r2, [r3, #0]
 413:.\Generated_Source\PSoC5/USBUART_1.c **** 
 414:.\Generated_Source\PSoC5/USBUART_1.c ****     /*  ACK Setup, Stall IN/OUT */
 415:.\Generated_Source\PSoC5/USBUART_1.c ****     CY_SET_REG8(USBUART_1_EP0_CR_PTR, USBUART_1_MODE_STALL_IN_OUT);
 447              		.loc 1 415 0
 448 0124 46F22803 		movw	r3, #24616
 449 0128 C4F20003 		movt	r3, 16384
 450 012c 4FF00302 		mov	r2, #3
 451 0130 1A70     		strb	r2, [r3, #0]
 416:.\Generated_Source\PSoC5/USBUART_1.c **** 
 417:.\Generated_Source\PSoC5/USBUART_1.c ****     /* Enable the SIE with an address 0 */
 418:.\Generated_Source\PSoC5/USBUART_1.c ****     CY_SET_REG8(USBUART_1_CR0_PTR, USBUART_1_CR0_ENABLE);
 452              		.loc 1 418 0
 453 0132 46F20803 		movw	r3, #24584
 454 0136 C4F20003 		movt	r3, 16384
 455 013a 4FF08002 		mov	r2, #128
 456 013e 1A70     		strb	r2, [r3, #0]
 419:.\Generated_Source\PSoC5/USBUART_1.c **** 
 420:.\Generated_Source\PSoC5/USBUART_1.c ****     /* Workaround for PSOC5LP */
 421:.\Generated_Source\PSoC5/USBUART_1.c ****     CyDelayCycles(1u);
 457              		.loc 1 421 0
 458 0140 4FF00100 		mov	r0, #1
 459 0144 FFF7FEFF 		bl	CyDelayCycles
 422:.\Generated_Source\PSoC5/USBUART_1.c **** 
 423:.\Generated_Source\PSoC5/USBUART_1.c ****     /* Finally, Enable d+ pullup and select iomode to USB mode*/
 424:.\Generated_Source\PSoC5/USBUART_1.c ****     CY_SET_REG8(USBUART_1_USBIO_CR1_PTR, USBUART_1_USBIO_CR1_USBPUEN);
 460              		.loc 1 424 0
 461 0148 46F21203 		movw	r3, #24594
 462 014c C4F20003 		movt	r3, 16384
 463 0150 4FF00402 		mov	r2, #4
 464 0154 1A70     		strb	r2, [r3, #0]
 425:.\Generated_Source\PSoC5/USBUART_1.c **** }
 465              		.loc 1 425 0
 466 0156 07F11007 		add	r7, r7, #16
 467 015a BD46     		mov	sp, r7
 468 015c 80BD     		pop	{r7, pc}
 469              		.cfi_endproc
 470              	.LFE2:
 471              		.size	USBUART_1_InitComponent, .-USBUART_1_InitComponent
 472 015e 00BF     		.section	.text.USBUART_1_ReInitComponent,"ax",%progbits
 473              		.align	2
 474              		.global	USBUART_1_ReInitComponent
 475              		.thumb
 476              		.thumb_func
 477              		.type	USBUART_1_ReInitComponent, %function
 478              	USBUART_1_ReInitComponent:
 479              	.LFB3:
 426:.\Generated_Source\PSoC5/USBUART_1.c **** 
 427:.\Generated_Source\PSoC5/USBUART_1.c **** 
 428:.\Generated_Source\PSoC5/USBUART_1.c **** /*******************************************************************************
 429:.\Generated_Source\PSoC5/USBUART_1.c **** * Function Name: USBUART_1_ReInitComponent
 430:.\Generated_Source\PSoC5/USBUART_1.c **** ********************************************************************************
 431:.\Generated_Source\PSoC5/USBUART_1.c **** *
ARM GAS  C:\Users\Colin\AppData\Local\Temp\ccMAPRQY.s 			page 17


 432:.\Generated_Source\PSoC5/USBUART_1.c **** * Summary:
 433:.\Generated_Source\PSoC5/USBUART_1.c **** *  This function reinitialize the component configuration and is
 434:.\Generated_Source\PSoC5/USBUART_1.c **** *  intend to be called from the Reset interrupt.
 435:.\Generated_Source\PSoC5/USBUART_1.c **** *
 436:.\Generated_Source\PSoC5/USBUART_1.c **** * Parameters:
 437:.\Generated_Source\PSoC5/USBUART_1.c **** *  None.
 438:.\Generated_Source\PSoC5/USBUART_1.c **** *
 439:.\Generated_Source\PSoC5/USBUART_1.c **** * Return:
 440:.\Generated_Source\PSoC5/USBUART_1.c **** *   None.
 441:.\Generated_Source\PSoC5/USBUART_1.c **** *
 442:.\Generated_Source\PSoC5/USBUART_1.c **** * Global variables:
 443:.\Generated_Source\PSoC5/USBUART_1.c **** *   USBUART_1_device: Contains the device number of the desired device
 444:.\Generated_Source\PSoC5/USBUART_1.c **** *        descriptor. The device number can be found in the Device Descriptor Tab
 445:.\Generated_Source\PSoC5/USBUART_1.c **** *       of "Configure" dialog, under the settings of desired Device Descriptor,
 446:.\Generated_Source\PSoC5/USBUART_1.c **** *       in the "Device Number" field.
 447:.\Generated_Source\PSoC5/USBUART_1.c **** *   USBUART_1_transferState: This variable used by the communication
 448:.\Generated_Source\PSoC5/USBUART_1.c **** *       functions to handle current transfer state. Initialized to
 449:.\Generated_Source\PSoC5/USBUART_1.c **** *       TRANS_STATE_IDLE in this API.
 450:.\Generated_Source\PSoC5/USBUART_1.c **** *   USBUART_1_configuration: Contains current configuration number
 451:.\Generated_Source\PSoC5/USBUART_1.c **** *       which is set by the Host using SET_CONFIGURATION request.
 452:.\Generated_Source\PSoC5/USBUART_1.c **** *       Initialized to zero in this API.
 453:.\Generated_Source\PSoC5/USBUART_1.c **** *   USBUART_1_deviceAddress: Contains current device address. This
 454:.\Generated_Source\PSoC5/USBUART_1.c **** *       variable is initialized to zero in this API. Host starts to communicate
 455:.\Generated_Source\PSoC5/USBUART_1.c **** *      to device with address 0 and then set it to whatever value using
 456:.\Generated_Source\PSoC5/USBUART_1.c **** *      SET_ADDRESS request.
 457:.\Generated_Source\PSoC5/USBUART_1.c **** *   USBUART_1_deviceStatus: initialized to 0.
 458:.\Generated_Source\PSoC5/USBUART_1.c **** *       This is two bit variable which contain power status in first bit
 459:.\Generated_Source\PSoC5/USBUART_1.c **** *       (DEVICE_STATUS_BUS_POWERED or DEVICE_STATUS_SELF_POWERED) and remote
 460:.\Generated_Source\PSoC5/USBUART_1.c **** *       wakeup status (DEVICE_STATUS_REMOTE_WAKEUP) in second bit.
 461:.\Generated_Source\PSoC5/USBUART_1.c **** *   USBUART_1_lastPacketSize initialized to 0;
 462:.\Generated_Source\PSoC5/USBUART_1.c **** *
 463:.\Generated_Source\PSoC5/USBUART_1.c **** * Reentrant:
 464:.\Generated_Source\PSoC5/USBUART_1.c **** *  No.
 465:.\Generated_Source\PSoC5/USBUART_1.c **** *
 466:.\Generated_Source\PSoC5/USBUART_1.c **** *******************************************************************************/
 467:.\Generated_Source\PSoC5/USBUART_1.c **** void USBUART_1_ReInitComponent(void) 
 468:.\Generated_Source\PSoC5/USBUART_1.c **** {
 480              		.loc 1 468 0
 481              		.cfi_startproc
 482              		@ args = 0, pretend = 0, frame = 8
 483              		@ frame_needed = 1, uses_anonymous_args = 0
 484              		@ link register save eliminated.
 485 0000 80B4     		push	{r7}
 486              	.LCFI9:
 487              		.cfi_def_cfa_offset 4
 488              		.cfi_offset 7, -4
 489 0002 83B0     		sub	sp, sp, #12
 490              	.LCFI10:
 491              		.cfi_def_cfa_offset 16
 492 0004 00AF     		add	r7, sp, #0
 493              	.LCFI11:
 494              		.cfi_def_cfa_register 7
 469:.\Generated_Source\PSoC5/USBUART_1.c ****     /* Initialize _hidProtocol variable to comply with HID 7.2.6 Set_Protocol
 470:.\Generated_Source\PSoC5/USBUART_1.c ****     *  Request: "When initialized, all devices default to report protocol."
 471:.\Generated_Source\PSoC5/USBUART_1.c ****     */
 472:.\Generated_Source\PSoC5/USBUART_1.c ****     #if defined(USBUART_1_ENABLE_HID_CLASS)
 473:.\Generated_Source\PSoC5/USBUART_1.c ****         uint8 i;
ARM GAS  C:\Users\Colin\AppData\Local\Temp\ccMAPRQY.s 			page 18


 474:.\Generated_Source\PSoC5/USBUART_1.c **** 
 475:.\Generated_Source\PSoC5/USBUART_1.c ****         for (i = 0u; i < USBUART_1_MAX_INTERFACES_NUMBER; i++)
 495              		.loc 1 475 0
 496 0006 4FF00003 		mov	r3, #0
 497 000a FB71     		strb	r3, [r7, #7]
 498 000c 0BE0     		b	.L13
 499              	.L14:
 476:.\Generated_Source\PSoC5/USBUART_1.c ****         {
 477:.\Generated_Source\PSoC5/USBUART_1.c ****             USBUART_1_hidProtocol[i] = USBUART_1_PROTOCOL_REPORT;
 500              		.loc 1 477 0 discriminator 2
 501 000e FA79     		ldrb	r2, [r7, #7]	@ zero_extendqisi2
 502 0010 40F20003 		movw	r3, #:lower16:USBUART_1_hidProtocol
 503 0014 C0F20003 		movt	r3, #:upper16:USBUART_1_hidProtocol
 504 0018 4FF00101 		mov	r1, #1
 505 001c 9954     		strb	r1, [r3, r2]
 475:.\Generated_Source\PSoC5/USBUART_1.c ****         for (i = 0u; i < USBUART_1_MAX_INTERFACES_NUMBER; i++)
 506              		.loc 1 475 0 discriminator 2
 507 001e FB79     		ldrb	r3, [r7, #7]
 508 0020 03F10103 		add	r3, r3, #1
 509 0024 FB71     		strb	r3, [r7, #7]
 510              	.L13:
 475:.\Generated_Source\PSoC5/USBUART_1.c ****         for (i = 0u; i < USBUART_1_MAX_INTERFACES_NUMBER; i++)
 511              		.loc 1 475 0 is_stmt 0 discriminator 1
 512 0026 FB79     		ldrb	r3, [r7, #7]	@ zero_extendqisi2
 513 0028 012B     		cmp	r3, #1
 514 002a F0D9     		bls	.L14
 478:.\Generated_Source\PSoC5/USBUART_1.c ****         }
 479:.\Generated_Source\PSoC5/USBUART_1.c ****     #endif /* USBUART_1_ENABLE_HID_CLASS */
 480:.\Generated_Source\PSoC5/USBUART_1.c **** 
 481:.\Generated_Source\PSoC5/USBUART_1.c ****     USBUART_1_transferState = USBUART_1_TRANS_STATE_IDLE;
 515              		.loc 1 481 0 is_stmt 1
 516 002c 40F20003 		movw	r3, #:lower16:USBUART_1_transferState
 517 0030 C0F20003 		movt	r3, #:upper16:USBUART_1_transferState
 518 0034 4FF00002 		mov	r2, #0
 519 0038 1A70     		strb	r2, [r3, #0]
 482:.\Generated_Source\PSoC5/USBUART_1.c **** 
 483:.\Generated_Source\PSoC5/USBUART_1.c ****     /* Clear all of the component data */
 484:.\Generated_Source\PSoC5/USBUART_1.c ****     USBUART_1_configuration = 0u;
 520              		.loc 1 484 0
 521 003a 40F20003 		movw	r3, #:lower16:USBUART_1_configuration
 522 003e C0F20003 		movt	r3, #:upper16:USBUART_1_configuration
 523 0042 4FF00002 		mov	r2, #0
 524 0046 1A70     		strb	r2, [r3, #0]
 485:.\Generated_Source\PSoC5/USBUART_1.c ****     USBUART_1_interfaceNumber = 0u;
 525              		.loc 1 485 0
 526 0048 40F20003 		movw	r3, #:lower16:USBUART_1_interfaceNumber
 527 004c C0F20003 		movt	r3, #:upper16:USBUART_1_interfaceNumber
 528 0050 4FF00002 		mov	r2, #0
 529 0054 1A70     		strb	r2, [r3, #0]
 486:.\Generated_Source\PSoC5/USBUART_1.c ****     USBUART_1_configurationChanged = 0u;
 530              		.loc 1 486 0
 531 0056 40F20003 		movw	r3, #:lower16:USBUART_1_configurationChanged
 532 005a C0F20003 		movt	r3, #:upper16:USBUART_1_configurationChanged
 533 005e 4FF00002 		mov	r2, #0
 534 0062 1A70     		strb	r2, [r3, #0]
 487:.\Generated_Source\PSoC5/USBUART_1.c ****     USBUART_1_deviceAddress  = 0u;
 535              		.loc 1 487 0
ARM GAS  C:\Users\Colin\AppData\Local\Temp\ccMAPRQY.s 			page 19


 536 0064 40F20003 		movw	r3, #:lower16:USBUART_1_deviceAddress
 537 0068 C0F20003 		movt	r3, #:upper16:USBUART_1_deviceAddress
 538 006c 4FF00002 		mov	r2, #0
 539 0070 1A70     		strb	r2, [r3, #0]
 488:.\Generated_Source\PSoC5/USBUART_1.c ****     USBUART_1_deviceStatus = 0u;
 540              		.loc 1 488 0
 541 0072 40F20003 		movw	r3, #:lower16:USBUART_1_deviceStatus
 542 0076 C0F20003 		movt	r3, #:upper16:USBUART_1_deviceStatus
 543 007a 4FF00002 		mov	r2, #0
 544 007e 1A70     		strb	r2, [r3, #0]
 489:.\Generated_Source\PSoC5/USBUART_1.c **** 
 490:.\Generated_Source\PSoC5/USBUART_1.c ****     USBUART_1_lastPacketSize = 0u;
 545              		.loc 1 490 0
 546 0080 40F20003 		movw	r3, #:lower16:USBUART_1_lastPacketSize
 547 0084 C0F20003 		movt	r3, #:upper16:USBUART_1_lastPacketSize
 548 0088 4FF00002 		mov	r2, #0
 549 008c 1A70     		strb	r2, [r3, #0]
 491:.\Generated_Source\PSoC5/USBUART_1.c **** 
 492:.\Generated_Source\PSoC5/USBUART_1.c **** 
 493:.\Generated_Source\PSoC5/USBUART_1.c ****     /*  ACK Setup, Stall IN/OUT */
 494:.\Generated_Source\PSoC5/USBUART_1.c ****     CY_SET_REG8(USBUART_1_EP0_CR_PTR, USBUART_1_MODE_STALL_IN_OUT);
 550              		.loc 1 494 0
 551 008e 46F22803 		movw	r3, #24616
 552 0092 C4F20003 		movt	r3, 16384
 553 0096 4FF00302 		mov	r2, #3
 554 009a 1A70     		strb	r2, [r3, #0]
 495:.\Generated_Source\PSoC5/USBUART_1.c **** 
 496:.\Generated_Source\PSoC5/USBUART_1.c ****     /* Enable the SIE with an address 0 */
 497:.\Generated_Source\PSoC5/USBUART_1.c ****     CY_SET_REG8(USBUART_1_CR0_PTR, USBUART_1_CR0_ENABLE);
 555              		.loc 1 497 0
 556 009c 46F20803 		movw	r3, #24584
 557 00a0 C4F20003 		movt	r3, 16384
 558 00a4 4FF08002 		mov	r2, #128
 559 00a8 1A70     		strb	r2, [r3, #0]
 498:.\Generated_Source\PSoC5/USBUART_1.c **** 
 499:.\Generated_Source\PSoC5/USBUART_1.c **** }
 560              		.loc 1 499 0
 561 00aa 07F10C07 		add	r7, r7, #12
 562 00ae BD46     		mov	sp, r7
 563 00b0 80BC     		pop	{r7}
 564 00b2 7047     		bx	lr
 565              		.cfi_endproc
 566              	.LFE3:
 567              		.size	USBUART_1_ReInitComponent, .-USBUART_1_ReInitComponent
 568              		.section	.text.USBUART_1_Stop,"ax",%progbits
 569              		.align	2
 570              		.global	USBUART_1_Stop
 571              		.thumb
 572              		.thumb_func
 573              		.type	USBUART_1_Stop, %function
 574              	USBUART_1_Stop:
 575              	.LFB4:
 500:.\Generated_Source\PSoC5/USBUART_1.c **** 
 501:.\Generated_Source\PSoC5/USBUART_1.c **** 
 502:.\Generated_Source\PSoC5/USBUART_1.c **** /*******************************************************************************
 503:.\Generated_Source\PSoC5/USBUART_1.c **** * Function Name: USBUART_1_Stop
 504:.\Generated_Source\PSoC5/USBUART_1.c **** ********************************************************************************
ARM GAS  C:\Users\Colin\AppData\Local\Temp\ccMAPRQY.s 			page 20


 505:.\Generated_Source\PSoC5/USBUART_1.c **** *
 506:.\Generated_Source\PSoC5/USBUART_1.c **** * Summary:
 507:.\Generated_Source\PSoC5/USBUART_1.c **** *  This function shuts down the USB function including to release
 508:.\Generated_Source\PSoC5/USBUART_1.c **** *  the D+ Pullup and disabling the SIE.
 509:.\Generated_Source\PSoC5/USBUART_1.c **** *
 510:.\Generated_Source\PSoC5/USBUART_1.c **** * Parameters:
 511:.\Generated_Source\PSoC5/USBUART_1.c **** *  None.
 512:.\Generated_Source\PSoC5/USBUART_1.c **** *
 513:.\Generated_Source\PSoC5/USBUART_1.c **** * Return:
 514:.\Generated_Source\PSoC5/USBUART_1.c **** *  None.
 515:.\Generated_Source\PSoC5/USBUART_1.c **** *
 516:.\Generated_Source\PSoC5/USBUART_1.c **** * Global variables:
 517:.\Generated_Source\PSoC5/USBUART_1.c **** *   USBUART_1_configuration: Contains current configuration number
 518:.\Generated_Source\PSoC5/USBUART_1.c **** *       which is set by the Host using SET_CONFIGURATION request.
 519:.\Generated_Source\PSoC5/USBUART_1.c **** *       Initialized to zero in this API.
 520:.\Generated_Source\PSoC5/USBUART_1.c **** *   USBUART_1_deviceAddress: Contains current device address. This
 521:.\Generated_Source\PSoC5/USBUART_1.c **** *       variable is initialized to zero in this API. Host starts to communicate
 522:.\Generated_Source\PSoC5/USBUART_1.c **** *      to device with address 0 and then set it to whatever value using
 523:.\Generated_Source\PSoC5/USBUART_1.c **** *      SET_ADDRESS request.
 524:.\Generated_Source\PSoC5/USBUART_1.c **** *   USBUART_1_deviceStatus: initialized to 0.
 525:.\Generated_Source\PSoC5/USBUART_1.c **** *       This is two bit variable which contain power status in first bit
 526:.\Generated_Source\PSoC5/USBUART_1.c **** *       (DEVICE_STATUS_BUS_POWERED or DEVICE_STATUS_SELF_POWERED) and remote
 527:.\Generated_Source\PSoC5/USBUART_1.c **** *       wakeup status (DEVICE_STATUS_REMOTE_WAKEUP) in second bit.
 528:.\Generated_Source\PSoC5/USBUART_1.c **** *   USBUART_1_configurationChanged: This variable is set to one after
 529:.\Generated_Source\PSoC5/USBUART_1.c **** *       SET_CONFIGURATION request and cleared in this function.
 530:.\Generated_Source\PSoC5/USBUART_1.c **** *   USBUART_1_intiVar variable is set to zero
 531:.\Generated_Source\PSoC5/USBUART_1.c **** *
 532:.\Generated_Source\PSoC5/USBUART_1.c **** *******************************************************************************/
 533:.\Generated_Source\PSoC5/USBUART_1.c **** void USBUART_1_Stop(void) 
 534:.\Generated_Source\PSoC5/USBUART_1.c **** {
 576              		.loc 1 534 0
 577              		.cfi_startproc
 578              		@ args = 0, pretend = 0, frame = 0
 579              		@ frame_needed = 1, uses_anonymous_args = 0
 580              		@ link register save eliminated.
 581 0000 80B4     		push	{r7}
 582              	.LCFI12:
 583              		.cfi_def_cfa_offset 4
 584              		.cfi_offset 7, -4
 585 0002 00AF     		add	r7, sp, #0
 586              	.LCFI13:
 587              		.cfi_def_cfa_register 7
 535:.\Generated_Source\PSoC5/USBUART_1.c **** 
 536:.\Generated_Source\PSoC5/USBUART_1.c ****     #if(USBUART_1_EP_MM != USBUART_1__EP_MANUAL)
 537:.\Generated_Source\PSoC5/USBUART_1.c ****         USBUART_1_Stop_DMA(USBUART_1_MAX_EP);     /* Stop all DMAs */
 538:.\Generated_Source\PSoC5/USBUART_1.c ****     #endif   /* End USBUART_1_EP_MM != USBUART_1__EP_MANUAL */
 539:.\Generated_Source\PSoC5/USBUART_1.c **** 
 540:.\Generated_Source\PSoC5/USBUART_1.c ****     /* Disable the SIE */
 541:.\Generated_Source\PSoC5/USBUART_1.c ****     USBUART_1_CR0_REG &= (uint8)(~USBUART_1_CR0_ENABLE);
 588              		.loc 1 541 0
 589 0004 46F20803 		movw	r3, #24584
 590 0008 C4F20003 		movt	r3, 16384
 591 000c 46F20802 		movw	r2, #24584
 592 0010 C4F20002 		movt	r2, 16384
 593 0014 1278     		ldrb	r2, [r2, #0]
 594 0016 D2B2     		uxtb	r2, r2
 595 0018 02F07F02 		and	r2, r2, #127
ARM GAS  C:\Users\Colin\AppData\Local\Temp\ccMAPRQY.s 			page 21


 596 001c D2B2     		uxtb	r2, r2
 597 001e 1A70     		strb	r2, [r3, #0]
 542:.\Generated_Source\PSoC5/USBUART_1.c ****     /* Disable the d+ pullup */
 543:.\Generated_Source\PSoC5/USBUART_1.c ****     USBUART_1_USBIO_CR1_REG &= (uint8)(~USBUART_1_USBIO_CR1_USBPUEN);
 598              		.loc 1 543 0
 599 0020 46F21203 		movw	r3, #24594
 600 0024 C4F20003 		movt	r3, 16384
 601 0028 46F21202 		movw	r2, #24594
 602 002c C4F20002 		movt	r2, 16384
 603 0030 1278     		ldrb	r2, [r2, #0]
 604 0032 D2B2     		uxtb	r2, r2
 605 0034 22F00402 		bic	r2, r2, #4
 606 0038 D2B2     		uxtb	r2, r2
 607 003a 1A70     		strb	r2, [r3, #0]
 544:.\Generated_Source\PSoC5/USBUART_1.c ****     /* Disable USB in ACT PM */
 545:.\Generated_Source\PSoC5/USBUART_1.c ****     USBUART_1_PM_ACT_CFG_REG &= (uint8)(~USBUART_1_PM_ACT_EN_FSUSB);
 608              		.loc 1 545 0
 609 003c 44F2A533 		movw	r3, #17317
 610 0040 C4F20003 		movt	r3, 16384
 611 0044 44F2A532 		movw	r2, #17317
 612 0048 C4F20002 		movt	r2, 16384
 613 004c 1278     		ldrb	r2, [r2, #0]
 614 004e D2B2     		uxtb	r2, r2
 615 0050 22F00102 		bic	r2, r2, #1
 616 0054 D2B2     		uxtb	r2, r2
 617 0056 1A70     		strb	r2, [r3, #0]
 546:.\Generated_Source\PSoC5/USBUART_1.c ****     /* Disable USB block for Standby Power Mode */
 547:.\Generated_Source\PSoC5/USBUART_1.c ****     USBUART_1_PM_STBY_CFG_REG &= (uint8)(~USBUART_1_PM_STBY_EN_FSUSB);
 618              		.loc 1 547 0
 619 0058 44F2B533 		movw	r3, #17333
 620 005c C4F20003 		movt	r3, 16384
 621 0060 44F2B532 		movw	r2, #17333
 622 0064 C4F20002 		movt	r2, 16384
 623 0068 1278     		ldrb	r2, [r2, #0]
 624 006a D2B2     		uxtb	r2, r2
 625 006c 22F00102 		bic	r2, r2, #1
 626 0070 D2B2     		uxtb	r2, r2
 627 0072 1A70     		strb	r2, [r3, #0]
 548:.\Generated_Source\PSoC5/USBUART_1.c **** 
 549:.\Generated_Source\PSoC5/USBUART_1.c ****     /* Disable the reset and EP interrupts */
 550:.\Generated_Source\PSoC5/USBUART_1.c ****     CyIntDisable(USBUART_1_BUS_RESET_VECT_NUM);
 628              		.loc 1 550 0
 629 0074 4EF28013 		movw	r3, #57728
 630 0078 CEF20003 		movt	r3, 57344
 631 007c 4FF40002 		mov	r2, #8388608
 632 0080 1A60     		str	r2, [r3, #0]
 551:.\Generated_Source\PSoC5/USBUART_1.c ****     CyIntDisable(USBUART_1_EP_0_VECT_NUM);
 633              		.loc 1 551 0
 634 0082 4EF28013 		movw	r3, #57728
 635 0086 CEF20003 		movt	r3, 57344
 636 008a 4FF08072 		mov	r2, #16777216
 637 008e 1A60     		str	r2, [r3, #0]
 552:.\Generated_Source\PSoC5/USBUART_1.c ****     #if(USBUART_1_EP1_ISR_REMOVE == 0u)
 553:.\Generated_Source\PSoC5/USBUART_1.c ****         CyIntDisable(USBUART_1_EP_1_VECT_NUM);
 638              		.loc 1 553 0
 639 0090 4EF28013 		movw	r3, #57728
 640 0094 CEF20003 		movt	r3, 57344
ARM GAS  C:\Users\Colin\AppData\Local\Temp\ccMAPRQY.s 			page 22


 641 0098 4FF00802 		mov	r2, #8
 642 009c 1A60     		str	r2, [r3, #0]
 554:.\Generated_Source\PSoC5/USBUART_1.c ****     #endif   /* End USBUART_1_EP1_ISR_REMOVE */
 555:.\Generated_Source\PSoC5/USBUART_1.c ****     #if(USBUART_1_EP2_ISR_REMOVE == 0u)
 556:.\Generated_Source\PSoC5/USBUART_1.c ****         CyIntDisable(USBUART_1_EP_2_VECT_NUM);
 643              		.loc 1 556 0
 644 009e 4EF28013 		movw	r3, #57728
 645 00a2 CEF20003 		movt	r3, 57344
 646 00a6 4FF01002 		mov	r2, #16
 647 00aa 1A60     		str	r2, [r3, #0]
 557:.\Generated_Source\PSoC5/USBUART_1.c ****     #endif   /* End USBUART_1_EP2_ISR_REMOVE */
 558:.\Generated_Source\PSoC5/USBUART_1.c ****     #if(USBUART_1_EP3_ISR_REMOVE == 0u)
 559:.\Generated_Source\PSoC5/USBUART_1.c ****         CyIntDisable(USBUART_1_EP_3_VECT_NUM);
 648              		.loc 1 559 0
 649 00ac 4EF28013 		movw	r3, #57728
 650 00b0 CEF20003 		movt	r3, 57344
 651 00b4 4FF02002 		mov	r2, #32
 652 00b8 1A60     		str	r2, [r3, #0]
 560:.\Generated_Source\PSoC5/USBUART_1.c ****     #endif   /* End USBUART_1_EP3_ISR_REMOVE */
 561:.\Generated_Source\PSoC5/USBUART_1.c ****     #if(USBUART_1_EP4_ISR_REMOVE == 0u)
 562:.\Generated_Source\PSoC5/USBUART_1.c ****         CyIntDisable(USBUART_1_EP_4_VECT_NUM);
 563:.\Generated_Source\PSoC5/USBUART_1.c ****     #endif   /* End USBUART_1_EP4_ISR_REMOVE */
 564:.\Generated_Source\PSoC5/USBUART_1.c ****     #if(USBUART_1_EP5_ISR_REMOVE == 0u)
 565:.\Generated_Source\PSoC5/USBUART_1.c ****         CyIntDisable(USBUART_1_EP_5_VECT_NUM);
 566:.\Generated_Source\PSoC5/USBUART_1.c ****     #endif   /* End USBUART_1_EP5_ISR_REMOVE */
 567:.\Generated_Source\PSoC5/USBUART_1.c ****     #if(USBUART_1_EP6_ISR_REMOVE == 0u)
 568:.\Generated_Source\PSoC5/USBUART_1.c ****         CyIntDisable(USBUART_1_EP_6_VECT_NUM);
 569:.\Generated_Source\PSoC5/USBUART_1.c ****     #endif   /* End USBUART_1_EP6_ISR_REMOVE */
 570:.\Generated_Source\PSoC5/USBUART_1.c ****     #if(USBUART_1_EP7_ISR_REMOVE == 0u)
 571:.\Generated_Source\PSoC5/USBUART_1.c ****         CyIntDisable(USBUART_1_EP_7_VECT_NUM);
 572:.\Generated_Source\PSoC5/USBUART_1.c ****     #endif   /* End USBUART_1_EP7_ISR_REMOVE */
 573:.\Generated_Source\PSoC5/USBUART_1.c ****     #if(USBUART_1_EP8_ISR_REMOVE == 0u)
 574:.\Generated_Source\PSoC5/USBUART_1.c ****         CyIntDisable(USBUART_1_EP_8_VECT_NUM);
 575:.\Generated_Source\PSoC5/USBUART_1.c ****     #endif   /* End USBUART_1_EP8_ISR_REMOVE */
 576:.\Generated_Source\PSoC5/USBUART_1.c **** 
 577:.\Generated_Source\PSoC5/USBUART_1.c ****     /* Clear all of the component data */
 578:.\Generated_Source\PSoC5/USBUART_1.c ****     USBUART_1_configuration = 0u;
 653              		.loc 1 578 0
 654 00ba 40F20003 		movw	r3, #:lower16:USBUART_1_configuration
 655 00be C0F20003 		movt	r3, #:upper16:USBUART_1_configuration
 656 00c2 4FF00002 		mov	r2, #0
 657 00c6 1A70     		strb	r2, [r3, #0]
 579:.\Generated_Source\PSoC5/USBUART_1.c ****     USBUART_1_interfaceNumber = 0u;
 658              		.loc 1 579 0
 659 00c8 40F20003 		movw	r3, #:lower16:USBUART_1_interfaceNumber
 660 00cc C0F20003 		movt	r3, #:upper16:USBUART_1_interfaceNumber
 661 00d0 4FF00002 		mov	r2, #0
 662 00d4 1A70     		strb	r2, [r3, #0]
 580:.\Generated_Source\PSoC5/USBUART_1.c ****     USBUART_1_configurationChanged = 0u;
 663              		.loc 1 580 0
 664 00d6 40F20003 		movw	r3, #:lower16:USBUART_1_configurationChanged
 665 00da C0F20003 		movt	r3, #:upper16:USBUART_1_configurationChanged
 666 00de 4FF00002 		mov	r2, #0
 667 00e2 1A70     		strb	r2, [r3, #0]
 581:.\Generated_Source\PSoC5/USBUART_1.c ****     USBUART_1_deviceAddress  = 0u;
 668              		.loc 1 581 0
 669 00e4 40F20003 		movw	r3, #:lower16:USBUART_1_deviceAddress
ARM GAS  C:\Users\Colin\AppData\Local\Temp\ccMAPRQY.s 			page 23


 670 00e8 C0F20003 		movt	r3, #:upper16:USBUART_1_deviceAddress
 671 00ec 4FF00002 		mov	r2, #0
 672 00f0 1A70     		strb	r2, [r3, #0]
 582:.\Generated_Source\PSoC5/USBUART_1.c ****     USBUART_1_deviceStatus = 0u;
 673              		.loc 1 582 0
 674 00f2 40F20003 		movw	r3, #:lower16:USBUART_1_deviceStatus
 675 00f6 C0F20003 		movt	r3, #:upper16:USBUART_1_deviceStatus
 676 00fa 4FF00002 		mov	r2, #0
 677 00fe 1A70     		strb	r2, [r3, #0]
 583:.\Generated_Source\PSoC5/USBUART_1.c ****     USBUART_1_initVar = 0u;
 678              		.loc 1 583 0
 679 0100 40F20003 		movw	r3, #:lower16:USBUART_1_initVar
 680 0104 C0F20003 		movt	r3, #:upper16:USBUART_1_initVar
 681 0108 4FF00002 		mov	r2, #0
 682 010c 1A70     		strb	r2, [r3, #0]
 584:.\Generated_Source\PSoC5/USBUART_1.c **** 
 585:.\Generated_Source\PSoC5/USBUART_1.c **** }
 683              		.loc 1 585 0
 684 010e BD46     		mov	sp, r7
 685 0110 80BC     		pop	{r7}
 686 0112 7047     		bx	lr
 687              		.cfi_endproc
 688              	.LFE4:
 689              		.size	USBUART_1_Stop, .-USBUART_1_Stop
 690              		.section	.text.USBUART_1_CheckActivity,"ax",%progbits
 691              		.align	2
 692              		.global	USBUART_1_CheckActivity
 693              		.thumb
 694              		.thumb_func
 695              		.type	USBUART_1_CheckActivity, %function
 696              	USBUART_1_CheckActivity:
 697              	.LFB5:
 586:.\Generated_Source\PSoC5/USBUART_1.c **** 
 587:.\Generated_Source\PSoC5/USBUART_1.c **** 
 588:.\Generated_Source\PSoC5/USBUART_1.c **** /*******************************************************************************
 589:.\Generated_Source\PSoC5/USBUART_1.c **** * Function Name: USBUART_1_CheckActivity
 590:.\Generated_Source\PSoC5/USBUART_1.c **** ********************************************************************************
 591:.\Generated_Source\PSoC5/USBUART_1.c **** *
 592:.\Generated_Source\PSoC5/USBUART_1.c **** * Summary:
 593:.\Generated_Source\PSoC5/USBUART_1.c **** *  Returns the activity status of the bus.  Clears the status hardware to
 594:.\Generated_Source\PSoC5/USBUART_1.c **** *  provide fresh activity status on the next call of this routine.
 595:.\Generated_Source\PSoC5/USBUART_1.c **** *
 596:.\Generated_Source\PSoC5/USBUART_1.c **** * Parameters:
 597:.\Generated_Source\PSoC5/USBUART_1.c **** *  None.
 598:.\Generated_Source\PSoC5/USBUART_1.c **** *
 599:.\Generated_Source\PSoC5/USBUART_1.c **** * Return:
 600:.\Generated_Source\PSoC5/USBUART_1.c **** *  1 - If bus activity was detected since the last call to this function
 601:.\Generated_Source\PSoC5/USBUART_1.c **** *  0 - If bus activity not was detected since the last call to this function
 602:.\Generated_Source\PSoC5/USBUART_1.c **** *
 603:.\Generated_Source\PSoC5/USBUART_1.c **** *******************************************************************************/
 604:.\Generated_Source\PSoC5/USBUART_1.c **** uint8 USBUART_1_CheckActivity(void) 
 605:.\Generated_Source\PSoC5/USBUART_1.c **** {
 698              		.loc 1 605 0
 699              		.cfi_startproc
 700              		@ args = 0, pretend = 0, frame = 8
 701              		@ frame_needed = 1, uses_anonymous_args = 0
 702              		@ link register save eliminated.
ARM GAS  C:\Users\Colin\AppData\Local\Temp\ccMAPRQY.s 			page 24


 703 0000 80B4     		push	{r7}
 704              	.LCFI14:
 705              		.cfi_def_cfa_offset 4
 706              		.cfi_offset 7, -4
 707 0002 83B0     		sub	sp, sp, #12
 708              	.LCFI15:
 709              		.cfi_def_cfa_offset 16
 710 0004 00AF     		add	r7, sp, #0
 711              	.LCFI16:
 712              		.cfi_def_cfa_register 7
 606:.\Generated_Source\PSoC5/USBUART_1.c ****     uint8 r;
 607:.\Generated_Source\PSoC5/USBUART_1.c **** 
 608:.\Generated_Source\PSoC5/USBUART_1.c ****     r = CY_GET_REG8(USBUART_1_CR1_PTR);
 713              		.loc 1 608 0
 714 0006 46F20903 		movw	r3, #24585
 715 000a C4F20003 		movt	r3, 16384
 716 000e 1B78     		ldrb	r3, [r3, #0]
 717 0010 FB71     		strb	r3, [r7, #7]
 609:.\Generated_Source\PSoC5/USBUART_1.c ****     CY_SET_REG8(USBUART_1_CR1_PTR, (r & ((uint8)(~USBUART_1_CR1_BUS_ACTIVITY))));
 718              		.loc 1 609 0
 719 0012 46F20903 		movw	r3, #24585
 720 0016 C4F20003 		movt	r3, 16384
 721 001a FA79     		ldrb	r2, [r7, #7]
 722 001c 22F00402 		bic	r2, r2, #4
 723 0020 D2B2     		uxtb	r2, r2
 724 0022 1A70     		strb	r2, [r3, #0]
 610:.\Generated_Source\PSoC5/USBUART_1.c **** 
 611:.\Generated_Source\PSoC5/USBUART_1.c ****     return((r & USBUART_1_CR1_BUS_ACTIVITY) >> USBUART_1_CR1_BUS_ACTIVITY_SHIFT);
 725              		.loc 1 611 0
 726 0024 FB79     		ldrb	r3, [r7, #7]	@ zero_extendqisi2
 727 0026 03F00403 		and	r3, r3, #4
 728 002a 4FEAA303 		asr	r3, r3, #2
 729 002e DBB2     		uxtb	r3, r3
 612:.\Generated_Source\PSoC5/USBUART_1.c **** }
 730              		.loc 1 612 0
 731 0030 1846     		mov	r0, r3
 732 0032 07F10C07 		add	r7, r7, #12
 733 0036 BD46     		mov	sp, r7
 734 0038 80BC     		pop	{r7}
 735 003a 7047     		bx	lr
 736              		.cfi_endproc
 737              	.LFE5:
 738              		.size	USBUART_1_CheckActivity, .-USBUART_1_CheckActivity
 739              		.section	.text.USBUART_1_GetConfiguration,"ax",%progbits
 740              		.align	2
 741              		.global	USBUART_1_GetConfiguration
 742              		.thumb
 743              		.thumb_func
 744              		.type	USBUART_1_GetConfiguration, %function
 745              	USBUART_1_GetConfiguration:
 746              	.LFB6:
 613:.\Generated_Source\PSoC5/USBUART_1.c **** 
 614:.\Generated_Source\PSoC5/USBUART_1.c **** 
 615:.\Generated_Source\PSoC5/USBUART_1.c **** /*******************************************************************************
 616:.\Generated_Source\PSoC5/USBUART_1.c **** * Function Name: USBUART_1_GetConfiguration
 617:.\Generated_Source\PSoC5/USBUART_1.c **** ********************************************************************************
 618:.\Generated_Source\PSoC5/USBUART_1.c **** *
ARM GAS  C:\Users\Colin\AppData\Local\Temp\ccMAPRQY.s 			page 25


 619:.\Generated_Source\PSoC5/USBUART_1.c **** * Summary:
 620:.\Generated_Source\PSoC5/USBUART_1.c **** *  Returns the current configuration setting
 621:.\Generated_Source\PSoC5/USBUART_1.c **** *
 622:.\Generated_Source\PSoC5/USBUART_1.c **** * Parameters:
 623:.\Generated_Source\PSoC5/USBUART_1.c **** *  None.
 624:.\Generated_Source\PSoC5/USBUART_1.c **** *
 625:.\Generated_Source\PSoC5/USBUART_1.c **** * Return:
 626:.\Generated_Source\PSoC5/USBUART_1.c **** *  configuration.
 627:.\Generated_Source\PSoC5/USBUART_1.c **** *
 628:.\Generated_Source\PSoC5/USBUART_1.c **** *******************************************************************************/
 629:.\Generated_Source\PSoC5/USBUART_1.c **** uint8 USBUART_1_GetConfiguration(void) 
 630:.\Generated_Source\PSoC5/USBUART_1.c **** {
 747              		.loc 1 630 0
 748              		.cfi_startproc
 749              		@ args = 0, pretend = 0, frame = 0
 750              		@ frame_needed = 1, uses_anonymous_args = 0
 751              		@ link register save eliminated.
 752 0000 80B4     		push	{r7}
 753              	.LCFI17:
 754              		.cfi_def_cfa_offset 4
 755              		.cfi_offset 7, -4
 756 0002 00AF     		add	r7, sp, #0
 757              	.LCFI18:
 758              		.cfi_def_cfa_register 7
 631:.\Generated_Source\PSoC5/USBUART_1.c ****     return(USBUART_1_configuration);
 759              		.loc 1 631 0
 760 0004 40F20003 		movw	r3, #:lower16:USBUART_1_configuration
 761 0008 C0F20003 		movt	r3, #:upper16:USBUART_1_configuration
 762 000c 1B78     		ldrb	r3, [r3, #0]
 763 000e DBB2     		uxtb	r3, r3
 632:.\Generated_Source\PSoC5/USBUART_1.c **** }
 764              		.loc 1 632 0
 765 0010 1846     		mov	r0, r3
 766 0012 BD46     		mov	sp, r7
 767 0014 80BC     		pop	{r7}
 768 0016 7047     		bx	lr
 769              		.cfi_endproc
 770              	.LFE6:
 771              		.size	USBUART_1_GetConfiguration, .-USBUART_1_GetConfiguration
 772              		.section	.text.USBUART_1_IsConfigurationChanged,"ax",%progbits
 773              		.align	2
 774              		.global	USBUART_1_IsConfigurationChanged
 775              		.thumb
 776              		.thumb_func
 777              		.type	USBUART_1_IsConfigurationChanged, %function
 778              	USBUART_1_IsConfigurationChanged:
 779              	.LFB7:
 633:.\Generated_Source\PSoC5/USBUART_1.c **** 
 634:.\Generated_Source\PSoC5/USBUART_1.c **** 
 635:.\Generated_Source\PSoC5/USBUART_1.c **** /*******************************************************************************
 636:.\Generated_Source\PSoC5/USBUART_1.c **** * Function Name: USBUART_1_IsConfigurationChanged
 637:.\Generated_Source\PSoC5/USBUART_1.c **** ********************************************************************************
 638:.\Generated_Source\PSoC5/USBUART_1.c **** *
 639:.\Generated_Source\PSoC5/USBUART_1.c **** * Summary:
 640:.\Generated_Source\PSoC5/USBUART_1.c **** *  Returns the clear on read configuration state. It is usefull when PC send
 641:.\Generated_Source\PSoC5/USBUART_1.c **** *  double SET_CONFIGURATION request with same configuration number.
 642:.\Generated_Source\PSoC5/USBUART_1.c **** *
ARM GAS  C:\Users\Colin\AppData\Local\Temp\ccMAPRQY.s 			page 26


 643:.\Generated_Source\PSoC5/USBUART_1.c **** * Parameters:
 644:.\Generated_Source\PSoC5/USBUART_1.c **** *  None.
 645:.\Generated_Source\PSoC5/USBUART_1.c **** *
 646:.\Generated_Source\PSoC5/USBUART_1.c **** * Return:
 647:.\Generated_Source\PSoC5/USBUART_1.c **** *  Not zero value when new configuration has been changed, otherwise zero is
 648:.\Generated_Source\PSoC5/USBUART_1.c **** *  returned.
 649:.\Generated_Source\PSoC5/USBUART_1.c **** *
 650:.\Generated_Source\PSoC5/USBUART_1.c **** * Global variables:
 651:.\Generated_Source\PSoC5/USBUART_1.c **** *   USBUART_1_configurationChanged: This variable is set to one after
 652:.\Generated_Source\PSoC5/USBUART_1.c **** *       SET_CONFIGURATION request and cleared in this function.
 653:.\Generated_Source\PSoC5/USBUART_1.c **** *
 654:.\Generated_Source\PSoC5/USBUART_1.c **** *******************************************************************************/
 655:.\Generated_Source\PSoC5/USBUART_1.c **** uint8 USBUART_1_IsConfigurationChanged(void) 
 656:.\Generated_Source\PSoC5/USBUART_1.c **** {
 780              		.loc 1 656 0
 781              		.cfi_startproc
 782              		@ args = 0, pretend = 0, frame = 8
 783              		@ frame_needed = 1, uses_anonymous_args = 0
 784              		@ link register save eliminated.
 785 0000 80B4     		push	{r7}
 786              	.LCFI19:
 787              		.cfi_def_cfa_offset 4
 788              		.cfi_offset 7, -4
 789 0002 83B0     		sub	sp, sp, #12
 790              	.LCFI20:
 791              		.cfi_def_cfa_offset 16
 792 0004 00AF     		add	r7, sp, #0
 793              	.LCFI21:
 794              		.cfi_def_cfa_register 7
 657:.\Generated_Source\PSoC5/USBUART_1.c ****     uint8 res = 0u;
 795              		.loc 1 657 0
 796 0006 4FF00003 		mov	r3, #0
 797 000a FB71     		strb	r3, [r7, #7]
 658:.\Generated_Source\PSoC5/USBUART_1.c **** 
 659:.\Generated_Source\PSoC5/USBUART_1.c ****     if(USBUART_1_configurationChanged != 0u)
 798              		.loc 1 659 0
 799 000c 40F20003 		movw	r3, #:lower16:USBUART_1_configurationChanged
 800 0010 C0F20003 		movt	r3, #:upper16:USBUART_1_configurationChanged
 801 0014 1B78     		ldrb	r3, [r3, #0]
 802 0016 DBB2     		uxtb	r3, r3
 803 0018 002B     		cmp	r3, #0
 804 001a 0CD0     		beq	.L21
 660:.\Generated_Source\PSoC5/USBUART_1.c ****     {
 661:.\Generated_Source\PSoC5/USBUART_1.c ****         res = USBUART_1_configurationChanged;
 805              		.loc 1 661 0
 806 001c 40F20003 		movw	r3, #:lower16:USBUART_1_configurationChanged
 807 0020 C0F20003 		movt	r3, #:upper16:USBUART_1_configurationChanged
 808 0024 1B78     		ldrb	r3, [r3, #0]
 809 0026 FB71     		strb	r3, [r7, #7]
 662:.\Generated_Source\PSoC5/USBUART_1.c ****         USBUART_1_configurationChanged = 0u;
 810              		.loc 1 662 0
 811 0028 40F20003 		movw	r3, #:lower16:USBUART_1_configurationChanged
 812 002c C0F20003 		movt	r3, #:upper16:USBUART_1_configurationChanged
 813 0030 4FF00002 		mov	r2, #0
 814 0034 1A70     		strb	r2, [r3, #0]
 815              	.L21:
 663:.\Generated_Source\PSoC5/USBUART_1.c ****     }
ARM GAS  C:\Users\Colin\AppData\Local\Temp\ccMAPRQY.s 			page 27


 664:.\Generated_Source\PSoC5/USBUART_1.c **** 
 665:.\Generated_Source\PSoC5/USBUART_1.c ****     return(res);
 816              		.loc 1 665 0
 817 0036 FB79     		ldrb	r3, [r7, #7]	@ zero_extendqisi2
 666:.\Generated_Source\PSoC5/USBUART_1.c **** }
 818              		.loc 1 666 0
 819 0038 1846     		mov	r0, r3
 820 003a 07F10C07 		add	r7, r7, #12
 821 003e BD46     		mov	sp, r7
 822 0040 80BC     		pop	{r7}
 823 0042 7047     		bx	lr
 824              		.cfi_endproc
 825              	.LFE7:
 826              		.size	USBUART_1_IsConfigurationChanged, .-USBUART_1_IsConfigurationChanged
 827              		.section	.text.USBUART_1_GetInterfaceSetting,"ax",%progbits
 828              		.align	2
 829              		.global	USBUART_1_GetInterfaceSetting
 830              		.thumb
 831              		.thumb_func
 832              		.type	USBUART_1_GetInterfaceSetting, %function
 833              	USBUART_1_GetInterfaceSetting:
 834              	.LFB8:
 667:.\Generated_Source\PSoC5/USBUART_1.c **** 
 668:.\Generated_Source\PSoC5/USBUART_1.c **** 
 669:.\Generated_Source\PSoC5/USBUART_1.c **** /*******************************************************************************
 670:.\Generated_Source\PSoC5/USBUART_1.c **** * Function Name: USBUART_1_GetInterfaceSetting
 671:.\Generated_Source\PSoC5/USBUART_1.c **** ********************************************************************************
 672:.\Generated_Source\PSoC5/USBUART_1.c **** *
 673:.\Generated_Source\PSoC5/USBUART_1.c **** * Summary:
 674:.\Generated_Source\PSoC5/USBUART_1.c **** *  Returns the alternate setting from current interface
 675:.\Generated_Source\PSoC5/USBUART_1.c **** *
 676:.\Generated_Source\PSoC5/USBUART_1.c **** * Parameters:
 677:.\Generated_Source\PSoC5/USBUART_1.c **** *  uint8 interfaceNumber, interface number
 678:.\Generated_Source\PSoC5/USBUART_1.c **** *
 679:.\Generated_Source\PSoC5/USBUART_1.c **** * Return:
 680:.\Generated_Source\PSoC5/USBUART_1.c **** *  Alternate setting.
 681:.\Generated_Source\PSoC5/USBUART_1.c **** *
 682:.\Generated_Source\PSoC5/USBUART_1.c **** *******************************************************************************/
 683:.\Generated_Source\PSoC5/USBUART_1.c **** uint8  USBUART_1_GetInterfaceSetting(uint8 interfaceNumber)
 684:.\Generated_Source\PSoC5/USBUART_1.c ****                                                     
 685:.\Generated_Source\PSoC5/USBUART_1.c **** {
 835              		.loc 1 685 0
 836              		.cfi_startproc
 837              		@ args = 0, pretend = 0, frame = 8
 838              		@ frame_needed = 1, uses_anonymous_args = 0
 839              		@ link register save eliminated.
 840 0000 80B4     		push	{r7}
 841              	.LCFI22:
 842              		.cfi_def_cfa_offset 4
 843              		.cfi_offset 7, -4
 844 0002 83B0     		sub	sp, sp, #12
 845              	.LCFI23:
 846              		.cfi_def_cfa_offset 16
 847 0004 00AF     		add	r7, sp, #0
 848              	.LCFI24:
 849              		.cfi_def_cfa_register 7
 850 0006 0346     		mov	r3, r0
ARM GAS  C:\Users\Colin\AppData\Local\Temp\ccMAPRQY.s 			page 28


 851 0008 FB71     		strb	r3, [r7, #7]
 686:.\Generated_Source\PSoC5/USBUART_1.c ****     return(USBUART_1_interfaceSetting[interfaceNumber]);
 852              		.loc 1 686 0
 853 000a FA79     		ldrb	r2, [r7, #7]	@ zero_extendqisi2
 854 000c 40F20003 		movw	r3, #:lower16:USBUART_1_interfaceSetting
 855 0010 C0F20003 		movt	r3, #:upper16:USBUART_1_interfaceSetting
 856 0014 9B5C     		ldrb	r3, [r3, r2]
 857 0016 DBB2     		uxtb	r3, r3
 687:.\Generated_Source\PSoC5/USBUART_1.c **** }
 858              		.loc 1 687 0
 859 0018 1846     		mov	r0, r3
 860 001a 07F10C07 		add	r7, r7, #12
 861 001e BD46     		mov	sp, r7
 862 0020 80BC     		pop	{r7}
 863 0022 7047     		bx	lr
 864              		.cfi_endproc
 865              	.LFE8:
 866              		.size	USBUART_1_GetInterfaceSetting, .-USBUART_1_GetInterfaceSetting
 867              		.section	.text.USBUART_1_GetEPState,"ax",%progbits
 868              		.align	2
 869              		.global	USBUART_1_GetEPState
 870              		.thumb
 871              		.thumb_func
 872              		.type	USBUART_1_GetEPState, %function
 873              	USBUART_1_GetEPState:
 874              	.LFB9:
 688:.\Generated_Source\PSoC5/USBUART_1.c **** 
 689:.\Generated_Source\PSoC5/USBUART_1.c **** 
 690:.\Generated_Source\PSoC5/USBUART_1.c **** /*******************************************************************************
 691:.\Generated_Source\PSoC5/USBUART_1.c **** * Function Name: USBUART_1_GetEPState
 692:.\Generated_Source\PSoC5/USBUART_1.c **** ********************************************************************************
 693:.\Generated_Source\PSoC5/USBUART_1.c **** *
 694:.\Generated_Source\PSoC5/USBUART_1.c **** * Summary:
 695:.\Generated_Source\PSoC5/USBUART_1.c **** *  Returned the state of the requested endpoint.
 696:.\Generated_Source\PSoC5/USBUART_1.c **** *
 697:.\Generated_Source\PSoC5/USBUART_1.c **** * Parameters:
 698:.\Generated_Source\PSoC5/USBUART_1.c **** *  epNumber: Endpoint Number
 699:.\Generated_Source\PSoC5/USBUART_1.c **** *
 700:.\Generated_Source\PSoC5/USBUART_1.c **** * Return:
 701:.\Generated_Source\PSoC5/USBUART_1.c **** *  State of the requested endpoint.
 702:.\Generated_Source\PSoC5/USBUART_1.c **** *
 703:.\Generated_Source\PSoC5/USBUART_1.c **** *******************************************************************************/
 704:.\Generated_Source\PSoC5/USBUART_1.c **** uint8 USBUART_1_GetEPState(uint8 epNumber) 
 705:.\Generated_Source\PSoC5/USBUART_1.c **** {
 875              		.loc 1 705 0
 876              		.cfi_startproc
 877              		@ args = 0, pretend = 0, frame = 8
 878              		@ frame_needed = 1, uses_anonymous_args = 0
 879              		@ link register save eliminated.
 880 0000 80B4     		push	{r7}
 881              	.LCFI25:
 882              		.cfi_def_cfa_offset 4
 883              		.cfi_offset 7, -4
 884 0002 83B0     		sub	sp, sp, #12
 885              	.LCFI26:
 886              		.cfi_def_cfa_offset 16
 887 0004 00AF     		add	r7, sp, #0
ARM GAS  C:\Users\Colin\AppData\Local\Temp\ccMAPRQY.s 			page 29


 888              	.LCFI27:
 889              		.cfi_def_cfa_register 7
 890 0006 0346     		mov	r3, r0
 891 0008 FB71     		strb	r3, [r7, #7]
 706:.\Generated_Source\PSoC5/USBUART_1.c ****     return(USBUART_1_EP[epNumber].apiEpState);
 892              		.loc 1 706 0
 893 000a F979     		ldrb	r1, [r7, #7]	@ zero_extendqisi2
 894 000c 40F20002 		movw	r2, #:lower16:USBUART_1_EP
 895 0010 C0F20002 		movt	r2, #:upper16:USBUART_1_EP
 896 0014 0B46     		mov	r3, r1
 897 0016 4FEA4303 		lsl	r3, r3, #1
 898 001a 5B18     		adds	r3, r3, r1
 899 001c 4FEA8303 		lsl	r3, r3, #2
 900 0020 D318     		adds	r3, r2, r3
 901 0022 5B78     		ldrb	r3, [r3, #1]
 902 0024 DBB2     		uxtb	r3, r3
 707:.\Generated_Source\PSoC5/USBUART_1.c **** }
 903              		.loc 1 707 0
 904 0026 1846     		mov	r0, r3
 905 0028 07F10C07 		add	r7, r7, #12
 906 002c BD46     		mov	sp, r7
 907 002e 80BC     		pop	{r7}
 908 0030 7047     		bx	lr
 909              		.cfi_endproc
 910              	.LFE9:
 911              		.size	USBUART_1_GetEPState, .-USBUART_1_GetEPState
 912 0032 00BF     		.section	.text.USBUART_1_GetEPCount,"ax",%progbits
 913              		.align	2
 914              		.global	USBUART_1_GetEPCount
 915              		.thumb
 916              		.thumb_func
 917              		.type	USBUART_1_GetEPCount, %function
 918              	USBUART_1_GetEPCount:
 919              	.LFB10:
 708:.\Generated_Source\PSoC5/USBUART_1.c **** 
 709:.\Generated_Source\PSoC5/USBUART_1.c **** 
 710:.\Generated_Source\PSoC5/USBUART_1.c **** /*******************************************************************************
 711:.\Generated_Source\PSoC5/USBUART_1.c **** * Function Name: USBUART_1_GetEPCount
 712:.\Generated_Source\PSoC5/USBUART_1.c **** ********************************************************************************
 713:.\Generated_Source\PSoC5/USBUART_1.c **** *
 714:.\Generated_Source\PSoC5/USBUART_1.c **** * Summary:
 715:.\Generated_Source\PSoC5/USBUART_1.c **** *  This function supports Data Endpoints only(EP1-EP8).
 716:.\Generated_Source\PSoC5/USBUART_1.c **** *  Returns the transfer count for the requested endpoint.  The value from
 717:.\Generated_Source\PSoC5/USBUART_1.c **** *  the count registers includes 2 counts for the two byte checksum of the
 718:.\Generated_Source\PSoC5/USBUART_1.c **** *  packet.  This function subtracts the two counts.
 719:.\Generated_Source\PSoC5/USBUART_1.c **** *
 720:.\Generated_Source\PSoC5/USBUART_1.c **** * Parameters:
 721:.\Generated_Source\PSoC5/USBUART_1.c **** *  epNumber: Data Endpoint Number.
 722:.\Generated_Source\PSoC5/USBUART_1.c **** *            Valid values are between 1 and 8.
 723:.\Generated_Source\PSoC5/USBUART_1.c **** *
 724:.\Generated_Source\PSoC5/USBUART_1.c **** * Return:
 725:.\Generated_Source\PSoC5/USBUART_1.c **** *  Returns the current byte count from the specified endpoint or 0 for an
 726:.\Generated_Source\PSoC5/USBUART_1.c **** *  invalid endpoint.
 727:.\Generated_Source\PSoC5/USBUART_1.c **** *
 728:.\Generated_Source\PSoC5/USBUART_1.c **** *******************************************************************************/
 729:.\Generated_Source\PSoC5/USBUART_1.c **** uint16 USBUART_1_GetEPCount(uint8 epNumber) 
 730:.\Generated_Source\PSoC5/USBUART_1.c **** {
ARM GAS  C:\Users\Colin\AppData\Local\Temp\ccMAPRQY.s 			page 30


 920              		.loc 1 730 0
 921              		.cfi_startproc
 922              		@ args = 0, pretend = 0, frame = 16
 923              		@ frame_needed = 1, uses_anonymous_args = 0
 924              		@ link register save eliminated.
 925 0000 80B4     		push	{r7}
 926              	.LCFI28:
 927              		.cfi_def_cfa_offset 4
 928              		.cfi_offset 7, -4
 929 0002 85B0     		sub	sp, sp, #20
 930              	.LCFI29:
 931              		.cfi_def_cfa_offset 24
 932 0004 00AF     		add	r7, sp, #0
 933              	.LCFI30:
 934              		.cfi_def_cfa_register 7
 935 0006 0346     		mov	r3, r0
 936 0008 FB71     		strb	r3, [r7, #7]
 731:.\Generated_Source\PSoC5/USBUART_1.c ****     uint8 ri;
 732:.\Generated_Source\PSoC5/USBUART_1.c ****     uint16 result = 0u;
 937              		.loc 1 732 0
 938 000a 4FF00003 		mov	r3, #0
 939 000e FB81     		strh	r3, [r7, #14]	@ movhi
 733:.\Generated_Source\PSoC5/USBUART_1.c **** 
 734:.\Generated_Source\PSoC5/USBUART_1.c ****     if((epNumber > USBUART_1_EP0) && (epNumber < USBUART_1_MAX_EP))
 940              		.loc 1 734 0
 941 0010 FB79     		ldrb	r3, [r7, #7]	@ zero_extendqisi2
 942 0012 002B     		cmp	r3, #0
 943 0014 27D0     		beq	.L28
 944              		.loc 1 734 0 is_stmt 0 discriminator 1
 945 0016 FB79     		ldrb	r3, [r7, #7]	@ zero_extendqisi2
 946 0018 082B     		cmp	r3, #8
 947 001a 24D8     		bhi	.L28
 735:.\Generated_Source\PSoC5/USBUART_1.c ****     {
 736:.\Generated_Source\PSoC5/USBUART_1.c ****         ri = ((epNumber - USBUART_1_EP1) << USBUART_1_EPX_CNTX_ADDR_SHIFT);
 948              		.loc 1 736 0 is_stmt 1
 949 001c FB79     		ldrb	r3, [r7, #7]
 950 001e 03F1FF33 		add	r3, r3, #-1
 951 0022 DBB2     		uxtb	r3, r3
 952 0024 4FEA0313 		lsl	r3, r3, #4
 953 0028 7B73     		strb	r3, [r7, #13]
 737:.\Generated_Source\PSoC5/USBUART_1.c **** 
 738:.\Generated_Source\PSoC5/USBUART_1.c ****         result = (uint8)(CY_GET_REG8((reg8 *)(USBUART_1_SIE_EP1_CNT0_IND + ri)) &
 954              		.loc 1 738 0
 955 002a 7A7B     		ldrb	r2, [r7, #13]	@ zero_extendqisi2
 956 002c 46F20C03 		movw	r3, #24588
 957 0030 C4F20003 		movt	r3, 16384
 958 0034 D318     		adds	r3, r2, r3
 959 0036 1B78     		ldrb	r3, [r3, #0]
 960 0038 DBB2     		uxtb	r3, r3
 961 003a 03F00F03 		and	r3, r3, #15
 962 003e FB81     		strh	r3, [r7, #14]	@ movhi
 739:.\Generated_Source\PSoC5/USBUART_1.c ****                           USBUART_1_EPX_CNT0_MASK);
 740:.\Generated_Source\PSoC5/USBUART_1.c ****         result = (result << 8u) | CY_GET_REG8((reg8 *)(USBUART_1_SIE_EP1_CNT1_IND + ri));
 963              		.loc 1 740 0
 964 0040 FB89     		ldrh	r3, [r7, #14]
 965 0042 4FEA0323 		lsl	r3, r3, #8
 966 0046 9AB2     		uxth	r2, r3
ARM GAS  C:\Users\Colin\AppData\Local\Temp\ccMAPRQY.s 			page 31


 967 0048 797B     		ldrb	r1, [r7, #13]	@ zero_extendqisi2
 968 004a 46F20D03 		movw	r3, #24589
 969 004e C4F20003 		movt	r3, 16384
 970 0052 CB18     		adds	r3, r1, r3
 971 0054 1B78     		ldrb	r3, [r3, #0]
 972 0056 DBB2     		uxtb	r3, r3
 973 0058 1343     		orrs	r3, r3, r2
 974 005a 9BB2     		uxth	r3, r3
 975 005c FB81     		strh	r3, [r7, #14]	@ movhi
 741:.\Generated_Source\PSoC5/USBUART_1.c ****         result -= USBUART_1_EPX_CNTX_CRC_COUNT;
 976              		.loc 1 741 0
 977 005e FB89     		ldrh	r3, [r7, #14]	@ movhi
 978 0060 A3F10203 		sub	r3, r3, #2
 979 0064 FB81     		strh	r3, [r7, #14]	@ movhi
 980              	.L28:
 742:.\Generated_Source\PSoC5/USBUART_1.c ****     }
 743:.\Generated_Source\PSoC5/USBUART_1.c ****     return(result);
 981              		.loc 1 743 0
 982 0066 FB89     		ldrh	r3, [r7, #14]
 744:.\Generated_Source\PSoC5/USBUART_1.c **** }
 983              		.loc 1 744 0
 984 0068 1846     		mov	r0, r3
 985 006a 07F11407 		add	r7, r7, #20
 986 006e BD46     		mov	sp, r7
 987 0070 80BC     		pop	{r7}
 988 0072 7047     		bx	lr
 989              		.cfi_endproc
 990              	.LFE10:
 991              		.size	USBUART_1_GetEPCount, .-USBUART_1_GetEPCount
 992              		.section	.text.USBUART_1_LoadInEP,"ax",%progbits
 993              		.align	2
 994              		.global	USBUART_1_LoadInEP
 995              		.thumb
 996              		.thumb_func
 997              		.type	USBUART_1_LoadInEP, %function
 998              	USBUART_1_LoadInEP:
 999              	.LFB11:
 745:.\Generated_Source\PSoC5/USBUART_1.c **** 
 746:.\Generated_Source\PSoC5/USBUART_1.c **** 
 747:.\Generated_Source\PSoC5/USBUART_1.c **** #if(USBUART_1_EP_MM != USBUART_1__EP_MANUAL)
 748:.\Generated_Source\PSoC5/USBUART_1.c **** 
 749:.\Generated_Source\PSoC5/USBUART_1.c **** 
 750:.\Generated_Source\PSoC5/USBUART_1.c ****     /*******************************************************************************
 751:.\Generated_Source\PSoC5/USBUART_1.c ****     * Function Name: USBUART_1_InitEP_DMA
 752:.\Generated_Source\PSoC5/USBUART_1.c ****     ********************************************************************************
 753:.\Generated_Source\PSoC5/USBUART_1.c ****     *
 754:.\Generated_Source\PSoC5/USBUART_1.c ****     * Summary:
 755:.\Generated_Source\PSoC5/USBUART_1.c ****     *  This function allocates and initializes a DMA channel to be used by the
 756:.\Generated_Source\PSoC5/USBUART_1.c ****     *  USBUART_1_LoadInEP() or USBUART_1_ReadOutEP() APIs for data
 757:.\Generated_Source\PSoC5/USBUART_1.c ****     *  transfer.
 758:.\Generated_Source\PSoC5/USBUART_1.c ****     *
 759:.\Generated_Source\PSoC5/USBUART_1.c ****     * Parameters:
 760:.\Generated_Source\PSoC5/USBUART_1.c ****     *  epNumber: Contains the data endpoint number.
 761:.\Generated_Source\PSoC5/USBUART_1.c ****     *            Valid values are between 1 and 8.
 762:.\Generated_Source\PSoC5/USBUART_1.c ****     *  *pData: Pointer to a data array that is related to the EP transfers.
 763:.\Generated_Source\PSoC5/USBUART_1.c ****     *
 764:.\Generated_Source\PSoC5/USBUART_1.c ****     * Return:
ARM GAS  C:\Users\Colin\AppData\Local\Temp\ccMAPRQY.s 			page 32


 765:.\Generated_Source\PSoC5/USBUART_1.c ****     *  None.
 766:.\Generated_Source\PSoC5/USBUART_1.c ****     *
 767:.\Generated_Source\PSoC5/USBUART_1.c ****     * Reentrant:
 768:.\Generated_Source\PSoC5/USBUART_1.c ****     *  No.
 769:.\Generated_Source\PSoC5/USBUART_1.c ****     *
 770:.\Generated_Source\PSoC5/USBUART_1.c ****     *******************************************************************************/
 771:.\Generated_Source\PSoC5/USBUART_1.c ****     void USBUART_1_InitEP_DMA(uint8 epNumber, const uint8 *pData)
 772:.\Generated_Source\PSoC5/USBUART_1.c ****                                                                     
 773:.\Generated_Source\PSoC5/USBUART_1.c ****     {
 774:.\Generated_Source\PSoC5/USBUART_1.c ****         uint16 src;
 775:.\Generated_Source\PSoC5/USBUART_1.c ****         uint16 dst;
 776:.\Generated_Source\PSoC5/USBUART_1.c ****         #if (CY_PSOC3)                  /* PSoC 3 */
 777:.\Generated_Source\PSoC5/USBUART_1.c ****             src = HI16(CYDEV_SRAM_BASE);
 778:.\Generated_Source\PSoC5/USBUART_1.c ****             dst = HI16(CYDEV_PERIPH_BASE);
 779:.\Generated_Source\PSoC5/USBUART_1.c ****             pData = pData;
 780:.\Generated_Source\PSoC5/USBUART_1.c ****         #else                           /* PSoC 5 */
 781:.\Generated_Source\PSoC5/USBUART_1.c ****             if((USBUART_1_EP[epNumber].addr & USBUART_1_DIR_IN) != 0u )
 782:.\Generated_Source\PSoC5/USBUART_1.c ****             {   /* for the IN EP source is the SRAM memory buffer */
 783:.\Generated_Source\PSoC5/USBUART_1.c ****                 src = HI16(pData);
 784:.\Generated_Source\PSoC5/USBUART_1.c ****                 dst = HI16(CYDEV_PERIPH_BASE);
 785:.\Generated_Source\PSoC5/USBUART_1.c ****             }
 786:.\Generated_Source\PSoC5/USBUART_1.c ****             else
 787:.\Generated_Source\PSoC5/USBUART_1.c ****             {   /* for the OUT EP source is the SIE register */
 788:.\Generated_Source\PSoC5/USBUART_1.c ****                 src = HI16(CYDEV_PERIPH_BASE);
 789:.\Generated_Source\PSoC5/USBUART_1.c ****                 dst = HI16(pData);
 790:.\Generated_Source\PSoC5/USBUART_1.c ****             }
 791:.\Generated_Source\PSoC5/USBUART_1.c ****         #endif  /* End C51 */
 792:.\Generated_Source\PSoC5/USBUART_1.c ****         switch(epNumber)
 793:.\Generated_Source\PSoC5/USBUART_1.c ****         {
 794:.\Generated_Source\PSoC5/USBUART_1.c ****             case USBUART_1_EP1:
 795:.\Generated_Source\PSoC5/USBUART_1.c ****                 #if(USBUART_1_DMA1_REMOVE == 0u)
 796:.\Generated_Source\PSoC5/USBUART_1.c ****                     USBUART_1_DmaChan[epNumber] = USBUART_1_ep1_DmaInitialize(
 797:.\Generated_Source\PSoC5/USBUART_1.c ****                         USBUART_1_DMA_BYTES_PER_BURST, USBUART_1_DMA_REQUEST_PER_BURST, src, dst);
 798:.\Generated_Source\PSoC5/USBUART_1.c ****                 #endif   /* End USBUART_1_DMA1_REMOVE */
 799:.\Generated_Source\PSoC5/USBUART_1.c ****                 break;
 800:.\Generated_Source\PSoC5/USBUART_1.c ****             case USBUART_1_EP2:
 801:.\Generated_Source\PSoC5/USBUART_1.c ****                 #if(USBUART_1_DMA2_REMOVE == 0u)
 802:.\Generated_Source\PSoC5/USBUART_1.c ****                     USBUART_1_DmaChan[epNumber] = USBUART_1_ep2_DmaInitialize(
 803:.\Generated_Source\PSoC5/USBUART_1.c ****                         USBUART_1_DMA_BYTES_PER_BURST, USBUART_1_DMA_REQUEST_PER_BURST, src, dst);
 804:.\Generated_Source\PSoC5/USBUART_1.c ****                 #endif   /* End USBUART_1_DMA2_REMOVE */
 805:.\Generated_Source\PSoC5/USBUART_1.c ****                 break;
 806:.\Generated_Source\PSoC5/USBUART_1.c ****             case USBUART_1_EP3:
 807:.\Generated_Source\PSoC5/USBUART_1.c ****                 #if(USBUART_1_DMA3_REMOVE == 0u)
 808:.\Generated_Source\PSoC5/USBUART_1.c ****                     USBUART_1_DmaChan[epNumber] = USBUART_1_ep3_DmaInitialize(
 809:.\Generated_Source\PSoC5/USBUART_1.c ****                         USBUART_1_DMA_BYTES_PER_BURST, USBUART_1_DMA_REQUEST_PER_BURST, src, dst);
 810:.\Generated_Source\PSoC5/USBUART_1.c ****                 #endif   /* End USBUART_1_DMA3_REMOVE */
 811:.\Generated_Source\PSoC5/USBUART_1.c ****                 break;
 812:.\Generated_Source\PSoC5/USBUART_1.c ****             case USBUART_1_EP4:
 813:.\Generated_Source\PSoC5/USBUART_1.c ****                 #if(USBUART_1_DMA4_REMOVE == 0u)
 814:.\Generated_Source\PSoC5/USBUART_1.c ****                     USBUART_1_DmaChan[epNumber] = USBUART_1_ep4_DmaInitialize(
 815:.\Generated_Source\PSoC5/USBUART_1.c ****                         USBUART_1_DMA_BYTES_PER_BURST, USBUART_1_DMA_REQUEST_PER_BURST, src, dst);
 816:.\Generated_Source\PSoC5/USBUART_1.c ****                 #endif   /* End USBUART_1_DMA4_REMOVE */
 817:.\Generated_Source\PSoC5/USBUART_1.c ****                 break;
 818:.\Generated_Source\PSoC5/USBUART_1.c ****             case USBUART_1_EP5:
 819:.\Generated_Source\PSoC5/USBUART_1.c ****                 #if(USBUART_1_DMA5_REMOVE == 0u)
 820:.\Generated_Source\PSoC5/USBUART_1.c ****                     USBUART_1_DmaChan[epNumber] = USBUART_1_ep5_DmaInitialize(
 821:.\Generated_Source\PSoC5/USBUART_1.c ****                         USBUART_1_DMA_BYTES_PER_BURST, USBUART_1_DMA_REQUEST_PER_BURST, src, dst);
ARM GAS  C:\Users\Colin\AppData\Local\Temp\ccMAPRQY.s 			page 33


 822:.\Generated_Source\PSoC5/USBUART_1.c ****                 #endif   /* End USBUART_1_DMA5_REMOVE */
 823:.\Generated_Source\PSoC5/USBUART_1.c ****                 break;
 824:.\Generated_Source\PSoC5/USBUART_1.c ****             case USBUART_1_EP6:
 825:.\Generated_Source\PSoC5/USBUART_1.c ****                 #if(USBUART_1_DMA6_REMOVE == 0u)
 826:.\Generated_Source\PSoC5/USBUART_1.c ****                     USBUART_1_DmaChan[epNumber] = USBUART_1_ep6_DmaInitialize(
 827:.\Generated_Source\PSoC5/USBUART_1.c ****                         USBUART_1_DMA_BYTES_PER_BURST, USBUART_1_DMA_REQUEST_PER_BURST, src, dst);
 828:.\Generated_Source\PSoC5/USBUART_1.c ****                 #endif   /* End USBUART_1_DMA6_REMOVE */
 829:.\Generated_Source\PSoC5/USBUART_1.c ****                 break;
 830:.\Generated_Source\PSoC5/USBUART_1.c ****             case USBUART_1_EP7:
 831:.\Generated_Source\PSoC5/USBUART_1.c ****                 #if(USBUART_1_DMA7_REMOVE == 0u)
 832:.\Generated_Source\PSoC5/USBUART_1.c ****                     USBUART_1_DmaChan[epNumber] = USBUART_1_ep7_DmaInitialize(
 833:.\Generated_Source\PSoC5/USBUART_1.c ****                         USBUART_1_DMA_BYTES_PER_BURST, USBUART_1_DMA_REQUEST_PER_BURST, src, dst);
 834:.\Generated_Source\PSoC5/USBUART_1.c ****                 #endif   /* End USBUART_1_DMA7_REMOVE */
 835:.\Generated_Source\PSoC5/USBUART_1.c ****                 break;
 836:.\Generated_Source\PSoC5/USBUART_1.c ****             case USBUART_1_EP8:
 837:.\Generated_Source\PSoC5/USBUART_1.c ****                 #if(USBUART_1_DMA8_REMOVE == 0u)
 838:.\Generated_Source\PSoC5/USBUART_1.c ****                     USBUART_1_DmaChan[epNumber] = USBUART_1_ep8_DmaInitialize(
 839:.\Generated_Source\PSoC5/USBUART_1.c ****                         USBUART_1_DMA_BYTES_PER_BURST, USBUART_1_DMA_REQUEST_PER_BURST, src, dst);
 840:.\Generated_Source\PSoC5/USBUART_1.c ****                 #endif   /* End USBUART_1_DMA8_REMOVE */
 841:.\Generated_Source\PSoC5/USBUART_1.c ****                 break;
 842:.\Generated_Source\PSoC5/USBUART_1.c ****             default:
 843:.\Generated_Source\PSoC5/USBUART_1.c ****                 /* Do not support EP0 DMA transfers */
 844:.\Generated_Source\PSoC5/USBUART_1.c ****                 break;
 845:.\Generated_Source\PSoC5/USBUART_1.c ****         }
 846:.\Generated_Source\PSoC5/USBUART_1.c ****         if((epNumber > USBUART_1_EP0) && (epNumber < USBUART_1_MAX_EP))
 847:.\Generated_Source\PSoC5/USBUART_1.c ****         {
 848:.\Generated_Source\PSoC5/USBUART_1.c ****             USBUART_1_DmaTd[epNumber] = CyDmaTdAllocate();
 849:.\Generated_Source\PSoC5/USBUART_1.c ****         }
 850:.\Generated_Source\PSoC5/USBUART_1.c ****     }
 851:.\Generated_Source\PSoC5/USBUART_1.c **** 
 852:.\Generated_Source\PSoC5/USBUART_1.c **** 
 853:.\Generated_Source\PSoC5/USBUART_1.c ****     /*******************************************************************************
 854:.\Generated_Source\PSoC5/USBUART_1.c ****     * Function Name: USBUART_1_Stop_DMA
 855:.\Generated_Source\PSoC5/USBUART_1.c ****     ********************************************************************************
 856:.\Generated_Source\PSoC5/USBUART_1.c ****     *
 857:.\Generated_Source\PSoC5/USBUART_1.c ****     * Summary: Stops and free DMA
 858:.\Generated_Source\PSoC5/USBUART_1.c ****     *
 859:.\Generated_Source\PSoC5/USBUART_1.c ****     * Parameters:
 860:.\Generated_Source\PSoC5/USBUART_1.c ****     *  epNumber: Contains the data endpoint number or
 861:.\Generated_Source\PSoC5/USBUART_1.c ****     *           USBUART_1_MAX_EP to stop all DMAs
 862:.\Generated_Source\PSoC5/USBUART_1.c ****     *
 863:.\Generated_Source\PSoC5/USBUART_1.c ****     * Return:
 864:.\Generated_Source\PSoC5/USBUART_1.c ****     *  None.
 865:.\Generated_Source\PSoC5/USBUART_1.c ****     *
 866:.\Generated_Source\PSoC5/USBUART_1.c ****     * Reentrant:
 867:.\Generated_Source\PSoC5/USBUART_1.c ****     *  No.
 868:.\Generated_Source\PSoC5/USBUART_1.c ****     *
 869:.\Generated_Source\PSoC5/USBUART_1.c ****     *******************************************************************************/
 870:.\Generated_Source\PSoC5/USBUART_1.c ****     void USBUART_1_Stop_DMA(uint8 epNumber) 
 871:.\Generated_Source\PSoC5/USBUART_1.c ****     {
 872:.\Generated_Source\PSoC5/USBUART_1.c ****         uint8 i;
 873:.\Generated_Source\PSoC5/USBUART_1.c ****         i = (epNumber < USBUART_1_MAX_EP) ? epNumber : USBUART_1_EP1;
 874:.\Generated_Source\PSoC5/USBUART_1.c ****         do
 875:.\Generated_Source\PSoC5/USBUART_1.c ****         {
 876:.\Generated_Source\PSoC5/USBUART_1.c ****             if(USBUART_1_DmaTd[i] != DMA_INVALID_TD)
 877:.\Generated_Source\PSoC5/USBUART_1.c ****             {
 878:.\Generated_Source\PSoC5/USBUART_1.c ****                 (void) CyDmaChDisable(USBUART_1_DmaChan[i]);
ARM GAS  C:\Users\Colin\AppData\Local\Temp\ccMAPRQY.s 			page 34


 879:.\Generated_Source\PSoC5/USBUART_1.c ****                 CyDmaTdFree(USBUART_1_DmaTd[i]);
 880:.\Generated_Source\PSoC5/USBUART_1.c ****                 USBUART_1_DmaTd[i] = DMA_INVALID_TD;
 881:.\Generated_Source\PSoC5/USBUART_1.c ****             }
 882:.\Generated_Source\PSoC5/USBUART_1.c ****             i++;
 883:.\Generated_Source\PSoC5/USBUART_1.c ****         }while((i < USBUART_1_MAX_EP) && (epNumber == USBUART_1_MAX_EP));
 884:.\Generated_Source\PSoC5/USBUART_1.c ****     }
 885:.\Generated_Source\PSoC5/USBUART_1.c **** 
 886:.\Generated_Source\PSoC5/USBUART_1.c **** #endif /* End USBUART_1_EP_MM != USBUART_1__EP_MANUAL */
 887:.\Generated_Source\PSoC5/USBUART_1.c **** 
 888:.\Generated_Source\PSoC5/USBUART_1.c **** 
 889:.\Generated_Source\PSoC5/USBUART_1.c **** /*******************************************************************************
 890:.\Generated_Source\PSoC5/USBUART_1.c **** * Function Name: USBUART_1_LoadInEP
 891:.\Generated_Source\PSoC5/USBUART_1.c **** ********************************************************************************
 892:.\Generated_Source\PSoC5/USBUART_1.c **** *
 893:.\Generated_Source\PSoC5/USBUART_1.c **** * Summary:
 894:.\Generated_Source\PSoC5/USBUART_1.c **** *  Loads and enables the specified USB data endpoint for an IN interrupt or bulk
 895:.\Generated_Source\PSoC5/USBUART_1.c **** *  transfer.
 896:.\Generated_Source\PSoC5/USBUART_1.c **** *
 897:.\Generated_Source\PSoC5/USBUART_1.c **** * Parameters:
 898:.\Generated_Source\PSoC5/USBUART_1.c **** *  epNumber: Contains the data endpoint number.
 899:.\Generated_Source\PSoC5/USBUART_1.c **** *            Valid values are between 1 and 8.
 900:.\Generated_Source\PSoC5/USBUART_1.c **** *  *pData: A pointer to a data array from which the data for the endpoint space
 901:.\Generated_Source\PSoC5/USBUART_1.c **** *          is loaded.
 902:.\Generated_Source\PSoC5/USBUART_1.c **** *  length: The number of bytes to transfer from the array and then send as a
 903:.\Generated_Source\PSoC5/USBUART_1.c **** *          result of an IN request. Valid values are between 0 and 512.
 904:.\Generated_Source\PSoC5/USBUART_1.c **** *
 905:.\Generated_Source\PSoC5/USBUART_1.c **** * Return:
 906:.\Generated_Source\PSoC5/USBUART_1.c **** *  None.
 907:.\Generated_Source\PSoC5/USBUART_1.c **** *
 908:.\Generated_Source\PSoC5/USBUART_1.c **** * Reentrant:
 909:.\Generated_Source\PSoC5/USBUART_1.c **** *  No.
 910:.\Generated_Source\PSoC5/USBUART_1.c **** *
 911:.\Generated_Source\PSoC5/USBUART_1.c **** *******************************************************************************/
 912:.\Generated_Source\PSoC5/USBUART_1.c **** void USBUART_1_LoadInEP(uint8 epNumber, const uint8 pData[], uint16 length)
 913:.\Generated_Source\PSoC5/USBUART_1.c ****                                                                         
 914:.\Generated_Source\PSoC5/USBUART_1.c **** {
 1000              		.loc 1 914 0
 1001              		.cfi_startproc
 1002              		@ args = 0, pretend = 0, frame = 16
 1003              		@ frame_needed = 1, uses_anonymous_args = 0
 1004              		@ link register save eliminated.
 1005 0000 90B4     		push	{r4, r7}
 1006              	.LCFI31:
 1007              		.cfi_def_cfa_offset 8
 1008              		.cfi_offset 4, -8
 1009              		.cfi_offset 7, -4
 1010 0002 84B0     		sub	sp, sp, #16
 1011              	.LCFI32:
 1012              		.cfi_def_cfa_offset 24
 1013 0004 00AF     		add	r7, sp, #0
 1014              	.LCFI33:
 1015              		.cfi_def_cfa_register 7
 1016 0006 3960     		str	r1, [r7, #0]
 1017 0008 1346     		mov	r3, r2
 1018 000a 0246     		mov	r2, r0
 1019 000c FA71     		strb	r2, [r7, #7]
 1020 000e BB80     		strh	r3, [r7, #4]	@ movhi
ARM GAS  C:\Users\Colin\AppData\Local\Temp\ccMAPRQY.s 			page 35


 915:.\Generated_Source\PSoC5/USBUART_1.c ****     uint8 ri;
 916:.\Generated_Source\PSoC5/USBUART_1.c ****     reg8 *p;
 917:.\Generated_Source\PSoC5/USBUART_1.c ****     #if(USBUART_1_EP_MM == USBUART_1__EP_MANUAL)
 918:.\Generated_Source\PSoC5/USBUART_1.c ****         uint16 i;
 919:.\Generated_Source\PSoC5/USBUART_1.c ****     #endif /* End USBUART_1_EP_MM == USBUART_1__EP_MANUAL */
 920:.\Generated_Source\PSoC5/USBUART_1.c **** 
 921:.\Generated_Source\PSoC5/USBUART_1.c ****     if((epNumber > USBUART_1_EP0) && (epNumber < USBUART_1_MAX_EP))
 1021              		.loc 1 921 0
 1022 0010 FB79     		ldrb	r3, [r7, #7]	@ zero_extendqisi2
 1023 0012 002B     		cmp	r3, #0
 1024 0014 00F09680 		beq	.L30
 1025              		.loc 1 921 0 is_stmt 0 discriminator 1
 1026 0018 FB79     		ldrb	r3, [r7, #7]	@ zero_extendqisi2
 1027 001a 082B     		cmp	r3, #8
 1028 001c 00F29280 		bhi	.L30
 922:.\Generated_Source\PSoC5/USBUART_1.c ****     {
 923:.\Generated_Source\PSoC5/USBUART_1.c ****         ri = ((epNumber - USBUART_1_EP1) << USBUART_1_EPX_CNTX_ADDR_SHIFT);
 1029              		.loc 1 923 0 is_stmt 1
 1030 0020 FB79     		ldrb	r3, [r7, #7]
 1031 0022 03F1FF33 		add	r3, r3, #-1
 1032 0026 DBB2     		uxtb	r3, r3
 1033 0028 4FEA0313 		lsl	r3, r3, #4
 1034 002c 7B73     		strb	r3, [r7, #13]
 924:.\Generated_Source\PSoC5/USBUART_1.c ****         p = (reg8 *)(USBUART_1_ARB_RW1_DR_IND + ri);
 1035              		.loc 1 924 0
 1036 002e 7A7B     		ldrb	r2, [r7, #13]	@ zero_extendqisi2
 1037 0030 46F28803 		movw	r3, #24712
 1038 0034 C4F20003 		movt	r3, 16384
 1039 0038 D318     		adds	r3, r2, r3
 1040 003a BB60     		str	r3, [r7, #8]
 925:.\Generated_Source\PSoC5/USBUART_1.c **** 
 926:.\Generated_Source\PSoC5/USBUART_1.c ****         #if(USBUART_1_EP_MM != USBUART_1__EP_DMAAUTO)
 927:.\Generated_Source\PSoC5/USBUART_1.c ****             /* Limits length to available buffer space, auto MM could send packets up to 1024 bytes
 928:.\Generated_Source\PSoC5/USBUART_1.c ****             if(length > (USBUART_1_EPX_DATA_BUF_MAX - USBUART_1_EP[epNumber].buffOffset))
 1041              		.loc 1 928 0
 1042 003c B888     		ldrh	r0, [r7, #4]
 1043 003e F979     		ldrb	r1, [r7, #7]	@ zero_extendqisi2
 1044 0040 40F20002 		movw	r2, #:lower16:USBUART_1_EP
 1045 0044 C0F20002 		movt	r2, #:upper16:USBUART_1_EP
 1046 0048 0B46     		mov	r3, r1
 1047 004a 4FEA4303 		lsl	r3, r3, #1
 1048 004e 5B18     		adds	r3, r3, r1
 1049 0050 4FEA8303 		lsl	r3, r3, #2
 1050 0054 D318     		adds	r3, r2, r3
 1051 0056 DB88     		ldrh	r3, [r3, #6]	@ movhi
 1052 0058 9BB2     		uxth	r3, r3
 1053 005a C3F50073 		rsb	r3, r3, #512
 1054 005e 9842     		cmp	r0, r3
 1055 0060 10D9     		bls	.L32
 929:.\Generated_Source\PSoC5/USBUART_1.c ****             {
 930:.\Generated_Source\PSoC5/USBUART_1.c ****                 length = USBUART_1_EPX_DATA_BUF_MAX - USBUART_1_EP[epNumber].buffOffset;
 1056              		.loc 1 930 0
 1057 0062 F979     		ldrb	r1, [r7, #7]	@ zero_extendqisi2
 1058 0064 40F20002 		movw	r2, #:lower16:USBUART_1_EP
 1059 0068 C0F20002 		movt	r2, #:upper16:USBUART_1_EP
 1060 006c 0B46     		mov	r3, r1
 1061 006e 4FEA4303 		lsl	r3, r3, #1
ARM GAS  C:\Users\Colin\AppData\Local\Temp\ccMAPRQY.s 			page 36


 1062 0072 5B18     		adds	r3, r3, r1
 1063 0074 4FEA8303 		lsl	r3, r3, #2
 1064 0078 D318     		adds	r3, r2, r3
 1065 007a DB88     		ldrh	r3, [r3, #6]	@ movhi
 1066 007c 9BB2     		uxth	r3, r3
 1067 007e C3F50073 		rsb	r3, r3, #512
 1068 0082 BB80     		strh	r3, [r7, #4]	@ movhi
 1069              	.L32:
 931:.\Generated_Source\PSoC5/USBUART_1.c ****             }
 932:.\Generated_Source\PSoC5/USBUART_1.c ****         #endif /* End USBUART_1_EP_MM != USBUART_1__EP_DMAAUTO */
 933:.\Generated_Source\PSoC5/USBUART_1.c **** 
 934:.\Generated_Source\PSoC5/USBUART_1.c ****         /* Set the count and data toggle */
 935:.\Generated_Source\PSoC5/USBUART_1.c ****         CY_SET_REG8((reg8 *)(USBUART_1_SIE_EP1_CNT0_IND + ri),
 1070              		.loc 1 935 0
 1071 0084 7A7B     		ldrb	r2, [r7, #13]	@ zero_extendqisi2
 1072 0086 46F20C03 		movw	r3, #24588
 1073 008a C4F20003 		movt	r3, 16384
 1074 008e D318     		adds	r3, r2, r3
 1075 0090 1846     		mov	r0, r3
 1076 0092 BB88     		ldrh	r3, [r7, #4]
 1077 0094 4FEA1323 		lsr	r3, r3, #8
 1078 0098 9BB2     		uxth	r3, r3
 1079 009a DCB2     		uxtb	r4, r3
 1080 009c F979     		ldrb	r1, [r7, #7]	@ zero_extendqisi2
 1081 009e 40F20002 		movw	r2, #:lower16:USBUART_1_EP
 1082 00a2 C0F20002 		movt	r2, #:upper16:USBUART_1_EP
 1083 00a6 0B46     		mov	r3, r1
 1084 00a8 4FEA4303 		lsl	r3, r3, #1
 1085 00ac 5B18     		adds	r3, r3, r1
 1086 00ae 4FEA8303 		lsl	r3, r3, #2
 1087 00b2 D318     		adds	r3, r2, r3
 1088 00b4 DB78     		ldrb	r3, [r3, #3]
 1089 00b6 DBB2     		uxtb	r3, r3
 1090 00b8 2343     		orrs	r3, r3, r4
 1091 00ba DBB2     		uxtb	r3, r3
 1092 00bc 0370     		strb	r3, [r0, #0]
 936:.\Generated_Source\PSoC5/USBUART_1.c ****                             (length >> 8u) | (USBUART_1_EP[epNumber].epToggle));
 937:.\Generated_Source\PSoC5/USBUART_1.c ****         CY_SET_REG8((reg8 *)(USBUART_1_SIE_EP1_CNT1_IND + ri),  length & 0xFFu);
 1093              		.loc 1 937 0
 1094 00be 7A7B     		ldrb	r2, [r7, #13]	@ zero_extendqisi2
 1095 00c0 46F20D03 		movw	r3, #24589
 1096 00c4 C4F20003 		movt	r3, 16384
 1097 00c8 D318     		adds	r3, r2, r3
 1098 00ca BA88     		ldrh	r2, [r7, #4]	@ movhi
 1099 00cc D2B2     		uxtb	r2, r2
 1100 00ce 1A70     		strb	r2, [r3, #0]
 938:.\Generated_Source\PSoC5/USBUART_1.c **** 
 939:.\Generated_Source\PSoC5/USBUART_1.c ****         #if(USBUART_1_EP_MM == USBUART_1__EP_MANUAL)
 940:.\Generated_Source\PSoC5/USBUART_1.c ****             if(pData != NULL)
 1101              		.loc 1 940 0
 1102 00d0 3B68     		ldr	r3, [r7, #0]
 1103 00d2 002B     		cmp	r3, #0
 1104 00d4 11D0     		beq	.L33
 941:.\Generated_Source\PSoC5/USBUART_1.c ****             {
 942:.\Generated_Source\PSoC5/USBUART_1.c ****                 /* Copy the data using the arbiter data register */
 943:.\Generated_Source\PSoC5/USBUART_1.c ****                 for (i = 0u; i < length; i++)
 1105              		.loc 1 943 0
ARM GAS  C:\Users\Colin\AppData\Local\Temp\ccMAPRQY.s 			page 37


 1106 00d6 4FF00003 		mov	r3, #0
 1107 00da FB81     		strh	r3, [r7, #14]	@ movhi
 1108 00dc 09E0     		b	.L34
 1109              	.L35:
 944:.\Generated_Source\PSoC5/USBUART_1.c ****                 {
 945:.\Generated_Source\PSoC5/USBUART_1.c ****                     CY_SET_REG8(p, pData[i]);
 1110              		.loc 1 945 0 discriminator 2
 1111 00de FB89     		ldrh	r3, [r7, #14]
 1112 00e0 3A68     		ldr	r2, [r7, #0]
 1113 00e2 D318     		adds	r3, r2, r3
 1114 00e4 1A78     		ldrb	r2, [r3, #0]	@ zero_extendqisi2
 1115 00e6 BB68     		ldr	r3, [r7, #8]
 1116 00e8 1A70     		strb	r2, [r3, #0]
 943:.\Generated_Source\PSoC5/USBUART_1.c ****                 for (i = 0u; i < length; i++)
 1117              		.loc 1 943 0 discriminator 2
 1118 00ea FB89     		ldrh	r3, [r7, #14]	@ movhi
 1119 00ec 03F10103 		add	r3, r3, #1
 1120 00f0 FB81     		strh	r3, [r7, #14]	@ movhi
 1121              	.L34:
 943:.\Generated_Source\PSoC5/USBUART_1.c ****                 for (i = 0u; i < length; i++)
 1122              		.loc 1 943 0 is_stmt 0 discriminator 1
 1123 00f2 FA89     		ldrh	r2, [r7, #14]
 1124 00f4 BB88     		ldrh	r3, [r7, #4]
 1125 00f6 9A42     		cmp	r2, r3
 1126 00f8 F1D3     		bcc	.L35
 1127              	.L33:
 946:.\Generated_Source\PSoC5/USBUART_1.c ****                 }
 947:.\Generated_Source\PSoC5/USBUART_1.c ****             }
 948:.\Generated_Source\PSoC5/USBUART_1.c ****             USBUART_1_EP[epNumber].apiEpState = USBUART_1_NO_EVENT_PENDING;
 1128              		.loc 1 948 0 is_stmt 1
 1129 00fa F979     		ldrb	r1, [r7, #7]	@ zero_extendqisi2
 1130 00fc 40F20002 		movw	r2, #:lower16:USBUART_1_EP
 1131 0100 C0F20002 		movt	r2, #:upper16:USBUART_1_EP
 1132 0104 0B46     		mov	r3, r1
 1133 0106 4FEA4303 		lsl	r3, r3, #1
 1134 010a 5B18     		adds	r3, r3, r1
 1135 010c 4FEA8303 		lsl	r3, r3, #2
 1136 0110 D318     		adds	r3, r2, r3
 1137 0112 4FF00002 		mov	r2, #0
 1138 0116 5A70     		strb	r2, [r3, #1]
 949:.\Generated_Source\PSoC5/USBUART_1.c ****             /* Write the Mode register */
 950:.\Generated_Source\PSoC5/USBUART_1.c ****             CY_SET_REG8((reg8 *)(USBUART_1_SIE_EP1_CR0_IND + ri), USBUART_1_EP[epNumber].epMode);
 1139              		.loc 1 950 0
 1140 0118 7A7B     		ldrb	r2, [r7, #13]	@ zero_extendqisi2
 1141 011a 46F20E03 		movw	r3, #24590
 1142 011e C4F20003 		movt	r3, 16384
 1143 0122 D318     		adds	r3, r2, r3
 1144 0124 1846     		mov	r0, r3
 1145 0126 F979     		ldrb	r1, [r7, #7]	@ zero_extendqisi2
 1146 0128 40F20002 		movw	r2, #:lower16:USBUART_1_EP
 1147 012c C0F20002 		movt	r2, #:upper16:USBUART_1_EP
 1148 0130 0B46     		mov	r3, r1
 1149 0132 4FEA4303 		lsl	r3, r3, #1
 1150 0136 5B18     		adds	r3, r3, r1
 1151 0138 4FEA8303 		lsl	r3, r3, #2
 1152 013c D318     		adds	r3, r2, r3
 1153 013e 5B79     		ldrb	r3, [r3, #5]
ARM GAS  C:\Users\Colin\AppData\Local\Temp\ccMAPRQY.s 			page 38


 1154 0140 DBB2     		uxtb	r3, r3
 1155 0142 0370     		strb	r3, [r0, #0]
 1156              	.L30:
 951:.\Generated_Source\PSoC5/USBUART_1.c ****         #else
 952:.\Generated_Source\PSoC5/USBUART_1.c ****             /* Init DMA if it was not initialized */
 953:.\Generated_Source\PSoC5/USBUART_1.c ****             if(USBUART_1_DmaTd[epNumber] == DMA_INVALID_TD)
 954:.\Generated_Source\PSoC5/USBUART_1.c ****             {
 955:.\Generated_Source\PSoC5/USBUART_1.c ****                 USBUART_1_InitEP_DMA(epNumber, pData);
 956:.\Generated_Source\PSoC5/USBUART_1.c ****             }
 957:.\Generated_Source\PSoC5/USBUART_1.c ****         #endif /* End USBUART_1_EP_MM == USBUART_1__EP_MANUAL */
 958:.\Generated_Source\PSoC5/USBUART_1.c **** 
 959:.\Generated_Source\PSoC5/USBUART_1.c ****         #if(USBUART_1_EP_MM == USBUART_1__EP_DMAMANUAL)
 960:.\Generated_Source\PSoC5/USBUART_1.c ****             USBUART_1_EP[epNumber].apiEpState = USBUART_1_NO_EVENT_PENDING;
 961:.\Generated_Source\PSoC5/USBUART_1.c ****             if((pData != NULL) && (length > 0u))
 962:.\Generated_Source\PSoC5/USBUART_1.c ****             {
 963:.\Generated_Source\PSoC5/USBUART_1.c ****                 /* Enable DMA in mode2 for transferring data */
 964:.\Generated_Source\PSoC5/USBUART_1.c ****                 (void) CyDmaChDisable(USBUART_1_DmaChan[epNumber]);
 965:.\Generated_Source\PSoC5/USBUART_1.c ****                 (void) CyDmaTdSetConfiguration(USBUART_1_DmaTd[epNumber], length, CY_DMA_DISABLE_TD
 966:.\Generated_Source\PSoC5/USBUART_1.c ****                                                                                  TD_TERMIN_EN | TD_
 967:.\Generated_Source\PSoC5/USBUART_1.c ****                 (void) CyDmaTdSetAddress(USBUART_1_DmaTd[epNumber],  LO16((uint32)pData), LO16((uin
 968:.\Generated_Source\PSoC5/USBUART_1.c ****                 /* Enable the DMA */
 969:.\Generated_Source\PSoC5/USBUART_1.c ****                 (void) CyDmaChSetInitialTd(USBUART_1_DmaChan[epNumber], USBUART_1_DmaTd[epNumber]);
 970:.\Generated_Source\PSoC5/USBUART_1.c ****                 (void) CyDmaChEnable(USBUART_1_DmaChan[epNumber], 1u);
 971:.\Generated_Source\PSoC5/USBUART_1.c ****                 /* Generate DMA request */
 972:.\Generated_Source\PSoC5/USBUART_1.c ****                 * (reg8 *)(USBUART_1_ARB_EP1_CFG_IND + ri) |= USBUART_1_ARB_EPX_CFG_DMA_REQ;
 973:.\Generated_Source\PSoC5/USBUART_1.c ****                 * (reg8 *)(USBUART_1_ARB_EP1_CFG_IND + ri) &= ((uint8)(~USBUART_1_ARB_EPX_CFG_DMA_R
 974:.\Generated_Source\PSoC5/USBUART_1.c ****                 /* Mode register will be written in arb ISR after DMA transfer complete */
 975:.\Generated_Source\PSoC5/USBUART_1.c ****             }
 976:.\Generated_Source\PSoC5/USBUART_1.c ****             else
 977:.\Generated_Source\PSoC5/USBUART_1.c ****             {
 978:.\Generated_Source\PSoC5/USBUART_1.c ****                 /* When zero-length packet - write the Mode register directly */
 979:.\Generated_Source\PSoC5/USBUART_1.c ****                 CY_SET_REG8((reg8 *)(USBUART_1_SIE_EP1_CR0_IND + ri), USBUART_1_EP[epNumber].epMode
 980:.\Generated_Source\PSoC5/USBUART_1.c ****             }
 981:.\Generated_Source\PSoC5/USBUART_1.c ****         #endif /* End USBUART_1_EP_MM == USBUART_1__EP_DMAMANUAL */
 982:.\Generated_Source\PSoC5/USBUART_1.c **** 
 983:.\Generated_Source\PSoC5/USBUART_1.c ****         #if(USBUART_1_EP_MM == USBUART_1__EP_DMAAUTO)
 984:.\Generated_Source\PSoC5/USBUART_1.c ****             if(pData != NULL)
 985:.\Generated_Source\PSoC5/USBUART_1.c ****             {
 986:.\Generated_Source\PSoC5/USBUART_1.c ****                 /* Enable DMA in mode3 for transferring data */
 987:.\Generated_Source\PSoC5/USBUART_1.c ****                 (void) CyDmaChDisable(USBUART_1_DmaChan[epNumber]);
 988:.\Generated_Source\PSoC5/USBUART_1.c ****                 (void) CyDmaTdSetConfiguration(USBUART_1_DmaTd[epNumber], length,
 989:.\Generated_Source\PSoC5/USBUART_1.c ****                                                USBUART_1_DmaTd[epNumber], TD_TERMIN_EN | TD_INC_SRC
 990:.\Generated_Source\PSoC5/USBUART_1.c ****                 (void) CyDmaTdSetAddress(USBUART_1_DmaTd[epNumber],  LO16((uint32)pData), LO16((uin
 991:.\Generated_Source\PSoC5/USBUART_1.c ****                 /* Clear Any potential pending DMA requests before starting the DMA channel to tran
 992:.\Generated_Source\PSoC5/USBUART_1.c ****                 (void) CyDmaClearPendingDrq(USBUART_1_DmaChan[epNumber]);
 993:.\Generated_Source\PSoC5/USBUART_1.c ****                 /* Enable the DMA */
 994:.\Generated_Source\PSoC5/USBUART_1.c ****                 (void) CyDmaChSetInitialTd(USBUART_1_DmaChan[epNumber], USBUART_1_DmaTd[epNumber]);
 995:.\Generated_Source\PSoC5/USBUART_1.c ****                 (void) CyDmaChEnable(USBUART_1_DmaChan[epNumber], 1u);
 996:.\Generated_Source\PSoC5/USBUART_1.c ****             }
 997:.\Generated_Source\PSoC5/USBUART_1.c ****             else
 998:.\Generated_Source\PSoC5/USBUART_1.c ****             {
 999:.\Generated_Source\PSoC5/USBUART_1.c ****                 USBUART_1_EP[epNumber].apiEpState = USBUART_1_NO_EVENT_PENDING;
1000:.\Generated_Source\PSoC5/USBUART_1.c ****                 if(length > 0u)
1001:.\Generated_Source\PSoC5/USBUART_1.c ****                 {
1002:.\Generated_Source\PSoC5/USBUART_1.c ****                     /* Set Data ready status, This will generate DMA request */
1003:.\Generated_Source\PSoC5/USBUART_1.c ****                     * (reg8 *)(USBUART_1_ARB_EP1_CFG_IND + ri) |= USBUART_1_ARB_EPX_CFG_IN_DATA_RDY
1004:.\Generated_Source\PSoC5/USBUART_1.c ****                     /* Mode register will be written in arb ISR(In Buffer Full) after first DMA tra
ARM GAS  C:\Users\Colin\AppData\Local\Temp\ccMAPRQY.s 			page 39


1005:.\Generated_Source\PSoC5/USBUART_1.c ****                 }
1006:.\Generated_Source\PSoC5/USBUART_1.c ****                 else
1007:.\Generated_Source\PSoC5/USBUART_1.c ****                 {
1008:.\Generated_Source\PSoC5/USBUART_1.c ****                     /* When zero-length packet - write the Mode register directly */
1009:.\Generated_Source\PSoC5/USBUART_1.c ****                     CY_SET_REG8((reg8 *)(USBUART_1_SIE_EP1_CR0_IND + ri), USBUART_1_EP[epNumber].ep
1010:.\Generated_Source\PSoC5/USBUART_1.c ****                 }
1011:.\Generated_Source\PSoC5/USBUART_1.c ****             }
1012:.\Generated_Source\PSoC5/USBUART_1.c ****         #endif /* End USBUART_1_EP_MM == USBUART_1__EP_DMAAUTO */
1013:.\Generated_Source\PSoC5/USBUART_1.c **** 
1014:.\Generated_Source\PSoC5/USBUART_1.c ****     }
1015:.\Generated_Source\PSoC5/USBUART_1.c **** }
 1157              		.loc 1 1015 0
 1158 0144 07F11007 		add	r7, r7, #16
 1159 0148 BD46     		mov	sp, r7
 1160 014a 90BC     		pop	{r4, r7}
 1161 014c 7047     		bx	lr
 1162              		.cfi_endproc
 1163              	.LFE11:
 1164              		.size	USBUART_1_LoadInEP, .-USBUART_1_LoadInEP
 1165 014e 00BF     		.section	.text.USBUART_1_ReadOutEP,"ax",%progbits
 1166              		.align	2
 1167              		.global	USBUART_1_ReadOutEP
 1168              		.thumb
 1169              		.thumb_func
 1170              		.type	USBUART_1_ReadOutEP, %function
 1171              	USBUART_1_ReadOutEP:
 1172              	.LFB12:
1016:.\Generated_Source\PSoC5/USBUART_1.c **** 
1017:.\Generated_Source\PSoC5/USBUART_1.c **** 
1018:.\Generated_Source\PSoC5/USBUART_1.c **** /*******************************************************************************
1019:.\Generated_Source\PSoC5/USBUART_1.c **** * Function Name: USBUART_1_ReadOutEP
1020:.\Generated_Source\PSoC5/USBUART_1.c **** ********************************************************************************
1021:.\Generated_Source\PSoC5/USBUART_1.c **** *
1022:.\Generated_Source\PSoC5/USBUART_1.c **** * Summary:
1023:.\Generated_Source\PSoC5/USBUART_1.c **** *  Read data from an endpoint.  The application must call
1024:.\Generated_Source\PSoC5/USBUART_1.c **** *  USBUART_1_GetEPState to see if an event is pending.
1025:.\Generated_Source\PSoC5/USBUART_1.c **** *
1026:.\Generated_Source\PSoC5/USBUART_1.c **** * Parameters:
1027:.\Generated_Source\PSoC5/USBUART_1.c **** *  epNumber: Contains the data endpoint number.
1028:.\Generated_Source\PSoC5/USBUART_1.c **** *            Valid values are between 1 and 8.
1029:.\Generated_Source\PSoC5/USBUART_1.c **** *  pData: A pointer to a data array from which the data for the endpoint space
1030:.\Generated_Source\PSoC5/USBUART_1.c **** *         is loaded.
1031:.\Generated_Source\PSoC5/USBUART_1.c **** *  length: The number of bytes to transfer from the USB Out endpoint and loads
1032:.\Generated_Source\PSoC5/USBUART_1.c **** *          it into data array. Valid values are between 0 and 1023. The function
1033:.\Generated_Source\PSoC5/USBUART_1.c **** *          moves fewer than the requested number of bytes if the host sends
1034:.\Generated_Source\PSoC5/USBUART_1.c **** *          fewer bytes than requested.
1035:.\Generated_Source\PSoC5/USBUART_1.c **** *
1036:.\Generated_Source\PSoC5/USBUART_1.c **** * Returns:
1037:.\Generated_Source\PSoC5/USBUART_1.c **** *  Number of bytes received, 0 for an invalid endpoint.
1038:.\Generated_Source\PSoC5/USBUART_1.c **** *
1039:.\Generated_Source\PSoC5/USBUART_1.c **** * Reentrant:
1040:.\Generated_Source\PSoC5/USBUART_1.c **** *  No.
1041:.\Generated_Source\PSoC5/USBUART_1.c **** *
1042:.\Generated_Source\PSoC5/USBUART_1.c **** *******************************************************************************/
1043:.\Generated_Source\PSoC5/USBUART_1.c **** uint16 USBUART_1_ReadOutEP(uint8 epNumber, uint8 pData[], uint16 length)
1044:.\Generated_Source\PSoC5/USBUART_1.c ****                                                                         
1045:.\Generated_Source\PSoC5/USBUART_1.c **** {
ARM GAS  C:\Users\Colin\AppData\Local\Temp\ccMAPRQY.s 			page 40


 1173              		.loc 1 1045 0
 1174              		.cfi_startproc
 1175              		@ args = 0, pretend = 0, frame = 24
 1176              		@ frame_needed = 1, uses_anonymous_args = 0
 1177 0000 80B5     		push	{r7, lr}
 1178              	.LCFI34:
 1179              		.cfi_def_cfa_offset 8
 1180              		.cfi_offset 7, -8
 1181              		.cfi_offset 14, -4
 1182 0002 86B0     		sub	sp, sp, #24
 1183              	.LCFI35:
 1184              		.cfi_def_cfa_offset 32
 1185 0004 00AF     		add	r7, sp, #0
 1186              	.LCFI36:
 1187              		.cfi_def_cfa_register 7
 1188 0006 3960     		str	r1, [r7, #0]
 1189 0008 1346     		mov	r3, r2
 1190 000a 0246     		mov	r2, r0
 1191 000c FA71     		strb	r2, [r7, #7]
 1192 000e BB80     		strh	r3, [r7, #4]	@ movhi
1046:.\Generated_Source\PSoC5/USBUART_1.c ****     uint8 ri;
1047:.\Generated_Source\PSoC5/USBUART_1.c ****     reg8 *p;
1048:.\Generated_Source\PSoC5/USBUART_1.c ****     #if(USBUART_1_EP_MM == USBUART_1__EP_MANUAL)
1049:.\Generated_Source\PSoC5/USBUART_1.c ****         uint16 i;
1050:.\Generated_Source\PSoC5/USBUART_1.c ****     #endif /* End USBUART_1_EP_MM == USBUART_1__EP_MANUAL */
1051:.\Generated_Source\PSoC5/USBUART_1.c ****     #if(USBUART_1_EP_MM != USBUART_1__EP_DMAAUTO)
1052:.\Generated_Source\PSoC5/USBUART_1.c ****         uint16 xferCount;
1053:.\Generated_Source\PSoC5/USBUART_1.c ****     #endif /* End USBUART_1_EP_MM != USBUART_1__EP_DMAAUTO */
1054:.\Generated_Source\PSoC5/USBUART_1.c **** 
1055:.\Generated_Source\PSoC5/USBUART_1.c ****     if((epNumber > USBUART_1_EP0) && (epNumber < USBUART_1_MAX_EP) && (pData != NULL))
 1193              		.loc 1 1055 0
 1194 0010 FB79     		ldrb	r3, [r7, #7]	@ zero_extendqisi2
 1195 0012 002B     		cmp	r3, #0
 1196 0014 37D0     		beq	.L37
 1197              		.loc 1 1055 0 is_stmt 0 discriminator 1
 1198 0016 FB79     		ldrb	r3, [r7, #7]	@ zero_extendqisi2
 1199 0018 082B     		cmp	r3, #8
 1200 001a 34D8     		bhi	.L37
 1201 001c 3B68     		ldr	r3, [r7, #0]
 1202 001e 002B     		cmp	r3, #0
 1203 0020 31D0     		beq	.L37
1056:.\Generated_Source\PSoC5/USBUART_1.c ****     {
1057:.\Generated_Source\PSoC5/USBUART_1.c ****         ri = ((epNumber - USBUART_1_EP1) << USBUART_1_EPX_CNTX_ADDR_SHIFT);
 1204              		.loc 1 1057 0 is_stmt 1
 1205 0022 FB79     		ldrb	r3, [r7, #7]
 1206 0024 03F1FF33 		add	r3, r3, #-1
 1207 0028 DBB2     		uxtb	r3, r3
 1208 002a 4FEA0313 		lsl	r3, r3, #4
 1209 002e 7B75     		strb	r3, [r7, #21]
1058:.\Generated_Source\PSoC5/USBUART_1.c ****         p = (reg8 *)(USBUART_1_ARB_RW1_DR_IND + ri);
 1210              		.loc 1 1058 0
 1211 0030 7A7D     		ldrb	r2, [r7, #21]	@ zero_extendqisi2
 1212 0032 46F28803 		movw	r3, #24712
 1213 0036 C4F20003 		movt	r3, 16384
 1214 003a D318     		adds	r3, r2, r3
 1215 003c 3B61     		str	r3, [r7, #16]
1059:.\Generated_Source\PSoC5/USBUART_1.c **** 
ARM GAS  C:\Users\Colin\AppData\Local\Temp\ccMAPRQY.s 			page 41


1060:.\Generated_Source\PSoC5/USBUART_1.c ****         #if(USBUART_1_EP_MM != USBUART_1__EP_DMAAUTO)
1061:.\Generated_Source\PSoC5/USBUART_1.c ****             /* Determine which is smaller the requested data or the available data */
1062:.\Generated_Source\PSoC5/USBUART_1.c ****             xferCount = USBUART_1_GetEPCount(epNumber);
 1216              		.loc 1 1062 0
 1217 003e FB79     		ldrb	r3, [r7, #7]	@ zero_extendqisi2
 1218 0040 1846     		mov	r0, r3
 1219 0042 FFF7FEFF 		bl	USBUART_1_GetEPCount
 1220 0046 0346     		mov	r3, r0
 1221 0048 FB81     		strh	r3, [r7, #14]	@ movhi
1063:.\Generated_Source\PSoC5/USBUART_1.c ****             if (length > xferCount)
 1222              		.loc 1 1063 0
 1223 004a BA88     		ldrh	r2, [r7, #4]
 1224 004c FB89     		ldrh	r3, [r7, #14]
 1225 004e 9A42     		cmp	r2, r3
 1226 0050 01D9     		bls	.L38
1064:.\Generated_Source\PSoC5/USBUART_1.c ****             {
1065:.\Generated_Source\PSoC5/USBUART_1.c ****                 length = xferCount;
 1227              		.loc 1 1065 0
 1228 0052 FB89     		ldrh	r3, [r7, #14]	@ movhi
 1229 0054 BB80     		strh	r3, [r7, #4]	@ movhi
 1230              	.L38:
1066:.\Generated_Source\PSoC5/USBUART_1.c ****             }
1067:.\Generated_Source\PSoC5/USBUART_1.c ****         #endif /* End USBUART_1_EP_MM != USBUART_1__EP_DMAAUTO */
1068:.\Generated_Source\PSoC5/USBUART_1.c **** 
1069:.\Generated_Source\PSoC5/USBUART_1.c ****         #if(USBUART_1_EP_MM == USBUART_1__EP_MANUAL)
1070:.\Generated_Source\PSoC5/USBUART_1.c ****             /* Copy the data using the arbiter data register */
1071:.\Generated_Source\PSoC5/USBUART_1.c ****             for (i = 0u; i < length; i++)
 1231              		.loc 1 1071 0
 1232 0056 4FF00003 		mov	r3, #0
 1233 005a FB82     		strh	r3, [r7, #22]	@ movhi
 1234 005c 0AE0     		b	.L39
 1235              	.L40:
1072:.\Generated_Source\PSoC5/USBUART_1.c ****             {
1073:.\Generated_Source\PSoC5/USBUART_1.c ****                 pData[i] = CY_GET_REG8(p);
 1236              		.loc 1 1073 0 discriminator 2
 1237 005e FB8A     		ldrh	r3, [r7, #22]
 1238 0060 3A68     		ldr	r2, [r7, #0]
 1239 0062 D318     		adds	r3, r2, r3
 1240 0064 3A69     		ldr	r2, [r7, #16]
 1241 0066 1278     		ldrb	r2, [r2, #0]
 1242 0068 D2B2     		uxtb	r2, r2
 1243 006a 1A70     		strb	r2, [r3, #0]
1071:.\Generated_Source\PSoC5/USBUART_1.c ****             for (i = 0u; i < length; i++)
 1244              		.loc 1 1071 0 discriminator 2
 1245 006c FB8A     		ldrh	r3, [r7, #22]	@ movhi
 1246 006e 03F10103 		add	r3, r3, #1
 1247 0072 FB82     		strh	r3, [r7, #22]	@ movhi
 1248              	.L39:
1071:.\Generated_Source\PSoC5/USBUART_1.c ****             for (i = 0u; i < length; i++)
 1249              		.loc 1 1071 0 is_stmt 0 discriminator 1
 1250 0074 FA8A     		ldrh	r2, [r7, #22]
 1251 0076 BB88     		ldrh	r3, [r7, #4]
 1252 0078 9A42     		cmp	r2, r3
 1253 007a F0D3     		bcc	.L40
1074:.\Generated_Source\PSoC5/USBUART_1.c ****             }
1075:.\Generated_Source\PSoC5/USBUART_1.c **** 
1076:.\Generated_Source\PSoC5/USBUART_1.c ****             /* (re)arming of OUT endpoint */
ARM GAS  C:\Users\Colin\AppData\Local\Temp\ccMAPRQY.s 			page 42


1077:.\Generated_Source\PSoC5/USBUART_1.c ****             USBUART_1_EnableOutEP(epNumber);
 1254              		.loc 1 1077 0 is_stmt 1
 1255 007c FB79     		ldrb	r3, [r7, #7]	@ zero_extendqisi2
 1256 007e 1846     		mov	r0, r3
 1257 0080 FFF7FEFF 		bl	USBUART_1_EnableOutEP
 1258 0084 02E0     		b	.L41
 1259              	.L37:
1078:.\Generated_Source\PSoC5/USBUART_1.c ****         #else
1079:.\Generated_Source\PSoC5/USBUART_1.c ****             /*Init DMA if it was not initialized */
1080:.\Generated_Source\PSoC5/USBUART_1.c ****             if(USBUART_1_DmaTd[epNumber] == DMA_INVALID_TD)
1081:.\Generated_Source\PSoC5/USBUART_1.c ****             {
1082:.\Generated_Source\PSoC5/USBUART_1.c ****                 USBUART_1_InitEP_DMA(epNumber, pData);
1083:.\Generated_Source\PSoC5/USBUART_1.c ****             }
1084:.\Generated_Source\PSoC5/USBUART_1.c ****         #endif /* End USBUART_1_EP_MM == USBUART_1__EP_MANUAL */
1085:.\Generated_Source\PSoC5/USBUART_1.c **** 
1086:.\Generated_Source\PSoC5/USBUART_1.c ****         #if(USBUART_1_EP_MM == USBUART_1__EP_DMAMANUAL)
1087:.\Generated_Source\PSoC5/USBUART_1.c ****             /* Enable DMA in mode2 for transferring data */
1088:.\Generated_Source\PSoC5/USBUART_1.c ****             (void) CyDmaChDisable(USBUART_1_DmaChan[epNumber]);
1089:.\Generated_Source\PSoC5/USBUART_1.c ****             (void) CyDmaTdSetConfiguration(USBUART_1_DmaTd[epNumber], length, CY_DMA_DISABLE_TD,
1090:.\Generated_Source\PSoC5/USBUART_1.c ****                                                                                 TD_TERMIN_EN | TD_I
1091:.\Generated_Source\PSoC5/USBUART_1.c ****             (void) CyDmaTdSetAddress(USBUART_1_DmaTd[epNumber],  LO16((uint32)p), LO16((uint32)pDat
1092:.\Generated_Source\PSoC5/USBUART_1.c ****             /* Enable the DMA */
1093:.\Generated_Source\PSoC5/USBUART_1.c ****             (void) CyDmaChSetInitialTd(USBUART_1_DmaChan[epNumber], USBUART_1_DmaTd[epNumber]);
1094:.\Generated_Source\PSoC5/USBUART_1.c ****             (void) CyDmaChEnable(USBUART_1_DmaChan[epNumber], 1u);
1095:.\Generated_Source\PSoC5/USBUART_1.c **** 
1096:.\Generated_Source\PSoC5/USBUART_1.c ****             /* Generate DMA request */
1097:.\Generated_Source\PSoC5/USBUART_1.c ****             * (reg8 *)(USBUART_1_ARB_EP1_CFG_IND + ri) |= USBUART_1_ARB_EPX_CFG_DMA_REQ;
1098:.\Generated_Source\PSoC5/USBUART_1.c ****             * (reg8 *)(USBUART_1_ARB_EP1_CFG_IND + ri) &= ((uint8)(~USBUART_1_ARB_EPX_CFG_DMA_REQ))
1099:.\Generated_Source\PSoC5/USBUART_1.c ****             /* Out EP will be (re)armed in arb ISR after transfer complete */
1100:.\Generated_Source\PSoC5/USBUART_1.c ****         #endif /* End USBUART_1_EP_MM == USBUART_1__EP_DMAMANUAL */
1101:.\Generated_Source\PSoC5/USBUART_1.c **** 
1102:.\Generated_Source\PSoC5/USBUART_1.c ****         #if(USBUART_1_EP_MM == USBUART_1__EP_DMAAUTO)
1103:.\Generated_Source\PSoC5/USBUART_1.c ****             /* Enable DMA in mode3 for transferring data */
1104:.\Generated_Source\PSoC5/USBUART_1.c ****             (void) CyDmaChDisable(USBUART_1_DmaChan[epNumber]);
1105:.\Generated_Source\PSoC5/USBUART_1.c ****             (void) CyDmaTdSetConfiguration(USBUART_1_DmaTd[epNumber], length, USBUART_1_DmaTd[epNum
1106:.\Generated_Source\PSoC5/USBUART_1.c ****                                                                                 TD_TERMIN_EN | TD_I
1107:.\Generated_Source\PSoC5/USBUART_1.c ****             (void) CyDmaTdSetAddress(USBUART_1_DmaTd[epNumber],  LO16((uint32)p), LO16((uint32)pDat
1108:.\Generated_Source\PSoC5/USBUART_1.c **** 
1109:.\Generated_Source\PSoC5/USBUART_1.c ****             /* Clear Any potential pending DMA requests before starting the DMA channel to transfer
1110:.\Generated_Source\PSoC5/USBUART_1.c ****             (void) CyDmaClearPendingDrq(USBUART_1_DmaChan[epNumber]);
1111:.\Generated_Source\PSoC5/USBUART_1.c ****             /* Enable the DMA */
1112:.\Generated_Source\PSoC5/USBUART_1.c ****             (void) CyDmaChSetInitialTd(USBUART_1_DmaChan[epNumber], USBUART_1_DmaTd[epNumber]);
1113:.\Generated_Source\PSoC5/USBUART_1.c ****             (void) CyDmaChEnable(USBUART_1_DmaChan[epNumber], 1u);
1114:.\Generated_Source\PSoC5/USBUART_1.c ****             /* Out EP will be (re)armed in arb ISR after transfer complete */
1115:.\Generated_Source\PSoC5/USBUART_1.c ****         #endif /* End USBUART_1_EP_MM == USBUART_1__EP_DMAAUTO */
1116:.\Generated_Source\PSoC5/USBUART_1.c **** 
1117:.\Generated_Source\PSoC5/USBUART_1.c ****     }
1118:.\Generated_Source\PSoC5/USBUART_1.c ****     else
1119:.\Generated_Source\PSoC5/USBUART_1.c ****     {
1120:.\Generated_Source\PSoC5/USBUART_1.c ****         length = 0u;
 1260              		.loc 1 1120 0
 1261 0086 4FF00003 		mov	r3, #0
 1262 008a BB80     		strh	r3, [r7, #4]	@ movhi
 1263              	.L41:
1121:.\Generated_Source\PSoC5/USBUART_1.c ****     }
1122:.\Generated_Source\PSoC5/USBUART_1.c **** 
1123:.\Generated_Source\PSoC5/USBUART_1.c ****     return(length);
ARM GAS  C:\Users\Colin\AppData\Local\Temp\ccMAPRQY.s 			page 43


 1264              		.loc 1 1123 0
 1265 008c BB88     		ldrh	r3, [r7, #4]
1124:.\Generated_Source\PSoC5/USBUART_1.c **** }
 1266              		.loc 1 1124 0
 1267 008e 1846     		mov	r0, r3
 1268 0090 07F11807 		add	r7, r7, #24
 1269 0094 BD46     		mov	sp, r7
 1270 0096 80BD     		pop	{r7, pc}
 1271              		.cfi_endproc
 1272              	.LFE12:
 1273              		.size	USBUART_1_ReadOutEP, .-USBUART_1_ReadOutEP
 1274              		.section	.text.USBUART_1_EnableOutEP,"ax",%progbits
 1275              		.align	2
 1276              		.global	USBUART_1_EnableOutEP
 1277              		.thumb
 1278              		.thumb_func
 1279              		.type	USBUART_1_EnableOutEP, %function
 1280              	USBUART_1_EnableOutEP:
 1281              	.LFB13:
1125:.\Generated_Source\PSoC5/USBUART_1.c **** 
1126:.\Generated_Source\PSoC5/USBUART_1.c **** 
1127:.\Generated_Source\PSoC5/USBUART_1.c **** /*******************************************************************************
1128:.\Generated_Source\PSoC5/USBUART_1.c **** * Function Name: USBUART_1_EnableOutEP
1129:.\Generated_Source\PSoC5/USBUART_1.c **** ********************************************************************************
1130:.\Generated_Source\PSoC5/USBUART_1.c **** *
1131:.\Generated_Source\PSoC5/USBUART_1.c **** * Summary:
1132:.\Generated_Source\PSoC5/USBUART_1.c **** *  This function enables an OUT endpoint.  It should not be
1133:.\Generated_Source\PSoC5/USBUART_1.c **** *  called for an IN endpoint.
1134:.\Generated_Source\PSoC5/USBUART_1.c **** *
1135:.\Generated_Source\PSoC5/USBUART_1.c **** * Parameters:
1136:.\Generated_Source\PSoC5/USBUART_1.c **** *  epNumber: Endpoint Number
1137:.\Generated_Source\PSoC5/USBUART_1.c **** *            Valid values are between 1 and 8.
1138:.\Generated_Source\PSoC5/USBUART_1.c **** *
1139:.\Generated_Source\PSoC5/USBUART_1.c **** * Return:
1140:.\Generated_Source\PSoC5/USBUART_1.c **** *   None.
1141:.\Generated_Source\PSoC5/USBUART_1.c **** *
1142:.\Generated_Source\PSoC5/USBUART_1.c **** * Global variables:
1143:.\Generated_Source\PSoC5/USBUART_1.c **** *  USBUART_1_EP[epNumber].apiEpState - set to NO_EVENT_PENDING
1144:.\Generated_Source\PSoC5/USBUART_1.c **** *
1145:.\Generated_Source\PSoC5/USBUART_1.c **** * Reentrant:
1146:.\Generated_Source\PSoC5/USBUART_1.c **** *  No.
1147:.\Generated_Source\PSoC5/USBUART_1.c **** *
1148:.\Generated_Source\PSoC5/USBUART_1.c **** *******************************************************************************/
1149:.\Generated_Source\PSoC5/USBUART_1.c **** void USBUART_1_EnableOutEP(uint8 epNumber) 
1150:.\Generated_Source\PSoC5/USBUART_1.c **** {
 1282              		.loc 1 1150 0
 1283              		.cfi_startproc
 1284              		@ args = 0, pretend = 0, frame = 16
 1285              		@ frame_needed = 1, uses_anonymous_args = 0
 1286              		@ link register save eliminated.
 1287 0000 80B4     		push	{r7}
 1288              	.LCFI37:
 1289              		.cfi_def_cfa_offset 4
 1290              		.cfi_offset 7, -4
 1291 0002 85B0     		sub	sp, sp, #20
 1292              	.LCFI38:
 1293              		.cfi_def_cfa_offset 24
ARM GAS  C:\Users\Colin\AppData\Local\Temp\ccMAPRQY.s 			page 44


 1294 0004 00AF     		add	r7, sp, #0
 1295              	.LCFI39:
 1296              		.cfi_def_cfa_register 7
 1297 0006 0346     		mov	r3, r0
 1298 0008 FB71     		strb	r3, [r7, #7]
1151:.\Generated_Source\PSoC5/USBUART_1.c ****     uint8 ri;
1152:.\Generated_Source\PSoC5/USBUART_1.c **** 
1153:.\Generated_Source\PSoC5/USBUART_1.c ****     if((epNumber > USBUART_1_EP0) && (epNumber < USBUART_1_MAX_EP))
 1299              		.loc 1 1153 0
 1300 000a FB79     		ldrb	r3, [r7, #7]	@ zero_extendqisi2
 1301 000c 002B     		cmp	r3, #0
 1302 000e 2ED0     		beq	.L43
 1303              		.loc 1 1153 0 is_stmt 0 discriminator 1
 1304 0010 FB79     		ldrb	r3, [r7, #7]	@ zero_extendqisi2
 1305 0012 082B     		cmp	r3, #8
 1306 0014 2BD8     		bhi	.L43
1154:.\Generated_Source\PSoC5/USBUART_1.c ****     {
1155:.\Generated_Source\PSoC5/USBUART_1.c ****         ri = ((epNumber - USBUART_1_EP1) << USBUART_1_EPX_CNTX_ADDR_SHIFT);
 1307              		.loc 1 1155 0 is_stmt 1
 1308 0016 FB79     		ldrb	r3, [r7, #7]
 1309 0018 03F1FF33 		add	r3, r3, #-1
 1310 001c DBB2     		uxtb	r3, r3
 1311 001e 4FEA0313 		lsl	r3, r3, #4
 1312 0022 FB73     		strb	r3, [r7, #15]
1156:.\Generated_Source\PSoC5/USBUART_1.c ****         USBUART_1_EP[epNumber].apiEpState = USBUART_1_NO_EVENT_PENDING;
 1313              		.loc 1 1156 0
 1314 0024 F979     		ldrb	r1, [r7, #7]	@ zero_extendqisi2
 1315 0026 40F20002 		movw	r2, #:lower16:USBUART_1_EP
 1316 002a C0F20002 		movt	r2, #:upper16:USBUART_1_EP
 1317 002e 0B46     		mov	r3, r1
 1318 0030 4FEA4303 		lsl	r3, r3, #1
 1319 0034 5B18     		adds	r3, r3, r1
 1320 0036 4FEA8303 		lsl	r3, r3, #2
 1321 003a D318     		adds	r3, r2, r3
 1322 003c 4FF00002 		mov	r2, #0
 1323 0040 5A70     		strb	r2, [r3, #1]
1157:.\Generated_Source\PSoC5/USBUART_1.c ****         /* Write the Mode register */
1158:.\Generated_Source\PSoC5/USBUART_1.c ****         CY_SET_REG8((reg8 *)(USBUART_1_SIE_EP1_CR0_IND + ri), USBUART_1_EP[epNumber].epMode);
 1324              		.loc 1 1158 0
 1325 0042 FA7B     		ldrb	r2, [r7, #15]	@ zero_extendqisi2
 1326 0044 46F20E03 		movw	r3, #24590
 1327 0048 C4F20003 		movt	r3, 16384
 1328 004c D318     		adds	r3, r2, r3
 1329 004e 1846     		mov	r0, r3
 1330 0050 F979     		ldrb	r1, [r7, #7]	@ zero_extendqisi2
 1331 0052 40F20002 		movw	r2, #:lower16:USBUART_1_EP
 1332 0056 C0F20002 		movt	r2, #:upper16:USBUART_1_EP
 1333 005a 0B46     		mov	r3, r1
 1334 005c 4FEA4303 		lsl	r3, r3, #1
 1335 0060 5B18     		adds	r3, r3, r1
 1336 0062 4FEA8303 		lsl	r3, r3, #2
 1337 0066 D318     		adds	r3, r2, r3
 1338 0068 5B79     		ldrb	r3, [r3, #5]
 1339 006a DBB2     		uxtb	r3, r3
 1340 006c 0370     		strb	r3, [r0, #0]
 1341              	.L43:
1159:.\Generated_Source\PSoC5/USBUART_1.c ****     }
ARM GAS  C:\Users\Colin\AppData\Local\Temp\ccMAPRQY.s 			page 45


1160:.\Generated_Source\PSoC5/USBUART_1.c **** }
 1342              		.loc 1 1160 0
 1343 006e 07F11407 		add	r7, r7, #20
 1344 0072 BD46     		mov	sp, r7
 1345 0074 80BC     		pop	{r7}
 1346 0076 7047     		bx	lr
 1347              		.cfi_endproc
 1348              	.LFE13:
 1349              		.size	USBUART_1_EnableOutEP, .-USBUART_1_EnableOutEP
 1350              		.section	.text.USBUART_1_DisableOutEP,"ax",%progbits
 1351              		.align	2
 1352              		.global	USBUART_1_DisableOutEP
 1353              		.thumb
 1354              		.thumb_func
 1355              		.type	USBUART_1_DisableOutEP, %function
 1356              	USBUART_1_DisableOutEP:
 1357              	.LFB14:
1161:.\Generated_Source\PSoC5/USBUART_1.c **** 
1162:.\Generated_Source\PSoC5/USBUART_1.c **** 
1163:.\Generated_Source\PSoC5/USBUART_1.c **** /*******************************************************************************
1164:.\Generated_Source\PSoC5/USBUART_1.c **** * Function Name: USBUART_1_DisableOutEP
1165:.\Generated_Source\PSoC5/USBUART_1.c **** ********************************************************************************
1166:.\Generated_Source\PSoC5/USBUART_1.c **** *
1167:.\Generated_Source\PSoC5/USBUART_1.c **** * Summary:
1168:.\Generated_Source\PSoC5/USBUART_1.c **** *  This function disables an OUT endpoint.  It should not be
1169:.\Generated_Source\PSoC5/USBUART_1.c **** *  called for an IN endpoint.
1170:.\Generated_Source\PSoC5/USBUART_1.c **** *
1171:.\Generated_Source\PSoC5/USBUART_1.c **** * Parameters:
1172:.\Generated_Source\PSoC5/USBUART_1.c **** *  epNumber: Endpoint Number
1173:.\Generated_Source\PSoC5/USBUART_1.c **** *            Valid values are between 1 and 8.
1174:.\Generated_Source\PSoC5/USBUART_1.c **** *
1175:.\Generated_Source\PSoC5/USBUART_1.c **** * Return:
1176:.\Generated_Source\PSoC5/USBUART_1.c **** *  None.
1177:.\Generated_Source\PSoC5/USBUART_1.c **** *
1178:.\Generated_Source\PSoC5/USBUART_1.c **** *******************************************************************************/
1179:.\Generated_Source\PSoC5/USBUART_1.c **** void USBUART_1_DisableOutEP(uint8 epNumber) 
1180:.\Generated_Source\PSoC5/USBUART_1.c **** {
 1358              		.loc 1 1180 0
 1359              		.cfi_startproc
 1360              		@ args = 0, pretend = 0, frame = 16
 1361              		@ frame_needed = 1, uses_anonymous_args = 0
 1362              		@ link register save eliminated.
 1363 0000 80B4     		push	{r7}
 1364              	.LCFI40:
 1365              		.cfi_def_cfa_offset 4
 1366              		.cfi_offset 7, -4
 1367 0002 85B0     		sub	sp, sp, #20
 1368              	.LCFI41:
 1369              		.cfi_def_cfa_offset 24
 1370 0004 00AF     		add	r7, sp, #0
 1371              	.LCFI42:
 1372              		.cfi_def_cfa_register 7
 1373 0006 0346     		mov	r3, r0
 1374 0008 FB71     		strb	r3, [r7, #7]
1181:.\Generated_Source\PSoC5/USBUART_1.c ****     uint8 ri ;
1182:.\Generated_Source\PSoC5/USBUART_1.c **** 
1183:.\Generated_Source\PSoC5/USBUART_1.c ****     if((epNumber > USBUART_1_EP0) && (epNumber < USBUART_1_MAX_EP))
ARM GAS  C:\Users\Colin\AppData\Local\Temp\ccMAPRQY.s 			page 46


 1375              		.loc 1 1183 0
 1376 000a FB79     		ldrb	r3, [r7, #7]	@ zero_extendqisi2
 1377 000c 002B     		cmp	r3, #0
 1378 000e 12D0     		beq	.L45
 1379              		.loc 1 1183 0 is_stmt 0 discriminator 1
 1380 0010 FB79     		ldrb	r3, [r7, #7]	@ zero_extendqisi2
 1381 0012 082B     		cmp	r3, #8
 1382 0014 0FD8     		bhi	.L45
1184:.\Generated_Source\PSoC5/USBUART_1.c ****     {
1185:.\Generated_Source\PSoC5/USBUART_1.c ****         ri = ((epNumber - USBUART_1_EP1) << USBUART_1_EPX_CNTX_ADDR_SHIFT);
 1383              		.loc 1 1185 0 is_stmt 1
 1384 0016 FB79     		ldrb	r3, [r7, #7]
 1385 0018 03F1FF33 		add	r3, r3, #-1
 1386 001c DBB2     		uxtb	r3, r3
 1387 001e 4FEA0313 		lsl	r3, r3, #4
 1388 0022 FB73     		strb	r3, [r7, #15]
1186:.\Generated_Source\PSoC5/USBUART_1.c ****         /* Write the Mode register */
1187:.\Generated_Source\PSoC5/USBUART_1.c ****         CY_SET_REG8((reg8 *)(USBUART_1_SIE_EP1_CR0_IND + ri), USBUART_1_MODE_NAK_OUT);
 1389              		.loc 1 1187 0
 1390 0024 FA7B     		ldrb	r2, [r7, #15]	@ zero_extendqisi2
 1391 0026 46F20E03 		movw	r3, #24590
 1392 002a C4F20003 		movt	r3, 16384
 1393 002e D318     		adds	r3, r2, r3
 1394 0030 4FF00802 		mov	r2, #8
 1395 0034 1A70     		strb	r2, [r3, #0]
 1396              	.L45:
1188:.\Generated_Source\PSoC5/USBUART_1.c ****     }
1189:.\Generated_Source\PSoC5/USBUART_1.c **** }
 1397              		.loc 1 1189 0
 1398 0036 07F11407 		add	r7, r7, #20
 1399 003a BD46     		mov	sp, r7
 1400 003c 80BC     		pop	{r7}
 1401 003e 7047     		bx	lr
 1402              		.cfi_endproc
 1403              	.LFE14:
 1404              		.size	USBUART_1_DisableOutEP, .-USBUART_1_DisableOutEP
 1405              		.section	.text.USBUART_1_Force,"ax",%progbits
 1406              		.align	2
 1407              		.global	USBUART_1_Force
 1408              		.thumb
 1409              		.thumb_func
 1410              		.type	USBUART_1_Force, %function
 1411              	USBUART_1_Force:
 1412              	.LFB15:
1190:.\Generated_Source\PSoC5/USBUART_1.c **** 
1191:.\Generated_Source\PSoC5/USBUART_1.c **** 
1192:.\Generated_Source\PSoC5/USBUART_1.c **** /*******************************************************************************
1193:.\Generated_Source\PSoC5/USBUART_1.c **** * Function Name: USBUART_1_Force
1194:.\Generated_Source\PSoC5/USBUART_1.c **** ********************************************************************************
1195:.\Generated_Source\PSoC5/USBUART_1.c **** *
1196:.\Generated_Source\PSoC5/USBUART_1.c **** * Summary:
1197:.\Generated_Source\PSoC5/USBUART_1.c **** *  Forces the bus state
1198:.\Generated_Source\PSoC5/USBUART_1.c **** *
1199:.\Generated_Source\PSoC5/USBUART_1.c **** * Parameters:
1200:.\Generated_Source\PSoC5/USBUART_1.c **** *  bState
1201:.\Generated_Source\PSoC5/USBUART_1.c **** *    USBUART_1_FORCE_J
1202:.\Generated_Source\PSoC5/USBUART_1.c **** *    USBUART_1_FORCE_K
ARM GAS  C:\Users\Colin\AppData\Local\Temp\ccMAPRQY.s 			page 47


1203:.\Generated_Source\PSoC5/USBUART_1.c **** *    USBUART_1_FORCE_SE0
1204:.\Generated_Source\PSoC5/USBUART_1.c **** *    USBUART_1_FORCE_NONE
1205:.\Generated_Source\PSoC5/USBUART_1.c **** *
1206:.\Generated_Source\PSoC5/USBUART_1.c **** * Return:
1207:.\Generated_Source\PSoC5/USBUART_1.c **** *  None.
1208:.\Generated_Source\PSoC5/USBUART_1.c **** *
1209:.\Generated_Source\PSoC5/USBUART_1.c **** *******************************************************************************/
1210:.\Generated_Source\PSoC5/USBUART_1.c **** void USBUART_1_Force(uint8 bState) 
1211:.\Generated_Source\PSoC5/USBUART_1.c **** {
 1413              		.loc 1 1211 0
 1414              		.cfi_startproc
 1415              		@ args = 0, pretend = 0, frame = 8
 1416              		@ frame_needed = 1, uses_anonymous_args = 0
 1417              		@ link register save eliminated.
 1418 0000 80B4     		push	{r7}
 1419              	.LCFI43:
 1420              		.cfi_def_cfa_offset 4
 1421              		.cfi_offset 7, -4
 1422 0002 83B0     		sub	sp, sp, #12
 1423              	.LCFI44:
 1424              		.cfi_def_cfa_offset 16
 1425 0004 00AF     		add	r7, sp, #0
 1426              	.LCFI45:
 1427              		.cfi_def_cfa_register 7
 1428 0006 0346     		mov	r3, r0
 1429 0008 FB71     		strb	r3, [r7, #7]
1212:.\Generated_Source\PSoC5/USBUART_1.c ****     CY_SET_REG8(USBUART_1_USBIO_CR0_PTR, bState);
 1430              		.loc 1 1212 0
 1431 000a 46F21003 		movw	r3, #24592
 1432 000e C4F20003 		movt	r3, 16384
 1433 0012 FA79     		ldrb	r2, [r7, #7]
 1434 0014 1A70     		strb	r2, [r3, #0]
1213:.\Generated_Source\PSoC5/USBUART_1.c **** }
 1435              		.loc 1 1213 0
 1436 0016 07F10C07 		add	r7, r7, #12
 1437 001a BD46     		mov	sp, r7
 1438 001c 80BC     		pop	{r7}
 1439 001e 7047     		bx	lr
 1440              		.cfi_endproc
 1441              	.LFE15:
 1442              		.size	USBUART_1_Force, .-USBUART_1_Force
 1443              		.section	.text.USBUART_1_GetEPAckState,"ax",%progbits
 1444              		.align	2
 1445              		.global	USBUART_1_GetEPAckState
 1446              		.thumb
 1447              		.thumb_func
 1448              		.type	USBUART_1_GetEPAckState, %function
 1449              	USBUART_1_GetEPAckState:
 1450              	.LFB16:
1214:.\Generated_Source\PSoC5/USBUART_1.c **** 
1215:.\Generated_Source\PSoC5/USBUART_1.c **** 
1216:.\Generated_Source\PSoC5/USBUART_1.c **** /*******************************************************************************
1217:.\Generated_Source\PSoC5/USBUART_1.c **** * Function Name: USBUART_1_GetEPAckState
1218:.\Generated_Source\PSoC5/USBUART_1.c **** ********************************************************************************
1219:.\Generated_Source\PSoC5/USBUART_1.c **** *
1220:.\Generated_Source\PSoC5/USBUART_1.c **** * Summary:
1221:.\Generated_Source\PSoC5/USBUART_1.c **** *  Returns the ACK of the CR0 Register (ACKD)
ARM GAS  C:\Users\Colin\AppData\Local\Temp\ccMAPRQY.s 			page 48


1222:.\Generated_Source\PSoC5/USBUART_1.c **** *
1223:.\Generated_Source\PSoC5/USBUART_1.c **** * Parameters:
1224:.\Generated_Source\PSoC5/USBUART_1.c **** *  epNumber: Endpoint Number
1225:.\Generated_Source\PSoC5/USBUART_1.c **** *            Valid values are between 1 and 8.
1226:.\Generated_Source\PSoC5/USBUART_1.c **** *
1227:.\Generated_Source\PSoC5/USBUART_1.c **** * Returns
1228:.\Generated_Source\PSoC5/USBUART_1.c **** *  0 if nothing has been ACKD, non-=zero something has been ACKD
1229:.\Generated_Source\PSoC5/USBUART_1.c **** *
1230:.\Generated_Source\PSoC5/USBUART_1.c **** *******************************************************************************/
1231:.\Generated_Source\PSoC5/USBUART_1.c **** uint8 USBUART_1_GetEPAckState(uint8 epNumber) 
1232:.\Generated_Source\PSoC5/USBUART_1.c **** {
 1451              		.loc 1 1232 0
 1452              		.cfi_startproc
 1453              		@ args = 0, pretend = 0, frame = 16
 1454              		@ frame_needed = 1, uses_anonymous_args = 0
 1455              		@ link register save eliminated.
 1456 0000 80B4     		push	{r7}
 1457              	.LCFI46:
 1458              		.cfi_def_cfa_offset 4
 1459              		.cfi_offset 7, -4
 1460 0002 85B0     		sub	sp, sp, #20
 1461              	.LCFI47:
 1462              		.cfi_def_cfa_offset 24
 1463 0004 00AF     		add	r7, sp, #0
 1464              	.LCFI48:
 1465              		.cfi_def_cfa_register 7
 1466 0006 0346     		mov	r3, r0
 1467 0008 FB71     		strb	r3, [r7, #7]
1233:.\Generated_Source\PSoC5/USBUART_1.c ****     uint8 ri;
1234:.\Generated_Source\PSoC5/USBUART_1.c ****     uint8 cr = 0u;
 1468              		.loc 1 1234 0
 1469 000a 4FF00003 		mov	r3, #0
 1470 000e FB73     		strb	r3, [r7, #15]
1235:.\Generated_Source\PSoC5/USBUART_1.c **** 
1236:.\Generated_Source\PSoC5/USBUART_1.c ****     if((epNumber > USBUART_1_EP0) && (epNumber < USBUART_1_MAX_EP))
 1471              		.loc 1 1236 0
 1472 0010 FB79     		ldrb	r3, [r7, #7]	@ zero_extendqisi2
 1473 0012 002B     		cmp	r3, #0
 1474 0014 14D0     		beq	.L49
 1475              		.loc 1 1236 0 is_stmt 0 discriminator 1
 1476 0016 FB79     		ldrb	r3, [r7, #7]	@ zero_extendqisi2
 1477 0018 082B     		cmp	r3, #8
 1478 001a 11D8     		bhi	.L49
1237:.\Generated_Source\PSoC5/USBUART_1.c ****     {
1238:.\Generated_Source\PSoC5/USBUART_1.c ****         ri = ((epNumber - USBUART_1_EP1) << USBUART_1_EPX_CNTX_ADDR_SHIFT);
 1479              		.loc 1 1238 0 is_stmt 1
 1480 001c FB79     		ldrb	r3, [r7, #7]
 1481 001e 03F1FF33 		add	r3, r3, #-1
 1482 0022 DBB2     		uxtb	r3, r3
 1483 0024 4FEA0313 		lsl	r3, r3, #4
 1484 0028 BB73     		strb	r3, [r7, #14]
1239:.\Generated_Source\PSoC5/USBUART_1.c ****         cr = CY_GET_REG8((reg8 *)(USBUART_1_SIE_EP1_CR0_IND + ri)) & USBUART_1_MODE_ACKD;
 1485              		.loc 1 1239 0
 1486 002a BA7B     		ldrb	r2, [r7, #14]	@ zero_extendqisi2
 1487 002c 46F20E03 		movw	r3, #24590
 1488 0030 C4F20003 		movt	r3, 16384
 1489 0034 D318     		adds	r3, r2, r3
ARM GAS  C:\Users\Colin\AppData\Local\Temp\ccMAPRQY.s 			page 49


 1490 0036 1B78     		ldrb	r3, [r3, #0]
 1491 0038 DBB2     		uxtb	r3, r3
 1492 003a 03F01003 		and	r3, r3, #16
 1493 003e FB73     		strb	r3, [r7, #15]
 1494              	.L49:
1240:.\Generated_Source\PSoC5/USBUART_1.c ****     }
1241:.\Generated_Source\PSoC5/USBUART_1.c **** 
1242:.\Generated_Source\PSoC5/USBUART_1.c ****     return(cr);
 1495              		.loc 1 1242 0
 1496 0040 FB7B     		ldrb	r3, [r7, #15]	@ zero_extendqisi2
1243:.\Generated_Source\PSoC5/USBUART_1.c **** }
 1497              		.loc 1 1243 0
 1498 0042 1846     		mov	r0, r3
 1499 0044 07F11407 		add	r7, r7, #20
 1500 0048 BD46     		mov	sp, r7
 1501 004a 80BC     		pop	{r7}
 1502 004c 7047     		bx	lr
 1503              		.cfi_endproc
 1504              	.LFE16:
 1505              		.size	USBUART_1_GetEPAckState, .-USBUART_1_GetEPAckState
 1506 004e 00BF     		.section	.text.USBUART_1_SetPowerStatus,"ax",%progbits
 1507              		.align	2
 1508              		.global	USBUART_1_SetPowerStatus
 1509              		.thumb
 1510              		.thumb_func
 1511              		.type	USBUART_1_SetPowerStatus, %function
 1512              	USBUART_1_SetPowerStatus:
 1513              	.LFB17:
1244:.\Generated_Source\PSoC5/USBUART_1.c **** 
1245:.\Generated_Source\PSoC5/USBUART_1.c **** 
1246:.\Generated_Source\PSoC5/USBUART_1.c **** /*******************************************************************************
1247:.\Generated_Source\PSoC5/USBUART_1.c **** * Function Name: USBUART_1_SetPowerStatus
1248:.\Generated_Source\PSoC5/USBUART_1.c **** ********************************************************************************
1249:.\Generated_Source\PSoC5/USBUART_1.c **** *
1250:.\Generated_Source\PSoC5/USBUART_1.c **** * Summary:
1251:.\Generated_Source\PSoC5/USBUART_1.c **** *  Sets the device power status for reporting in the Get Device Status
1252:.\Generated_Source\PSoC5/USBUART_1.c **** *  request
1253:.\Generated_Source\PSoC5/USBUART_1.c **** *
1254:.\Generated_Source\PSoC5/USBUART_1.c **** * Parameters:
1255:.\Generated_Source\PSoC5/USBUART_1.c **** *  powerStatus: USBUART_1_DEVICE_STATUS_BUS_POWERED(0) - Bus Powered,
1256:.\Generated_Source\PSoC5/USBUART_1.c **** *               USBUART_1_DEVICE_STATUS_SELF_POWERED(1) - Self Powered
1257:.\Generated_Source\PSoC5/USBUART_1.c **** *
1258:.\Generated_Source\PSoC5/USBUART_1.c **** * Return:
1259:.\Generated_Source\PSoC5/USBUART_1.c **** *   None.
1260:.\Generated_Source\PSoC5/USBUART_1.c **** *
1261:.\Generated_Source\PSoC5/USBUART_1.c **** * Global variables:
1262:.\Generated_Source\PSoC5/USBUART_1.c **** *  USBUART_1_deviceStatus - set power status
1263:.\Generated_Source\PSoC5/USBUART_1.c **** *
1264:.\Generated_Source\PSoC5/USBUART_1.c **** * Reentrant:
1265:.\Generated_Source\PSoC5/USBUART_1.c **** *  No.
1266:.\Generated_Source\PSoC5/USBUART_1.c **** *
1267:.\Generated_Source\PSoC5/USBUART_1.c **** *******************************************************************************/
1268:.\Generated_Source\PSoC5/USBUART_1.c **** void USBUART_1_SetPowerStatus(uint8 powerStatus) 
1269:.\Generated_Source\PSoC5/USBUART_1.c **** {
 1514              		.loc 1 1269 0
 1515              		.cfi_startproc
 1516              		@ args = 0, pretend = 0, frame = 8
ARM GAS  C:\Users\Colin\AppData\Local\Temp\ccMAPRQY.s 			page 50


 1517              		@ frame_needed = 1, uses_anonymous_args = 0
 1518              		@ link register save eliminated.
 1519 0000 80B4     		push	{r7}
 1520              	.LCFI49:
 1521              		.cfi_def_cfa_offset 4
 1522              		.cfi_offset 7, -4
 1523 0002 83B0     		sub	sp, sp, #12
 1524              	.LCFI50:
 1525              		.cfi_def_cfa_offset 16
 1526 0004 00AF     		add	r7, sp, #0
 1527              	.LCFI51:
 1528              		.cfi_def_cfa_register 7
 1529 0006 0346     		mov	r3, r0
 1530 0008 FB71     		strb	r3, [r7, #7]
1270:.\Generated_Source\PSoC5/USBUART_1.c ****     if (powerStatus != USBUART_1_DEVICE_STATUS_BUS_POWERED)
 1531              		.loc 1 1270 0
 1532 000a FB79     		ldrb	r3, [r7, #7]	@ zero_extendqisi2
 1533 000c 002B     		cmp	r3, #0
 1534 000e 0ED0     		beq	.L52
1271:.\Generated_Source\PSoC5/USBUART_1.c ****     {
1272:.\Generated_Source\PSoC5/USBUART_1.c ****         USBUART_1_deviceStatus |=  USBUART_1_DEVICE_STATUS_SELF_POWERED;
 1535              		.loc 1 1272 0
 1536 0010 40F20003 		movw	r3, #:lower16:USBUART_1_deviceStatus
 1537 0014 C0F20003 		movt	r3, #:upper16:USBUART_1_deviceStatus
 1538 0018 1B78     		ldrb	r3, [r3, #0]
 1539 001a DBB2     		uxtb	r3, r3
 1540 001c 43F00103 		orr	r3, r3, #1
 1541 0020 DAB2     		uxtb	r2, r3
 1542 0022 40F20003 		movw	r3, #:lower16:USBUART_1_deviceStatus
 1543 0026 C0F20003 		movt	r3, #:upper16:USBUART_1_deviceStatus
 1544 002a 1A70     		strb	r2, [r3, #0]
 1545 002c 0DE0     		b	.L51
 1546              	.L52:
1273:.\Generated_Source\PSoC5/USBUART_1.c ****     }
1274:.\Generated_Source\PSoC5/USBUART_1.c ****     else
1275:.\Generated_Source\PSoC5/USBUART_1.c ****     {
1276:.\Generated_Source\PSoC5/USBUART_1.c ****         USBUART_1_deviceStatus &=  ((uint8)(~USBUART_1_DEVICE_STATUS_SELF_POWERED));
 1547              		.loc 1 1276 0
 1548 002e 40F20003 		movw	r3, #:lower16:USBUART_1_deviceStatus
 1549 0032 C0F20003 		movt	r3, #:upper16:USBUART_1_deviceStatus
 1550 0036 1B78     		ldrb	r3, [r3, #0]
 1551 0038 DBB2     		uxtb	r3, r3
 1552 003a 23F00103 		bic	r3, r3, #1
 1553 003e DAB2     		uxtb	r2, r3
 1554 0040 40F20003 		movw	r3, #:lower16:USBUART_1_deviceStatus
 1555 0044 C0F20003 		movt	r3, #:upper16:USBUART_1_deviceStatus
 1556 0048 1A70     		strb	r2, [r3, #0]
 1557              	.L51:
1277:.\Generated_Source\PSoC5/USBUART_1.c ****     }
1278:.\Generated_Source\PSoC5/USBUART_1.c **** }
 1558              		.loc 1 1278 0
 1559 004a 07F10C07 		add	r7, r7, #12
 1560 004e BD46     		mov	sp, r7
 1561 0050 80BC     		pop	{r7}
 1562 0052 7047     		bx	lr
 1563              		.cfi_endproc
 1564              	.LFE17:
ARM GAS  C:\Users\Colin\AppData\Local\Temp\ccMAPRQY.s 			page 51


 1565              		.size	USBUART_1_SetPowerStatus, .-USBUART_1_SetPowerStatus
 1566              		.section	.text.USBUART_1_RWUEnabled,"ax",%progbits
 1567              		.align	2
 1568              		.global	USBUART_1_RWUEnabled
 1569              		.thumb
 1570              		.thumb_func
 1571              		.type	USBUART_1_RWUEnabled, %function
 1572              	USBUART_1_RWUEnabled:
 1573              	.LFB18:
1279:.\Generated_Source\PSoC5/USBUART_1.c **** 
1280:.\Generated_Source\PSoC5/USBUART_1.c **** 
1281:.\Generated_Source\PSoC5/USBUART_1.c **** #if (USBUART_1_MON_VBUS == 1u)
1282:.\Generated_Source\PSoC5/USBUART_1.c **** 
1283:.\Generated_Source\PSoC5/USBUART_1.c ****     /*******************************************************************************
1284:.\Generated_Source\PSoC5/USBUART_1.c ****     * Function Name: USBUART_1_VBusPresent
1285:.\Generated_Source\PSoC5/USBUART_1.c ****     ********************************************************************************
1286:.\Generated_Source\PSoC5/USBUART_1.c ****     *
1287:.\Generated_Source\PSoC5/USBUART_1.c ****     * Summary:
1288:.\Generated_Source\PSoC5/USBUART_1.c ****     *  Determines VBUS presence for Self Powered Devices.
1289:.\Generated_Source\PSoC5/USBUART_1.c ****     *
1290:.\Generated_Source\PSoC5/USBUART_1.c ****     * Parameters:
1291:.\Generated_Source\PSoC5/USBUART_1.c ****     *  None.
1292:.\Generated_Source\PSoC5/USBUART_1.c ****     *
1293:.\Generated_Source\PSoC5/USBUART_1.c ****     * Return:
1294:.\Generated_Source\PSoC5/USBUART_1.c ****     *  1 if VBUS is present, otherwise 0.
1295:.\Generated_Source\PSoC5/USBUART_1.c ****     *
1296:.\Generated_Source\PSoC5/USBUART_1.c ****     *******************************************************************************/
1297:.\Generated_Source\PSoC5/USBUART_1.c ****     uint8 USBUART_1_VBusPresent(void) 
1298:.\Generated_Source\PSoC5/USBUART_1.c ****     {
1299:.\Generated_Source\PSoC5/USBUART_1.c ****         return((0u != (CY_GET_REG8(USBUART_1_VBUS_PS_PTR) & USBUART_1_VBUS_MASK)) ? 1u : 0u);
1300:.\Generated_Source\PSoC5/USBUART_1.c ****     }
1301:.\Generated_Source\PSoC5/USBUART_1.c **** 
1302:.\Generated_Source\PSoC5/USBUART_1.c **** #endif /* USBUART_1_MON_VBUS */
1303:.\Generated_Source\PSoC5/USBUART_1.c **** 
1304:.\Generated_Source\PSoC5/USBUART_1.c **** 
1305:.\Generated_Source\PSoC5/USBUART_1.c **** /*******************************************************************************
1306:.\Generated_Source\PSoC5/USBUART_1.c **** * Function Name: USBUART_1_RWUEnabled
1307:.\Generated_Source\PSoC5/USBUART_1.c **** ********************************************************************************
1308:.\Generated_Source\PSoC5/USBUART_1.c **** *
1309:.\Generated_Source\PSoC5/USBUART_1.c **** * Summary:
1310:.\Generated_Source\PSoC5/USBUART_1.c **** *  Returns TRUE if Remote Wake Up is enabled, otherwise FALSE
1311:.\Generated_Source\PSoC5/USBUART_1.c **** *
1312:.\Generated_Source\PSoC5/USBUART_1.c **** * Parameters:
1313:.\Generated_Source\PSoC5/USBUART_1.c **** *   None.
1314:.\Generated_Source\PSoC5/USBUART_1.c **** *
1315:.\Generated_Source\PSoC5/USBUART_1.c **** * Return:
1316:.\Generated_Source\PSoC5/USBUART_1.c **** *  TRUE -  Remote Wake Up Enabled
1317:.\Generated_Source\PSoC5/USBUART_1.c **** *  FALSE - Remote Wake Up Disabled
1318:.\Generated_Source\PSoC5/USBUART_1.c **** *
1319:.\Generated_Source\PSoC5/USBUART_1.c **** * Global variables:
1320:.\Generated_Source\PSoC5/USBUART_1.c **** *  USBUART_1_deviceStatus - checked to determine remote status
1321:.\Generated_Source\PSoC5/USBUART_1.c **** *
1322:.\Generated_Source\PSoC5/USBUART_1.c **** *******************************************************************************/
1323:.\Generated_Source\PSoC5/USBUART_1.c **** uint8 USBUART_1_RWUEnabled(void) 
1324:.\Generated_Source\PSoC5/USBUART_1.c **** {
 1574              		.loc 1 1324 0
 1575              		.cfi_startproc
ARM GAS  C:\Users\Colin\AppData\Local\Temp\ccMAPRQY.s 			page 52


 1576              		@ args = 0, pretend = 0, frame = 8
 1577              		@ frame_needed = 1, uses_anonymous_args = 0
 1578              		@ link register save eliminated.
 1579 0000 80B4     		push	{r7}
 1580              	.LCFI52:
 1581              		.cfi_def_cfa_offset 4
 1582              		.cfi_offset 7, -4
 1583 0002 83B0     		sub	sp, sp, #12
 1584              	.LCFI53:
 1585              		.cfi_def_cfa_offset 16
 1586 0004 00AF     		add	r7, sp, #0
 1587              	.LCFI54:
 1588              		.cfi_def_cfa_register 7
1325:.\Generated_Source\PSoC5/USBUART_1.c ****     uint8 result = USBUART_1_FALSE;
 1589              		.loc 1 1325 0
 1590 0006 4FF00003 		mov	r3, #0
 1591 000a FB71     		strb	r3, [r7, #7]
1326:.\Generated_Source\PSoC5/USBUART_1.c ****     if((USBUART_1_deviceStatus & USBUART_1_DEVICE_STATUS_REMOTE_WAKEUP) != 0u)
 1592              		.loc 1 1326 0
 1593 000c 40F20003 		movw	r3, #:lower16:USBUART_1_deviceStatus
 1594 0010 C0F20003 		movt	r3, #:upper16:USBUART_1_deviceStatus
 1595 0014 1B78     		ldrb	r3, [r3, #0]
 1596 0016 DBB2     		uxtb	r3, r3
 1597 0018 03F00203 		and	r3, r3, #2
 1598 001c 002B     		cmp	r3, #0
 1599 001e 02D0     		beq	.L55
1327:.\Generated_Source\PSoC5/USBUART_1.c ****     {
1328:.\Generated_Source\PSoC5/USBUART_1.c ****         result = USBUART_1_TRUE;
 1600              		.loc 1 1328 0
 1601 0020 4FF00103 		mov	r3, #1
 1602 0024 FB71     		strb	r3, [r7, #7]
 1603              	.L55:
1329:.\Generated_Source\PSoC5/USBUART_1.c ****     }
1330:.\Generated_Source\PSoC5/USBUART_1.c **** 
1331:.\Generated_Source\PSoC5/USBUART_1.c ****     return(result);
 1604              		.loc 1 1331 0
 1605 0026 FB79     		ldrb	r3, [r7, #7]	@ zero_extendqisi2
1332:.\Generated_Source\PSoC5/USBUART_1.c **** }
 1606              		.loc 1 1332 0
 1607 0028 1846     		mov	r0, r3
 1608 002a 07F10C07 		add	r7, r7, #12
 1609 002e BD46     		mov	sp, r7
 1610 0030 80BC     		pop	{r7}
 1611 0032 7047     		bx	lr
 1612              		.cfi_endproc
 1613              	.LFE18:
 1614              		.size	USBUART_1_RWUEnabled, .-USBUART_1_RWUEnabled
 1615              		.text
 1616              	.Letext0:
 1617              		.file 2 "./Generated_Source/PSoC5/cytypes.h"
 1618              		.file 3 ".\\Generated_Source\\PSoC5\\USBUART_1.h"
 1619              		.file 4 ".\\Generated_Source\\PSoC5\\USBUART_1_pvt.h"